

Microchip Technology PIC LITE Macro Assembler V1.41 build -162212810 
                                                                                               Mon Dec 11 10:17:52 2017

Microchip Technology Omniscient Code Generator v1.41 (Free mode) build 201701250102
     1                           	processor	16F18855
     2                           	opt	pw 120
     3                           	opt	lm
     4                           	psect	stringtext,global,class=STRCODE,delta=2
     5                           	psect	cinit,global,class=CODE,merge=1,delta=2
     6                           	psect	bssCOMMON,global,class=COMMON,space=1,delta=1
     7                           	psect	bssBANK0,global,class=BANK0,space=1,delta=1
     8                           	psect	cstackCOMMON,global,class=COMMON,space=1,delta=1
     9                           	psect	cstackBANK0,global,class=BANK0,space=1,delta=1
    10                           	psect	maintext,global,class=CODE,merge=1,split=1,delta=2
    11                           	psect	text1,local,class=CODE,merge=1,delta=2
    12                           	psect	text2,local,class=CODE,merge=1,delta=2
    13                           	psect	text3,local,class=CODE,merge=1,delta=2
    14                           	psect	text4,local,class=CODE,merge=1,delta=2
    15                           	psect	text5,local,class=CODE,merge=1,delta=2
    16                           	psect	text6,local,class=CODE,merge=1,delta=2
    17                           	psect	text7,local,class=CODE,merge=1,delta=2
    18                           	psect	text8,local,class=CODE,merge=1,delta=2
    19                           	psect	text9,local,class=CODE,merge=1,delta=2,group=2
    20                           	psect	text10,local,class=CODE,merge=1,delta=2
    21                           	psect	intentry,global,class=CODE,delta=2
    22                           	psect	text12,local,class=CODE,merge=1,delta=2
    23                           	dabs	1,0x7E,2
    24  0000                     
    25                           ; Version 1.41
    26                           ; Generated 25/01/2017 GMT
    27                           ; 
    28                           ; Copyright © 2017, Microchip Technology Inc. and its subsidiaries ("Microchip")
    29                           ; All rights reserved.
    30                           ; 
    31                           ; This software is developed by Microchip Technology Inc. and its subsidiaries ("Microch
      +                          ip").
    32                           ; 
    33                           ; Redistribution and use in source and binary forms, with or without modification, are
    34                           ; permitted provided that the following conditions are met:
    35                           ; 
    36                           ;     1. Redistributions of source code must retain the above copyright notice, this lis
      +                          t of
    37                           ;        conditions and the following disclaimer.
    38                           ; 
    39                           ;     2. Redistributions in binary form must reproduce the above copyright notice, this 
      +                          list
    40                           ;        of conditions and the following disclaimer in the documentation and/or other
    41                           ;        materials provided with the distribution.
    42                           ; 
    43                           ;     3. Microchip's name may not be used to endorse or promote products derived from th
      +                          is
    44                           ;        software without specific prior written permission.
    45                           ; 
    46                           ; THIS SOFTWARE IS PROVIDED BY MICROCHIP "AS IS" AND ANY EXPRESS OR IMPLIED WARRANTIES,
    47                           ; INCLUDING, BUT NOT LIMITED TO, THE IMPLIED WARRANTIES OF MERCHANTABILITY AND FITNESS F
      +                          OR
    48                           ; PURPOSE ARE DISCLAIMED.  IN NO EVENT SHALL MICROCHIP BE LIABLE FOR ANY DIRECT, INDIREC
      +                          T,
    49                           ; INCIDENTAL, SPECIAL, EXEMPLARY, OR CONSEQUENTIAL DAMAGES (INCLUDING BUT NOT LIMITED TO
    50                           ; PROCUREMENT OF SUBSTITUTE GOODS OR SERVICES; LOSS OF USE, DATA OR PROFITS; OR BUSINESS
    51                           ; INTERRUPTION) HOWSOEVER CAUSED AND ON ANY THEORY OF LIABILITY, WHETHER IN CONTRACT, ST
      +                          RICT
    52                           ; LIABILITY, OR TORT (INCLUDING NEGLIGENCE OR OTHERWISE) ARISING IN ANY WAY OUT OF THE U
      +                          SE OF
    53                           ; THIS SOFTWARE, EVEN IF ADVISED OF THE POSSIBILITY OF SUCH DAMAGE.
    54                           ; 
    55                           ; 
    56                           ; Code-generator required, PIC16F18855 Definitions
    57                           ; 
    58                           ; SFR Addresses
    59  0000                     	;# 
    60  0001                     	;# 
    61  0002                     	;# 
    62  0003                     	;# 
    63  0004                     	;# 
    64  0005                     	;# 
    65  0006                     	;# 
    66  0007                     	;# 
    67  0008                     	;# 
    68  0009                     	;# 
    69  000A                     	;# 
    70  000B                     	;# 
    71  000C                     	;# 
    72  000D                     	;# 
    73  000E                     	;# 
    74  0010                     	;# 
    75  0011                     	;# 
    76  0012                     	;# 
    77  0013                     	;# 
    78  0016                     	;# 
    79  0017                     	;# 
    80  0018                     	;# 
    81  001C                     	;# 
    82  001C                     	;# 
    83  001D                     	;# 
    84  001D                     	;# 
    85  001E                     	;# 
    86  001F                     	;# 
    87  008C                     	;# 
    88  008C                     	;# 
    89  008D                     	;# 
    90  008E                     	;# 
    91  008E                     	;# 
    92  008F                     	;# 
    93  0090                     	;# 
    94  0090                     	;# 
    95  0091                     	;# 
    96  0093                     	;# 
    97  0094                     	;# 
    98  0095                     	;# 
    99  0096                     	;# 
   100  0097                     	;# 
   101  0098                     	;# 
   102  0099                     	;# 
   103  009A                     	;# 
   104  009B                     	;# 
   105  009C                     	;# 
   106  009D                     	;# 
   107  009E                     	;# 
   108  010C                     	;# 
   109  010D                     	;# 
   110  010E                     	;# 
   111  010E                     	;# 
   112  010F                     	;# 
   113  0110                     	;# 
   114  0110                     	;# 
   115  0111                     	;# 
   116  0112                     	;# 
   117  0112                     	;# 
   118  0113                     	;# 
   119  0114                     	;# 
   120  0114                     	;# 
   121  0115                     	;# 
   122  0116                     	;# 
   123  0116                     	;# 
   124  0117                     	;# 
   125  0119                     	;# 
   126  0119                     	;# 
   127  0119                     	;# 
   128  011A                     	;# 
   129  011A                     	;# 
   130  011A                     	;# 
   131  011B                     	;# 
   132  011B                     	;# 
   133  011B                     	;# 
   134  011B                     	;# 
   135  011B                     	;# 
   136  011C                     	;# 
   137  011C                     	;# 
   138  011C                     	;# 
   139  011D                     	;# 
   140  011D                     	;# 
   141  011D                     	;# 
   142  011E                     	;# 
   143  011E                     	;# 
   144  011E                     	;# 
   145  011F                     	;# 
   146  011F                     	;# 
   147  011F                     	;# 
   148  011F                     	;# 
   149  011F                     	;# 
   150  018C                     	;# 
   151  018D                     	;# 
   152  018E                     	;# 
   153  018F                     	;# 
   154  0190                     	;# 
   155  0191                     	;# 
   156  0192                     	;# 
   157  0196                     	;# 
   158  0197                     	;# 
   159  0198                     	;# 
   160  0199                     	;# 
   161  019A                     	;# 
   162  019B                     	;# 
   163  019C                     	;# 
   164  020C                     	;# 
   165  020C                     	;# 
   166  020D                     	;# 
   167  020E                     	;# 
   168  020F                     	;# 
   169  020F                     	;# 
   170  0210                     	;# 
   171  0210                     	;# 
   172  0211                     	;# 
   173  0211                     	;# 
   174  0212                     	;# 
   175  0212                     	;# 
   176  0213                     	;# 
   177  0214                     	;# 
   178  0215                     	;# 
   179  0215                     	;# 
   180  0216                     	;# 
   181  0216                     	;# 
   182  0217                     	;# 
   183  0217                     	;# 
   184  0218                     	;# 
   185  0218                     	;# 
   186  0219                     	;# 
   187  021A                     	;# 
   188  021B                     	;# 
   189  021B                     	;# 
   190  021C                     	;# 
   191  021C                     	;# 
   192  021D                     	;# 
   193  021D                     	;# 
   194  021E                     	;# 
   195  021F                     	;# 
   196  028C                     	;# 
   197  028C                     	;# 
   198  028D                     	;# 
   199  028D                     	;# 
   200  028E                     	;# 
   201  028F                     	;# 
   202  0290                     	;# 
   203  0290                     	;# 
   204  0291                     	;# 
   205  0292                     	;# 
   206  0292                     	;# 
   207  0293                     	;# 
   208  0293                     	;# 
   209  0294                     	;# 
   210  0295                     	;# 
   211  0296                     	;# 
   212  0296                     	;# 
   213  0297                     	;# 
   214  0298                     	;# 
   215  0298                     	;# 
   216  0299                     	;# 
   217  0299                     	;# 
   218  029A                     	;# 
   219  029B                     	;# 
   220  029C                     	;# 
   221  029C                     	;# 
   222  029D                     	;# 
   223  030C                     	;# 
   224  030C                     	;# 
   225  030D                     	;# 
   226  030E                     	;# 
   227  030F                     	;# 
   228  0310                     	;# 
   229  0310                     	;# 
   230  0311                     	;# 
   231  0312                     	;# 
   232  0313                     	;# 
   233  0314                     	;# 
   234  0314                     	;# 
   235  0315                     	;# 
   236  0316                     	;# 
   237  0317                     	;# 
   238  0318                     	;# 
   239  0318                     	;# 
   240  0319                     	;# 
   241  031A                     	;# 
   242  031B                     	;# 
   243  031C                     	;# 
   244  031C                     	;# 
   245  031D                     	;# 
   246  031E                     	;# 
   247  031F                     	;# 
   248  038C                     	;# 
   249  038D                     	;# 
   250  038E                     	;# 
   251  0390                     	;# 
   252  0391                     	;# 
   253  0392                     	;# 
   254  040C                     	;# 
   255  040D                     	;# 
   256  040E                     	;# 
   257  040F                     	;# 
   258  0410                     	;# 
   259  0411                     	;# 
   260  0416                     	;# 
   261  0416                     	;# 
   262  0417                     	;# 
   263  0418                     	;# 
   264  0418                     	;# 
   265  0419                     	;# 
   266  041A                     	;# 
   267  041A                     	;# 
   268  041B                     	;# 
   269  041C                     	;# 
   270  041C                     	;# 
   271  041D                     	;# 
   272  041E                     	;# 
   273  041F                     	;# 
   274  048C                     	;# 
   275  048C                     	;# 
   276  048D                     	;# 
   277  048E                     	;# 
   278  048F                     	;# 
   279  048F                     	;# 
   280  0490                     	;# 
   281  0491                     	;# 
   282  0492                     	;# 
   283  0492                     	;# 
   284  0493                     	;# 
   285  0494                     	;# 
   286  0495                     	;# 
   287  0495                     	;# 
   288  0496                     	;# 
   289  0497                     	;# 
   290  0498                     	;# 
   291  0499                     	;# 
   292  049A                     	;# 
   293  049B                     	;# 
   294  049C                     	;# 
   295  049D                     	;# 
   296  050C                     	;# 
   297  050C                     	;# 
   298  050D                     	;# 
   299  050E                     	;# 
   300  050F                     	;# 
   301  050F                     	;# 
   302  0510                     	;# 
   303  0511                     	;# 
   304  0512                     	;# 
   305  0512                     	;# 
   306  0513                     	;# 
   307  0514                     	;# 
   308  0515                     	;# 
   309  0515                     	;# 
   310  0516                     	;# 
   311  0517                     	;# 
   312  0518                     	;# 
   313  0519                     	;# 
   314  051A                     	;# 
   315  051B                     	;# 
   316  051C                     	;# 
   317  051D                     	;# 
   318  058C                     	;# 
   319  058C                     	;# 
   320  058D                     	;# 
   321  058E                     	;# 
   322  058F                     	;# 
   323  058F                     	;# 
   324  0590                     	;# 
   325  0591                     	;# 
   326  0592                     	;# 
   327  0593                     	;# 
   328  060C                     	;# 
   329  060D                     	;# 
   330  060E                     	;# 
   331  060F                     	;# 
   332  0610                     	;# 
   333  0611                     	;# 
   334  0612                     	;# 
   335  0613                     	;# 
   336  0614                     	;# 
   337  0616                     	;# 
   338  0617                     	;# 
   339  0618                     	;# 
   340  0619                     	;# 
   341  061A                     	;# 
   342  061B                     	;# 
   343  061C                     	;# 
   344  061D                     	;# 
   345  061E                     	;# 
   346  068C                     	;# 
   347  068D                     	;# 
   348  068E                     	;# 
   349  068F                     	;# 
   350  0690                     	;# 
   351  0691                     	;# 
   352  0692                     	;# 
   353  0693                     	;# 
   354  0694                     	;# 
   355  070C                     	;# 
   356  070D                     	;# 
   357  070E                     	;# 
   358  070F                     	;# 
   359  0710                     	;# 
   360  0711                     	;# 
   361  0712                     	;# 
   362  0713                     	;# 
   363  0714                     	;# 
   364  0716                     	;# 
   365  0717                     	;# 
   366  0718                     	;# 
   367  0719                     	;# 
   368  071A                     	;# 
   369  071B                     	;# 
   370  071C                     	;# 
   371  071D                     	;# 
   372  071E                     	;# 
   373  0796                     	;# 
   374  0797                     	;# 
   375  0798                     	;# 
   376  0799                     	;# 
   377  079A                     	;# 
   378  079B                     	;# 
   379  080C                     	;# 
   380  080D                     	;# 
   381  080E                     	;# 
   382  080F                     	;# 
   383  0810                     	;# 
   384  0811                     	;# 
   385  0812                     	;# 
   386  0813                     	;# 
   387  0814                     	;# 
   388  081A                     	;# 
   389  081B                     	;# 
   390  081C                     	;# 
   391  081D                     	;# 
   392  081E                     	;# 
   393  081F                     	;# 
   394  088C                     	;# 
   395  088D                     	;# 
   396  088E                     	;# 
   397  088F                     	;# 
   398  0890                     	;# 
   399  0891                     	;# 
   400  0892                     	;# 
   401  0893                     	;# 
   402  0895                     	;# 
   403  0896                     	;# 
   404  0897                     	;# 
   405  0898                     	;# 
   406  0899                     	;# 
   407  089A                     	;# 
   408  089B                     	;# 
   409  090C                     	;# 
   410  090E                     	;# 
   411  090F                     	;# 
   412  091F                     	;# 
   413  091F                     	;# 
   414  098F                     	;# 
   415  098F                     	;# 
   416  0990                     	;# 
   417  0991                     	;# 
   418  0992                     	;# 
   419  0993                     	;# 
   420  0994                     	;# 
   421  0995                     	;# 
   422  0996                     	;# 
   423  0997                     	;# 
   424  0E0F                     	;# 
   425  0E10                     	;# 
   426  0E11                     	;# 
   427  0E12                     	;# 
   428  0E13                     	;# 
   429  0E14                     	;# 
   430  0E15                     	;# 
   431  0E16                     	;# 
   432  0E17                     	;# 
   433  0E18                     	;# 
   434  0E19                     	;# 
   435  0E1A                     	;# 
   436  0E1B                     	;# 
   437  0E1C                     	;# 
   438  0E1D                     	;# 
   439  0E1E                     	;# 
   440  0E1F                     	;# 
   441  0E20                     	;# 
   442  0E21                     	;# 
   443  0E22                     	;# 
   444  0E23                     	;# 
   445  0E24                     	;# 
   446  0E25                     	;# 
   447  0E26                     	;# 
   448  0E27                     	;# 
   449  0E28                     	;# 
   450  0E29                     	;# 
   451  0E2A                     	;# 
   452  0E2B                     	;# 
   453  0E2C                     	;# 
   454  0E2D                     	;# 
   455  0E2E                     	;# 
   456  0E2F                     	;# 
   457  0E30                     	;# 
   458  0E31                     	;# 
   459  0E32                     	;# 
   460  0E33                     	;# 
   461  0E34                     	;# 
   462  0E35                     	;# 
   463  0E36                     	;# 
   464  0E37                     	;# 
   465  0E8F                     	;# 
   466  0E90                     	;# 
   467  0E91                     	;# 
   468  0E92                     	;# 
   469  0E93                     	;# 
   470  0E94                     	;# 
   471  0E95                     	;# 
   472  0E96                     	;# 
   473  0E97                     	;# 
   474  0E9C                     	;# 
   475  0E9D                     	;# 
   476  0E9E                     	;# 
   477  0EA1                     	;# 
   478  0EA2                     	;# 
   479  0EA3                     	;# 
   480  0EA4                     	;# 
   481  0EA5                     	;# 
   482  0EA9                     	;# 
   483  0EAA                     	;# 
   484  0EAB                     	;# 
   485  0EAC                     	;# 
   486  0EB1                     	;# 
   487  0EB2                     	;# 
   488  0EB3                     	;# 
   489  0EB8                     	;# 
   490  0EB9                     	;# 
   491  0EBA                     	;# 
   492  0EBB                     	;# 
   493  0EBC                     	;# 
   494  0EBD                     	;# 
   495  0EBE                     	;# 
   496  0EC3                     	;# 
   497  0EC5                     	;# 
   498  0EC6                     	;# 
   499  0EC7                     	;# 
   500  0EC8                     	;# 
   501  0EC9                     	;# 
   502  0ECA                     	;# 
   503  0ECB                     	;# 
   504  0ECC                     	;# 
   505  0F10                     	;# 
   506  0F11                     	;# 
   507  0F12                     	;# 
   508  0F13                     	;# 
   509  0F14                     	;# 
   510  0F15                     	;# 
   511  0F16                     	;# 
   512  0F17                     	;# 
   513  0F18                     	;# 
   514  0F19                     	;# 
   515  0F1A                     	;# 
   516  0F1B                     	;# 
   517  0F1C                     	;# 
   518  0F1D                     	;# 
   519  0F1E                     	;# 
   520  0F1F                     	;# 
   521  0F20                     	;# 
   522  0F21                     	;# 
   523  0F22                     	;# 
   524  0F23                     	;# 
   525  0F24                     	;# 
   526  0F25                     	;# 
   527  0F26                     	;# 
   528  0F27                     	;# 
   529  0F38                     	;# 
   530  0F39                     	;# 
   531  0F3A                     	;# 
   532  0F3B                     	;# 
   533  0F3C                     	;# 
   534  0F3D                     	;# 
   535  0F3E                     	;# 
   536  0F3F                     	;# 
   537  0F40                     	;# 
   538  0F41                     	;# 
   539  0F43                     	;# 
   540  0F44                     	;# 
   541  0F45                     	;# 
   542  0F46                     	;# 
   543  0F47                     	;# 
   544  0F48                     	;# 
   545  0F49                     	;# 
   546  0F4A                     	;# 
   547  0F4B                     	;# 
   548  0F4C                     	;# 
   549  0F4E                     	;# 
   550  0F4F                     	;# 
   551  0F50                     	;# 
   552  0F51                     	;# 
   553  0F52                     	;# 
   554  0F53                     	;# 
   555  0F54                     	;# 
   556  0F55                     	;# 
   557  0F56                     	;# 
   558  0F57                     	;# 
   559  0F65                     	;# 
   560  0F68                     	;# 
   561  0F69                     	;# 
   562  0F6A                     	;# 
   563  0F6B                     	;# 
   564  0FE4                     	;# 
   565  0FE5                     	;# 
   566  0FE6                     	;# 
   567  0FE7                     	;# 
   568  0FE8                     	;# 
   569  0FE9                     	;# 
   570  0FEA                     	;# 
   571  0FEB                     	;# 
   572  0FED                     	;# 
   573  0FEE                     	;# 
   574  0FEF                     	;# 
   575  0000                     	;# 
   576  0001                     	;# 
   577  0002                     	;# 
   578  0003                     	;# 
   579  0004                     	;# 
   580  0005                     	;# 
   581  0006                     	;# 
   582  0007                     	;# 
   583  0008                     	;# 
   584  0009                     	;# 
   585  000A                     	;# 
   586  000B                     	;# 
   587  000C                     	;# 
   588  000D                     	;# 
   589  000E                     	;# 
   590  0010                     	;# 
   591  0011                     	;# 
   592  0012                     	;# 
   593  0013                     	;# 
   594  0016                     	;# 
   595  0017                     	;# 
   596  0018                     	;# 
   597  001C                     	;# 
   598  001C                     	;# 
   599  001D                     	;# 
   600  001D                     	;# 
   601  001E                     	;# 
   602  001F                     	;# 
   603  008C                     	;# 
   604  008C                     	;# 
   605  008D                     	;# 
   606  008E                     	;# 
   607  008E                     	;# 
   608  008F                     	;# 
   609  0090                     	;# 
   610  0090                     	;# 
   611  0091                     	;# 
   612  0093                     	;# 
   613  0094                     	;# 
   614  0095                     	;# 
   615  0096                     	;# 
   616  0097                     	;# 
   617  0098                     	;# 
   618  0099                     	;# 
   619  009A                     	;# 
   620  009B                     	;# 
   621  009C                     	;# 
   622  009D                     	;# 
   623  009E                     	;# 
   624  010C                     	;# 
   625  010D                     	;# 
   626  010E                     	;# 
   627  010E                     	;# 
   628  010F                     	;# 
   629  0110                     	;# 
   630  0110                     	;# 
   631  0111                     	;# 
   632  0112                     	;# 
   633  0112                     	;# 
   634  0113                     	;# 
   635  0114                     	;# 
   636  0114                     	;# 
   637  0115                     	;# 
   638  0116                     	;# 
   639  0116                     	;# 
   640  0117                     	;# 
   641  0119                     	;# 
   642  0119                     	;# 
   643  0119                     	;# 
   644  011A                     	;# 
   645  011A                     	;# 
   646  011A                     	;# 
   647  011B                     	;# 
   648  011B                     	;# 
   649  011B                     	;# 
   650  011B                     	;# 
   651  011B                     	;# 
   652  011C                     	;# 
   653  011C                     	;# 
   654  011C                     	;# 
   655  011D                     	;# 
   656  011D                     	;# 
   657  011D                     	;# 
   658  011E                     	;# 
   659  011E                     	;# 
   660  011E                     	;# 
   661  011F                     	;# 
   662  011F                     	;# 
   663  011F                     	;# 
   664  011F                     	;# 
   665  011F                     	;# 
   666  018C                     	;# 
   667  018D                     	;# 
   668  018E                     	;# 
   669  018F                     	;# 
   670  0190                     	;# 
   671  0191                     	;# 
   672  0192                     	;# 
   673  0196                     	;# 
   674  0197                     	;# 
   675  0198                     	;# 
   676  0199                     	;# 
   677  019A                     	;# 
   678  019B                     	;# 
   679  019C                     	;# 
   680  020C                     	;# 
   681  020C                     	;# 
   682  020D                     	;# 
   683  020E                     	;# 
   684  020F                     	;# 
   685  020F                     	;# 
   686  0210                     	;# 
   687  0210                     	;# 
   688  0211                     	;# 
   689  0211                     	;# 
   690  0212                     	;# 
   691  0212                     	;# 
   692  0213                     	;# 
   693  0214                     	;# 
   694  0215                     	;# 
   695  0215                     	;# 
   696  0216                     	;# 
   697  0216                     	;# 
   698  0217                     	;# 
   699  0217                     	;# 
   700  0218                     	;# 
   701  0218                     	;# 
   702  0219                     	;# 
   703  021A                     	;# 
   704  021B                     	;# 
   705  021B                     	;# 
   706  021C                     	;# 
   707  021C                     	;# 
   708  021D                     	;# 
   709  021D                     	;# 
   710  021E                     	;# 
   711  021F                     	;# 
   712  028C                     	;# 
   713  028C                     	;# 
   714  028D                     	;# 
   715  028D                     	;# 
   716  028E                     	;# 
   717  028F                     	;# 
   718  0290                     	;# 
   719  0290                     	;# 
   720  0291                     	;# 
   721  0292                     	;# 
   722  0292                     	;# 
   723  0293                     	;# 
   724  0293                     	;# 
   725  0294                     	;# 
   726  0295                     	;# 
   727  0296                     	;# 
   728  0296                     	;# 
   729  0297                     	;# 
   730  0298                     	;# 
   731  0298                     	;# 
   732  0299                     	;# 
   733  0299                     	;# 
   734  029A                     	;# 
   735  029B                     	;# 
   736  029C                     	;# 
   737  029C                     	;# 
   738  029D                     	;# 
   739  030C                     	;# 
   740  030C                     	;# 
   741  030D                     	;# 
   742  030E                     	;# 
   743  030F                     	;# 
   744  0310                     	;# 
   745  0310                     	;# 
   746  0311                     	;# 
   747  0312                     	;# 
   748  0313                     	;# 
   749  0314                     	;# 
   750  0314                     	;# 
   751  0315                     	;# 
   752  0316                     	;# 
   753  0317                     	;# 
   754  0318                     	;# 
   755  0318                     	;# 
   756  0319                     	;# 
   757  031A                     	;# 
   758  031B                     	;# 
   759  031C                     	;# 
   760  031C                     	;# 
   761  031D                     	;# 
   762  031E                     	;# 
   763  031F                     	;# 
   764  038C                     	;# 
   765  038D                     	;# 
   766  038E                     	;# 
   767  0390                     	;# 
   768  0391                     	;# 
   769  0392                     	;# 
   770  040C                     	;# 
   771  040D                     	;# 
   772  040E                     	;# 
   773  040F                     	;# 
   774  0410                     	;# 
   775  0411                     	;# 
   776  0416                     	;# 
   777  0416                     	;# 
   778  0417                     	;# 
   779  0418                     	;# 
   780  0418                     	;# 
   781  0419                     	;# 
   782  041A                     	;# 
   783  041A                     	;# 
   784  041B                     	;# 
   785  041C                     	;# 
   786  041C                     	;# 
   787  041D                     	;# 
   788  041E                     	;# 
   789  041F                     	;# 
   790  048C                     	;# 
   791  048C                     	;# 
   792  048D                     	;# 
   793  048E                     	;# 
   794  048F                     	;# 
   795  048F                     	;# 
   796  0490                     	;# 
   797  0491                     	;# 
   798  0492                     	;# 
   799  0492                     	;# 
   800  0493                     	;# 
   801  0494                     	;# 
   802  0495                     	;# 
   803  0495                     	;# 
   804  0496                     	;# 
   805  0497                     	;# 
   806  0498                     	;# 
   807  0499                     	;# 
   808  049A                     	;# 
   809  049B                     	;# 
   810  049C                     	;# 
   811  049D                     	;# 
   812  050C                     	;# 
   813  050C                     	;# 
   814  050D                     	;# 
   815  050E                     	;# 
   816  050F                     	;# 
   817  050F                     	;# 
   818  0510                     	;# 
   819  0511                     	;# 
   820  0512                     	;# 
   821  0512                     	;# 
   822  0513                     	;# 
   823  0514                     	;# 
   824  0515                     	;# 
   825  0515                     	;# 
   826  0516                     	;# 
   827  0517                     	;# 
   828  0518                     	;# 
   829  0519                     	;# 
   830  051A                     	;# 
   831  051B                     	;# 
   832  051C                     	;# 
   833  051D                     	;# 
   834  058C                     	;# 
   835  058C                     	;# 
   836  058D                     	;# 
   837  058E                     	;# 
   838  058F                     	;# 
   839  058F                     	;# 
   840  0590                     	;# 
   841  0591                     	;# 
   842  0592                     	;# 
   843  0593                     	;# 
   844  060C                     	;# 
   845  060D                     	;# 
   846  060E                     	;# 
   847  060F                     	;# 
   848  0610                     	;# 
   849  0611                     	;# 
   850  0612                     	;# 
   851  0613                     	;# 
   852  0614                     	;# 
   853  0616                     	;# 
   854  0617                     	;# 
   855  0618                     	;# 
   856  0619                     	;# 
   857  061A                     	;# 
   858  061B                     	;# 
   859  061C                     	;# 
   860  061D                     	;# 
   861  061E                     	;# 
   862  068C                     	;# 
   863  068D                     	;# 
   864  068E                     	;# 
   865  068F                     	;# 
   866  0690                     	;# 
   867  0691                     	;# 
   868  0692                     	;# 
   869  0693                     	;# 
   870  0694                     	;# 
   871  070C                     	;# 
   872  070D                     	;# 
   873  070E                     	;# 
   874  070F                     	;# 
   875  0710                     	;# 
   876  0711                     	;# 
   877  0712                     	;# 
   878  0713                     	;# 
   879  0714                     	;# 
   880  0716                     	;# 
   881  0717                     	;# 
   882  0718                     	;# 
   883  0719                     	;# 
   884  071A                     	;# 
   885  071B                     	;# 
   886  071C                     	;# 
   887  071D                     	;# 
   888  071E                     	;# 
   889  0796                     	;# 
   890  0797                     	;# 
   891  0798                     	;# 
   892  0799                     	;# 
   893  079A                     	;# 
   894  079B                     	;# 
   895  080C                     	;# 
   896  080D                     	;# 
   897  080E                     	;# 
   898  080F                     	;# 
   899  0810                     	;# 
   900  0811                     	;# 
   901  0812                     	;# 
   902  0813                     	;# 
   903  0814                     	;# 
   904  081A                     	;# 
   905  081B                     	;# 
   906  081C                     	;# 
   907  081D                     	;# 
   908  081E                     	;# 
   909  081F                     	;# 
   910  088C                     	;# 
   911  088D                     	;# 
   912  088E                     	;# 
   913  088F                     	;# 
   914  0890                     	;# 
   915  0891                     	;# 
   916  0892                     	;# 
   917  0893                     	;# 
   918  0895                     	;# 
   919  0896                     	;# 
   920  0897                     	;# 
   921  0898                     	;# 
   922  0899                     	;# 
   923  089A                     	;# 
   924  089B                     	;# 
   925  090C                     	;# 
   926  090E                     	;# 
   927  090F                     	;# 
   928  091F                     	;# 
   929  091F                     	;# 
   930  098F                     	;# 
   931  098F                     	;# 
   932  0990                     	;# 
   933  0991                     	;# 
   934  0992                     	;# 
   935  0993                     	;# 
   936  0994                     	;# 
   937  0995                     	;# 
   938  0996                     	;# 
   939  0997                     	;# 
   940  0E0F                     	;# 
   941  0E10                     	;# 
   942  0E11                     	;# 
   943  0E12                     	;# 
   944  0E13                     	;# 
   945  0E14                     	;# 
   946  0E15                     	;# 
   947  0E16                     	;# 
   948  0E17                     	;# 
   949  0E18                     	;# 
   950  0E19                     	;# 
   951  0E1A                     	;# 
   952  0E1B                     	;# 
   953  0E1C                     	;# 
   954  0E1D                     	;# 
   955  0E1E                     	;# 
   956  0E1F                     	;# 
   957  0E20                     	;# 
   958  0E21                     	;# 
   959  0E22                     	;# 
   960  0E23                     	;# 
   961  0E24                     	;# 
   962  0E25                     	;# 
   963  0E26                     	;# 
   964  0E27                     	;# 
   965  0E28                     	;# 
   966  0E29                     	;# 
   967  0E2A                     	;# 
   968  0E2B                     	;# 
   969  0E2C                     	;# 
   970  0E2D                     	;# 
   971  0E2E                     	;# 
   972  0E2F                     	;# 
   973  0E30                     	;# 
   974  0E31                     	;# 
   975  0E32                     	;# 
   976  0E33                     	;# 
   977  0E34                     	;# 
   978  0E35                     	;# 
   979  0E36                     	;# 
   980  0E37                     	;# 
   981  0E8F                     	;# 
   982  0E90                     	;# 
   983  0E91                     	;# 
   984  0E92                     	;# 
   985  0E93                     	;# 
   986  0E94                     	;# 
   987  0E95                     	;# 
   988  0E96                     	;# 
   989  0E97                     	;# 
   990  0E9C                     	;# 
   991  0E9D                     	;# 
   992  0E9E                     	;# 
   993  0EA1                     	;# 
   994  0EA2                     	;# 
   995  0EA3                     	;# 
   996  0EA4                     	;# 
   997  0EA5                     	;# 
   998  0EA9                     	;# 
   999  0EAA                     	;# 
  1000  0EAB                     	;# 
  1001  0EAC                     	;# 
  1002  0EB1                     	;# 
  1003  0EB2                     	;# 
  1004  0EB3                     	;# 
  1005  0EB8                     	;# 
  1006  0EB9                     	;# 
  1007  0EBA                     	;# 
  1008  0EBB                     	;# 
  1009  0EBC                     	;# 
  1010  0EBD                     	;# 
  1011  0EBE                     	;# 
  1012  0EC3                     	;# 
  1013  0EC5                     	;# 
  1014  0EC6                     	;# 
  1015  0EC7                     	;# 
  1016  0EC8                     	;# 
  1017  0EC9                     	;# 
  1018  0ECA                     	;# 
  1019  0ECB                     	;# 
  1020  0ECC                     	;# 
  1021  0F10                     	;# 
  1022  0F11                     	;# 
  1023  0F12                     	;# 
  1024  0F13                     	;# 
  1025  0F14                     	;# 
  1026  0F15                     	;# 
  1027  0F16                     	;# 
  1028  0F17                     	;# 
  1029  0F18                     	;# 
  1030  0F19                     	;# 
  1031  0F1A                     	;# 
  1032  0F1B                     	;# 
  1033  0F1C                     	;# 
  1034  0F1D                     	;# 
  1035  0F1E                     	;# 
  1036  0F1F                     	;# 
  1037  0F20                     	;# 
  1038  0F21                     	;# 
  1039  0F22                     	;# 
  1040  0F23                     	;# 
  1041  0F24                     	;# 
  1042  0F25                     	;# 
  1043  0F26                     	;# 
  1044  0F27                     	;# 
  1045  0F38                     	;# 
  1046  0F39                     	;# 
  1047  0F3A                     	;# 
  1048  0F3B                     	;# 
  1049  0F3C                     	;# 
  1050  0F3D                     	;# 
  1051  0F3E                     	;# 
  1052  0F3F                     	;# 
  1053  0F40                     	;# 
  1054  0F41                     	;# 
  1055  0F43                     	;# 
  1056  0F44                     	;# 
  1057  0F45                     	;# 
  1058  0F46                     	;# 
  1059  0F47                     	;# 
  1060  0F48                     	;# 
  1061  0F49                     	;# 
  1062  0F4A                     	;# 
  1063  0F4B                     	;# 
  1064  0F4C                     	;# 
  1065  0F4E                     	;# 
  1066  0F4F                     	;# 
  1067  0F50                     	;# 
  1068  0F51                     	;# 
  1069  0F52                     	;# 
  1070  0F53                     	;# 
  1071  0F54                     	;# 
  1072  0F55                     	;# 
  1073  0F56                     	;# 
  1074  0F57                     	;# 
  1075  0F65                     	;# 
  1076  0F68                     	;# 
  1077  0F69                     	;# 
  1078  0F6A                     	;# 
  1079  0F6B                     	;# 
  1080  0FE4                     	;# 
  1081  0FE5                     	;# 
  1082  0FE6                     	;# 
  1083  0FE7                     	;# 
  1084  0FE8                     	;# 
  1085  0FE9                     	;# 
  1086  0FEA                     	;# 
  1087  0FEB                     	;# 
  1088  0FED                     	;# 
  1089  0FEE                     	;# 
  1090  0FEF                     	;# 
  1091  0000                     	;# 
  1092  0001                     	;# 
  1093  0002                     	;# 
  1094  0003                     	;# 
  1095  0004                     	;# 
  1096  0005                     	;# 
  1097  0006                     	;# 
  1098  0007                     	;# 
  1099  0008                     	;# 
  1100  0009                     	;# 
  1101  000A                     	;# 
  1102  000B                     	;# 
  1103  000C                     	;# 
  1104  000D                     	;# 
  1105  000E                     	;# 
  1106  0010                     	;# 
  1107  0011                     	;# 
  1108  0012                     	;# 
  1109  0013                     	;# 
  1110  0016                     	;# 
  1111  0017                     	;# 
  1112  0018                     	;# 
  1113  001C                     	;# 
  1114  001C                     	;# 
  1115  001D                     	;# 
  1116  001D                     	;# 
  1117  001E                     	;# 
  1118  001F                     	;# 
  1119  008C                     	;# 
  1120  008C                     	;# 
  1121  008D                     	;# 
  1122  008E                     	;# 
  1123  008E                     	;# 
  1124  008F                     	;# 
  1125  0090                     	;# 
  1126  0090                     	;# 
  1127  0091                     	;# 
  1128  0093                     	;# 
  1129  0094                     	;# 
  1130  0095                     	;# 
  1131  0096                     	;# 
  1132  0097                     	;# 
  1133  0098                     	;# 
  1134  0099                     	;# 
  1135  009A                     	;# 
  1136  009B                     	;# 
  1137  009C                     	;# 
  1138  009D                     	;# 
  1139  009E                     	;# 
  1140  010C                     	;# 
  1141  010D                     	;# 
  1142  010E                     	;# 
  1143  010E                     	;# 
  1144  010F                     	;# 
  1145  0110                     	;# 
  1146  0110                     	;# 
  1147  0111                     	;# 
  1148  0112                     	;# 
  1149  0112                     	;# 
  1150  0113                     	;# 
  1151  0114                     	;# 
  1152  0114                     	;# 
  1153  0115                     	;# 
  1154  0116                     	;# 
  1155  0116                     	;# 
  1156  0117                     	;# 
  1157  0119                     	;# 
  1158  0119                     	;# 
  1159  0119                     	;# 
  1160  011A                     	;# 
  1161  011A                     	;# 
  1162  011A                     	;# 
  1163  011B                     	;# 
  1164  011B                     	;# 
  1165  011B                     	;# 
  1166  011B                     	;# 
  1167  011B                     	;# 
  1168  011C                     	;# 
  1169  011C                     	;# 
  1170  011C                     	;# 
  1171  011D                     	;# 
  1172  011D                     	;# 
  1173  011D                     	;# 
  1174  011E                     	;# 
  1175  011E                     	;# 
  1176  011E                     	;# 
  1177  011F                     	;# 
  1178  011F                     	;# 
  1179  011F                     	;# 
  1180  011F                     	;# 
  1181  011F                     	;# 
  1182  018C                     	;# 
  1183  018D                     	;# 
  1184  018E                     	;# 
  1185  018F                     	;# 
  1186  0190                     	;# 
  1187  0191                     	;# 
  1188  0192                     	;# 
  1189  0196                     	;# 
  1190  0197                     	;# 
  1191  0198                     	;# 
  1192  0199                     	;# 
  1193  019A                     	;# 
  1194  019B                     	;# 
  1195  019C                     	;# 
  1196  020C                     	;# 
  1197  020C                     	;# 
  1198  020D                     	;# 
  1199  020E                     	;# 
  1200  020F                     	;# 
  1201  020F                     	;# 
  1202  0210                     	;# 
  1203  0210                     	;# 
  1204  0211                     	;# 
  1205  0211                     	;# 
  1206  0212                     	;# 
  1207  0212                     	;# 
  1208  0213                     	;# 
  1209  0214                     	;# 
  1210  0215                     	;# 
  1211  0215                     	;# 
  1212  0216                     	;# 
  1213  0216                     	;# 
  1214  0217                     	;# 
  1215  0217                     	;# 
  1216  0218                     	;# 
  1217  0218                     	;# 
  1218  0219                     	;# 
  1219  021A                     	;# 
  1220  021B                     	;# 
  1221  021B                     	;# 
  1222  021C                     	;# 
  1223  021C                     	;# 
  1224  021D                     	;# 
  1225  021D                     	;# 
  1226  021E                     	;# 
  1227  021F                     	;# 
  1228  028C                     	;# 
  1229  028C                     	;# 
  1230  028D                     	;# 
  1231  028D                     	;# 
  1232  028E                     	;# 
  1233  028F                     	;# 
  1234  0290                     	;# 
  1235  0290                     	;# 
  1236  0291                     	;# 
  1237  0292                     	;# 
  1238  0292                     	;# 
  1239  0293                     	;# 
  1240  0293                     	;# 
  1241  0294                     	;# 
  1242  0295                     	;# 
  1243  0296                     	;# 
  1244  0296                     	;# 
  1245  0297                     	;# 
  1246  0298                     	;# 
  1247  0298                     	;# 
  1248  0299                     	;# 
  1249  0299                     	;# 
  1250  029A                     	;# 
  1251  029B                     	;# 
  1252  029C                     	;# 
  1253  029C                     	;# 
  1254  029D                     	;# 
  1255  030C                     	;# 
  1256  030C                     	;# 
  1257  030D                     	;# 
  1258  030E                     	;# 
  1259  030F                     	;# 
  1260  0310                     	;# 
  1261  0310                     	;# 
  1262  0311                     	;# 
  1263  0312                     	;# 
  1264  0313                     	;# 
  1265  0314                     	;# 
  1266  0314                     	;# 
  1267  0315                     	;# 
  1268  0316                     	;# 
  1269  0317                     	;# 
  1270  0318                     	;# 
  1271  0318                     	;# 
  1272  0319                     	;# 
  1273  031A                     	;# 
  1274  031B                     	;# 
  1275  031C                     	;# 
  1276  031C                     	;# 
  1277  031D                     	;# 
  1278  031E                     	;# 
  1279  031F                     	;# 
  1280  038C                     	;# 
  1281  038D                     	;# 
  1282  038E                     	;# 
  1283  0390                     	;# 
  1284  0391                     	;# 
  1285  0392                     	;# 
  1286  040C                     	;# 
  1287  040D                     	;# 
  1288  040E                     	;# 
  1289  040F                     	;# 
  1290  0410                     	;# 
  1291  0411                     	;# 
  1292  0416                     	;# 
  1293  0416                     	;# 
  1294  0417                     	;# 
  1295  0418                     	;# 
  1296  0418                     	;# 
  1297  0419                     	;# 
  1298  041A                     	;# 
  1299  041A                     	;# 
  1300  041B                     	;# 
  1301  041C                     	;# 
  1302  041C                     	;# 
  1303  041D                     	;# 
  1304  041E                     	;# 
  1305  041F                     	;# 
  1306  048C                     	;# 
  1307  048C                     	;# 
  1308  048D                     	;# 
  1309  048E                     	;# 
  1310  048F                     	;# 
  1311  048F                     	;# 
  1312  0490                     	;# 
  1313  0491                     	;# 
  1314  0492                     	;# 
  1315  0492                     	;# 
  1316  0493                     	;# 
  1317  0494                     	;# 
  1318  0495                     	;# 
  1319  0495                     	;# 
  1320  0496                     	;# 
  1321  0497                     	;# 
  1322  0498                     	;# 
  1323  0499                     	;# 
  1324  049A                     	;# 
  1325  049B                     	;# 
  1326  049C                     	;# 
  1327  049D                     	;# 
  1328  050C                     	;# 
  1329  050C                     	;# 
  1330  050D                     	;# 
  1331  050E                     	;# 
  1332  050F                     	;# 
  1333  050F                     	;# 
  1334  0510                     	;# 
  1335  0511                     	;# 
  1336  0512                     	;# 
  1337  0512                     	;# 
  1338  0513                     	;# 
  1339  0514                     	;# 
  1340  0515                     	;# 
  1341  0515                     	;# 
  1342  0516                     	;# 
  1343  0517                     	;# 
  1344  0518                     	;# 
  1345  0519                     	;# 
  1346  051A                     	;# 
  1347  051B                     	;# 
  1348  051C                     	;# 
  1349  051D                     	;# 
  1350  058C                     	;# 
  1351  058C                     	;# 
  1352  058D                     	;# 
  1353  058E                     	;# 
  1354  058F                     	;# 
  1355  058F                     	;# 
  1356  0590                     	;# 
  1357  0591                     	;# 
  1358  0592                     	;# 
  1359  0593                     	;# 
  1360  060C                     	;# 
  1361  060D                     	;# 
  1362  060E                     	;# 
  1363  060F                     	;# 
  1364  0610                     	;# 
  1365  0611                     	;# 
  1366  0612                     	;# 
  1367  0613                     	;# 
  1368  0614                     	;# 
  1369  0616                     	;# 
  1370  0617                     	;# 
  1371  0618                     	;# 
  1372  0619                     	;# 
  1373  061A                     	;# 
  1374  061B                     	;# 
  1375  061C                     	;# 
  1376  061D                     	;# 
  1377  061E                     	;# 
  1378  068C                     	;# 
  1379  068D                     	;# 
  1380  068E                     	;# 
  1381  068F                     	;# 
  1382  0690                     	;# 
  1383  0691                     	;# 
  1384  0692                     	;# 
  1385  0693                     	;# 
  1386  0694                     	;# 
  1387  070C                     	;# 
  1388  070D                     	;# 
  1389  070E                     	;# 
  1390  070F                     	;# 
  1391  0710                     	;# 
  1392  0711                     	;# 
  1393  0712                     	;# 
  1394  0713                     	;# 
  1395  0714                     	;# 
  1396  0716                     	;# 
  1397  0717                     	;# 
  1398  0718                     	;# 
  1399  0719                     	;# 
  1400  071A                     	;# 
  1401  071B                     	;# 
  1402  071C                     	;# 
  1403  071D                     	;# 
  1404  071E                     	;# 
  1405  0796                     	;# 
  1406  0797                     	;# 
  1407  0798                     	;# 
  1408  0799                     	;# 
  1409  079A                     	;# 
  1410  079B                     	;# 
  1411  080C                     	;# 
  1412  080D                     	;# 
  1413  080E                     	;# 
  1414  080F                     	;# 
  1415  0810                     	;# 
  1416  0811                     	;# 
  1417  0812                     	;# 
  1418  0813                     	;# 
  1419  0814                     	;# 
  1420  081A                     	;# 
  1421  081B                     	;# 
  1422  081C                     	;# 
  1423  081D                     	;# 
  1424  081E                     	;# 
  1425  081F                     	;# 
  1426  088C                     	;# 
  1427  088D                     	;# 
  1428  088E                     	;# 
  1429  088F                     	;# 
  1430  0890                     	;# 
  1431  0891                     	;# 
  1432  0892                     	;# 
  1433  0893                     	;# 
  1434  0895                     	;# 
  1435  0896                     	;# 
  1436  0897                     	;# 
  1437  0898                     	;# 
  1438  0899                     	;# 
  1439  089A                     	;# 
  1440  089B                     	;# 
  1441  090C                     	;# 
  1442  090E                     	;# 
  1443  090F                     	;# 
  1444  091F                     	;# 
  1445  091F                     	;# 
  1446  098F                     	;# 
  1447  098F                     	;# 
  1448  0990                     	;# 
  1449  0991                     	;# 
  1450  0992                     	;# 
  1451  0993                     	;# 
  1452  0994                     	;# 
  1453  0995                     	;# 
  1454  0996                     	;# 
  1455  0997                     	;# 
  1456  0E0F                     	;# 
  1457  0E10                     	;# 
  1458  0E11                     	;# 
  1459  0E12                     	;# 
  1460  0E13                     	;# 
  1461  0E14                     	;# 
  1462  0E15                     	;# 
  1463  0E16                     	;# 
  1464  0E17                     	;# 
  1465  0E18                     	;# 
  1466  0E19                     	;# 
  1467  0E1A                     	;# 
  1468  0E1B                     	;# 
  1469  0E1C                     	;# 
  1470  0E1D                     	;# 
  1471  0E1E                     	;# 
  1472  0E1F                     	;# 
  1473  0E20                     	;# 
  1474  0E21                     	;# 
  1475  0E22                     	;# 
  1476  0E23                     	;# 
  1477  0E24                     	;# 
  1478  0E25                     	;# 
  1479  0E26                     	;# 
  1480  0E27                     	;# 
  1481  0E28                     	;# 
  1482  0E29                     	;# 
  1483  0E2A                     	;# 
  1484  0E2B                     	;# 
  1485  0E2C                     	;# 
  1486  0E2D                     	;# 
  1487  0E2E                     	;# 
  1488  0E2F                     	;# 
  1489  0E30                     	;# 
  1490  0E31                     	;# 
  1491  0E32                     	;# 
  1492  0E33                     	;# 
  1493  0E34                     	;# 
  1494  0E35                     	;# 
  1495  0E36                     	;# 
  1496  0E37                     	;# 
  1497  0E8F                     	;# 
  1498  0E90                     	;# 
  1499  0E91                     	;# 
  1500  0E92                     	;# 
  1501  0E93                     	;# 
  1502  0E94                     	;# 
  1503  0E95                     	;# 
  1504  0E96                     	;# 
  1505  0E97                     	;# 
  1506  0E9C                     	;# 
  1507  0E9D                     	;# 
  1508  0E9E                     	;# 
  1509  0EA1                     	;# 
  1510  0EA2                     	;# 
  1511  0EA3                     	;# 
  1512  0EA4                     	;# 
  1513  0EA5                     	;# 
  1514  0EA9                     	;# 
  1515  0EAA                     	;# 
  1516  0EAB                     	;# 
  1517  0EAC                     	;# 
  1518  0EB1                     	;# 
  1519  0EB2                     	;# 
  1520  0EB3                     	;# 
  1521  0EB8                     	;# 
  1522  0EB9                     	;# 
  1523  0EBA                     	;# 
  1524  0EBB                     	;# 
  1525  0EBC                     	;# 
  1526  0EBD                     	;# 
  1527  0EBE                     	;# 
  1528  0EC3                     	;# 
  1529  0EC5                     	;# 
  1530  0EC6                     	;# 
  1531  0EC7                     	;# 
  1532  0EC8                     	;# 
  1533  0EC9                     	;# 
  1534  0ECA                     	;# 
  1535  0ECB                     	;# 
  1536  0ECC                     	;# 
  1537  0F10                     	;# 
  1538  0F11                     	;# 
  1539  0F12                     	;# 
  1540  0F13                     	;# 
  1541  0F14                     	;# 
  1542  0F15                     	;# 
  1543  0F16                     	;# 
  1544  0F17                     	;# 
  1545  0F18                     	;# 
  1546  0F19                     	;# 
  1547  0F1A                     	;# 
  1548  0F1B                     	;# 
  1549  0F1C                     	;# 
  1550  0F1D                     	;# 
  1551  0F1E                     	;# 
  1552  0F1F                     	;# 
  1553  0F20                     	;# 
  1554  0F21                     	;# 
  1555  0F22                     	;# 
  1556  0F23                     	;# 
  1557  0F24                     	;# 
  1558  0F25                     	;# 
  1559  0F26                     	;# 
  1560  0F27                     	;# 
  1561  0F38                     	;# 
  1562  0F39                     	;# 
  1563  0F3A                     	;# 
  1564  0F3B                     	;# 
  1565  0F3C                     	;# 
  1566  0F3D                     	;# 
  1567  0F3E                     	;# 
  1568  0F3F                     	;# 
  1569  0F40                     	;# 
  1570  0F41                     	;# 
  1571  0F43                     	;# 
  1572  0F44                     	;# 
  1573  0F45                     	;# 
  1574  0F46                     	;# 
  1575  0F47                     	;# 
  1576  0F48                     	;# 
  1577  0F49                     	;# 
  1578  0F4A                     	;# 
  1579  0F4B                     	;# 
  1580  0F4C                     	;# 
  1581  0F4E                     	;# 
  1582  0F4F                     	;# 
  1583  0F50                     	;# 
  1584  0F51                     	;# 
  1585  0F52                     	;# 
  1586  0F53                     	;# 
  1587  0F54                     	;# 
  1588  0F55                     	;# 
  1589  0F56                     	;# 
  1590  0F57                     	;# 
  1591  0F65                     	;# 
  1592  0F68                     	;# 
  1593  0F69                     	;# 
  1594  0F6A                     	;# 
  1595  0F6B                     	;# 
  1596  0FE4                     	;# 
  1597  0FE5                     	;# 
  1598  0FE6                     	;# 
  1599  0FE7                     	;# 
  1600  0FE8                     	;# 
  1601  0FE9                     	;# 
  1602  0FEA                     	;# 
  1603  0FEB                     	;# 
  1604  0FED                     	;# 
  1605  0FEE                     	;# 
  1606  0FEF                     	;# 
  1607  0000                     	;# 
  1608  0001                     	;# 
  1609  0002                     	;# 
  1610  0003                     	;# 
  1611  0004                     	;# 
  1612  0005                     	;# 
  1613  0006                     	;# 
  1614  0007                     	;# 
  1615  0008                     	;# 
  1616  0009                     	;# 
  1617  000A                     	;# 
  1618  000B                     	;# 
  1619  000C                     	;# 
  1620  000D                     	;# 
  1621  000E                     	;# 
  1622  0010                     	;# 
  1623  0011                     	;# 
  1624  0012                     	;# 
  1625  0013                     	;# 
  1626  0016                     	;# 
  1627  0017                     	;# 
  1628  0018                     	;# 
  1629  001C                     	;# 
  1630  001C                     	;# 
  1631  001D                     	;# 
  1632  001D                     	;# 
  1633  001E                     	;# 
  1634  001F                     	;# 
  1635  008C                     	;# 
  1636  008C                     	;# 
  1637  008D                     	;# 
  1638  008E                     	;# 
  1639  008E                     	;# 
  1640  008F                     	;# 
  1641  0090                     	;# 
  1642  0090                     	;# 
  1643  0091                     	;# 
  1644  0093                     	;# 
  1645  0094                     	;# 
  1646  0095                     	;# 
  1647  0096                     	;# 
  1648  0097                     	;# 
  1649  0098                     	;# 
  1650  0099                     	;# 
  1651  009A                     	;# 
  1652  009B                     	;# 
  1653  009C                     	;# 
  1654  009D                     	;# 
  1655  009E                     	;# 
  1656  010C                     	;# 
  1657  010D                     	;# 
  1658  010E                     	;# 
  1659  010E                     	;# 
  1660  010F                     	;# 
  1661  0110                     	;# 
  1662  0110                     	;# 
  1663  0111                     	;# 
  1664  0112                     	;# 
  1665  0112                     	;# 
  1666  0113                     	;# 
  1667  0114                     	;# 
  1668  0114                     	;# 
  1669  0115                     	;# 
  1670  0116                     	;# 
  1671  0116                     	;# 
  1672  0117                     	;# 
  1673  0119                     	;# 
  1674  0119                     	;# 
  1675  0119                     	;# 
  1676  011A                     	;# 
  1677  011A                     	;# 
  1678  011A                     	;# 
  1679  011B                     	;# 
  1680  011B                     	;# 
  1681  011B                     	;# 
  1682  011B                     	;# 
  1683  011B                     	;# 
  1684  011C                     	;# 
  1685  011C                     	;# 
  1686  011C                     	;# 
  1687  011D                     	;# 
  1688  011D                     	;# 
  1689  011D                     	;# 
  1690  011E                     	;# 
  1691  011E                     	;# 
  1692  011E                     	;# 
  1693  011F                     	;# 
  1694  011F                     	;# 
  1695  011F                     	;# 
  1696  011F                     	;# 
  1697  011F                     	;# 
  1698  018C                     	;# 
  1699  018D                     	;# 
  1700  018E                     	;# 
  1701  018F                     	;# 
  1702  0190                     	;# 
  1703  0191                     	;# 
  1704  0192                     	;# 
  1705  0196                     	;# 
  1706  0197                     	;# 
  1707  0198                     	;# 
  1708  0199                     	;# 
  1709  019A                     	;# 
  1710  019B                     	;# 
  1711  019C                     	;# 
  1712  020C                     	;# 
  1713  020C                     	;# 
  1714  020D                     	;# 
  1715  020E                     	;# 
  1716  020F                     	;# 
  1717  020F                     	;# 
  1718  0210                     	;# 
  1719  0210                     	;# 
  1720  0211                     	;# 
  1721  0211                     	;# 
  1722  0212                     	;# 
  1723  0212                     	;# 
  1724  0213                     	;# 
  1725  0214                     	;# 
  1726  0215                     	;# 
  1727  0215                     	;# 
  1728  0216                     	;# 
  1729  0216                     	;# 
  1730  0217                     	;# 
  1731  0217                     	;# 
  1732  0218                     	;# 
  1733  0218                     	;# 
  1734  0219                     	;# 
  1735  021A                     	;# 
  1736  021B                     	;# 
  1737  021B                     	;# 
  1738  021C                     	;# 
  1739  021C                     	;# 
  1740  021D                     	;# 
  1741  021D                     	;# 
  1742  021E                     	;# 
  1743  021F                     	;# 
  1744  028C                     	;# 
  1745  028C                     	;# 
  1746  028D                     	;# 
  1747  028D                     	;# 
  1748  028E                     	;# 
  1749  028F                     	;# 
  1750  0290                     	;# 
  1751  0290                     	;# 
  1752  0291                     	;# 
  1753  0292                     	;# 
  1754  0292                     	;# 
  1755  0293                     	;# 
  1756  0293                     	;# 
  1757  0294                     	;# 
  1758  0295                     	;# 
  1759  0296                     	;# 
  1760  0296                     	;# 
  1761  0297                     	;# 
  1762  0298                     	;# 
  1763  0298                     	;# 
  1764  0299                     	;# 
  1765  0299                     	;# 
  1766  029A                     	;# 
  1767  029B                     	;# 
  1768  029C                     	;# 
  1769  029C                     	;# 
  1770  029D                     	;# 
  1771  030C                     	;# 
  1772  030C                     	;# 
  1773  030D                     	;# 
  1774  030E                     	;# 
  1775  030F                     	;# 
  1776  0310                     	;# 
  1777  0310                     	;# 
  1778  0311                     	;# 
  1779  0312                     	;# 
  1780  0313                     	;# 
  1781  0314                     	;# 
  1782  0314                     	;# 
  1783  0315                     	;# 
  1784  0316                     	;# 
  1785  0317                     	;# 
  1786  0318                     	;# 
  1787  0318                     	;# 
  1788  0319                     	;# 
  1789  031A                     	;# 
  1790  031B                     	;# 
  1791  031C                     	;# 
  1792  031C                     	;# 
  1793  031D                     	;# 
  1794  031E                     	;# 
  1795  031F                     	;# 
  1796  038C                     	;# 
  1797  038D                     	;# 
  1798  038E                     	;# 
  1799  0390                     	;# 
  1800  0391                     	;# 
  1801  0392                     	;# 
  1802  040C                     	;# 
  1803  040D                     	;# 
  1804  040E                     	;# 
  1805  040F                     	;# 
  1806  0410                     	;# 
  1807  0411                     	;# 
  1808  0416                     	;# 
  1809  0416                     	;# 
  1810  0417                     	;# 
  1811  0418                     	;# 
  1812  0418                     	;# 
  1813  0419                     	;# 
  1814  041A                     	;# 
  1815  041A                     	;# 
  1816  041B                     	;# 
  1817  041C                     	;# 
  1818  041C                     	;# 
  1819  041D                     	;# 
  1820  041E                     	;# 
  1821  041F                     	;# 
  1822  048C                     	;# 
  1823  048C                     	;# 
  1824  048D                     	;# 
  1825  048E                     	;# 
  1826  048F                     	;# 
  1827  048F                     	;# 
  1828  0490                     	;# 
  1829  0491                     	;# 
  1830  0492                     	;# 
  1831  0492                     	;# 
  1832  0493                     	;# 
  1833  0494                     	;# 
  1834  0495                     	;# 
  1835  0495                     	;# 
  1836  0496                     	;# 
  1837  0497                     	;# 
  1838  0498                     	;# 
  1839  0499                     	;# 
  1840  049A                     	;# 
  1841  049B                     	;# 
  1842  049C                     	;# 
  1843  049D                     	;# 
  1844  050C                     	;# 
  1845  050C                     	;# 
  1846  050D                     	;# 
  1847  050E                     	;# 
  1848  050F                     	;# 
  1849  050F                     	;# 
  1850  0510                     	;# 
  1851  0511                     	;# 
  1852  0512                     	;# 
  1853  0512                     	;# 
  1854  0513                     	;# 
  1855  0514                     	;# 
  1856  0515                     	;# 
  1857  0515                     	;# 
  1858  0516                     	;# 
  1859  0517                     	;# 
  1860  0518                     	;# 
  1861  0519                     	;# 
  1862  051A                     	;# 
  1863  051B                     	;# 
  1864  051C                     	;# 
  1865  051D                     	;# 
  1866  058C                     	;# 
  1867  058C                     	;# 
  1868  058D                     	;# 
  1869  058E                     	;# 
  1870  058F                     	;# 
  1871  058F                     	;# 
  1872  0590                     	;# 
  1873  0591                     	;# 
  1874  0592                     	;# 
  1875  0593                     	;# 
  1876  060C                     	;# 
  1877  060D                     	;# 
  1878  060E                     	;# 
  1879  060F                     	;# 
  1880  0610                     	;# 
  1881  0611                     	;# 
  1882  0612                     	;# 
  1883  0613                     	;# 
  1884  0614                     	;# 
  1885  0616                     	;# 
  1886  0617                     	;# 
  1887  0618                     	;# 
  1888  0619                     	;# 
  1889  061A                     	;# 
  1890  061B                     	;# 
  1891  061C                     	;# 
  1892  061D                     	;# 
  1893  061E                     	;# 
  1894  068C                     	;# 
  1895  068D                     	;# 
  1896  068E                     	;# 
  1897  068F                     	;# 
  1898  0690                     	;# 
  1899  0691                     	;# 
  1900  0692                     	;# 
  1901  0693                     	;# 
  1902  0694                     	;# 
  1903  070C                     	;# 
  1904  070D                     	;# 
  1905  070E                     	;# 
  1906  070F                     	;# 
  1907  0710                     	;# 
  1908  0711                     	;# 
  1909  0712                     	;# 
  1910  0713                     	;# 
  1911  0714                     	;# 
  1912  0716                     	;# 
  1913  0717                     	;# 
  1914  0718                     	;# 
  1915  0719                     	;# 
  1916  071A                     	;# 
  1917  071B                     	;# 
  1918  071C                     	;# 
  1919  071D                     	;# 
  1920  071E                     	;# 
  1921  0796                     	;# 
  1922  0797                     	;# 
  1923  0798                     	;# 
  1924  0799                     	;# 
  1925  079A                     	;# 
  1926  079B                     	;# 
  1927  080C                     	;# 
  1928  080D                     	;# 
  1929  080E                     	;# 
  1930  080F                     	;# 
  1931  0810                     	;# 
  1932  0811                     	;# 
  1933  0812                     	;# 
  1934  0813                     	;# 
  1935  0814                     	;# 
  1936  081A                     	;# 
  1937  081B                     	;# 
  1938  081C                     	;# 
  1939  081D                     	;# 
  1940  081E                     	;# 
  1941  081F                     	;# 
  1942  088C                     	;# 
  1943  088D                     	;# 
  1944  088E                     	;# 
  1945  088F                     	;# 
  1946  0890                     	;# 
  1947  0891                     	;# 
  1948  0892                     	;# 
  1949  0893                     	;# 
  1950  0895                     	;# 
  1951  0896                     	;# 
  1952  0897                     	;# 
  1953  0898                     	;# 
  1954  0899                     	;# 
  1955  089A                     	;# 
  1956  089B                     	;# 
  1957  090C                     	;# 
  1958  090E                     	;# 
  1959  090F                     	;# 
  1960  091F                     	;# 
  1961  091F                     	;# 
  1962  098F                     	;# 
  1963  098F                     	;# 
  1964  0990                     	;# 
  1965  0991                     	;# 
  1966  0992                     	;# 
  1967  0993                     	;# 
  1968  0994                     	;# 
  1969  0995                     	;# 
  1970  0996                     	;# 
  1971  0997                     	;# 
  1972  0E0F                     	;# 
  1973  0E10                     	;# 
  1974  0E11                     	;# 
  1975  0E12                     	;# 
  1976  0E13                     	;# 
  1977  0E14                     	;# 
  1978  0E15                     	;# 
  1979  0E16                     	;# 
  1980  0E17                     	;# 
  1981  0E18                     	;# 
  1982  0E19                     	;# 
  1983  0E1A                     	;# 
  1984  0E1B                     	;# 
  1985  0E1C                     	;# 
  1986  0E1D                     	;# 
  1987  0E1E                     	;# 
  1988  0E1F                     	;# 
  1989  0E20                     	;# 
  1990  0E21                     	;# 
  1991  0E22                     	;# 
  1992  0E23                     	;# 
  1993  0E24                     	;# 
  1994  0E25                     	;# 
  1995  0E26                     	;# 
  1996  0E27                     	;# 
  1997  0E28                     	;# 
  1998  0E29                     	;# 
  1999  0E2A                     	;# 
  2000  0E2B                     	;# 
  2001  0E2C                     	;# 
  2002  0E2D                     	;# 
  2003  0E2E                     	;# 
  2004  0E2F                     	;# 
  2005  0E30                     	;# 
  2006  0E31                     	;# 
  2007  0E32                     	;# 
  2008  0E33                     	;# 
  2009  0E34                     	;# 
  2010  0E35                     	;# 
  2011  0E36                     	;# 
  2012  0E37                     	;# 
  2013  0E8F                     	;# 
  2014  0E90                     	;# 
  2015  0E91                     	;# 
  2016  0E92                     	;# 
  2017  0E93                     	;# 
  2018  0E94                     	;# 
  2019  0E95                     	;# 
  2020  0E96                     	;# 
  2021  0E97                     	;# 
  2022  0E9C                     	;# 
  2023  0E9D                     	;# 
  2024  0E9E                     	;# 
  2025  0EA1                     	;# 
  2026  0EA2                     	;# 
  2027  0EA3                     	;# 
  2028  0EA4                     	;# 
  2029  0EA5                     	;# 
  2030  0EA9                     	;# 
  2031  0EAA                     	;# 
  2032  0EAB                     	;# 
  2033  0EAC                     	;# 
  2034  0EB1                     	;# 
  2035  0EB2                     	;# 
  2036  0EB3                     	;# 
  2037  0EB8                     	;# 
  2038  0EB9                     	;# 
  2039  0EBA                     	;# 
  2040  0EBB                     	;# 
  2041  0EBC                     	;# 
  2042  0EBD                     	;# 
  2043  0EBE                     	;# 
  2044  0EC3                     	;# 
  2045  0EC5                     	;# 
  2046  0EC6                     	;# 
  2047  0EC7                     	;# 
  2048  0EC8                     	;# 
  2049  0EC9                     	;# 
  2050  0ECA                     	;# 
  2051  0ECB                     	;# 
  2052  0ECC                     	;# 
  2053  0F10                     	;# 
  2054  0F11                     	;# 
  2055  0F12                     	;# 
  2056  0F13                     	;# 
  2057  0F14                     	;# 
  2058  0F15                     	;# 
  2059  0F16                     	;# 
  2060  0F17                     	;# 
  2061  0F18                     	;# 
  2062  0F19                     	;# 
  2063  0F1A                     	;# 
  2064  0F1B                     	;# 
  2065  0F1C                     	;# 
  2066  0F1D                     	;# 
  2067  0F1E                     	;# 
  2068  0F1F                     	;# 
  2069  0F20                     	;# 
  2070  0F21                     	;# 
  2071  0F22                     	;# 
  2072  0F23                     	;# 
  2073  0F24                     	;# 
  2074  0F25                     	;# 
  2075  0F26                     	;# 
  2076  0F27                     	;# 
  2077  0F38                     	;# 
  2078  0F39                     	;# 
  2079  0F3A                     	;# 
  2080  0F3B                     	;# 
  2081  0F3C                     	;# 
  2082  0F3D                     	;# 
  2083  0F3E                     	;# 
  2084  0F3F                     	;# 
  2085  0F40                     	;# 
  2086  0F41                     	;# 
  2087  0F43                     	;# 
  2088  0F44                     	;# 
  2089  0F45                     	;# 
  2090  0F46                     	;# 
  2091  0F47                     	;# 
  2092  0F48                     	;# 
  2093  0F49                     	;# 
  2094  0F4A                     	;# 
  2095  0F4B                     	;# 
  2096  0F4C                     	;# 
  2097  0F4E                     	;# 
  2098  0F4F                     	;# 
  2099  0F50                     	;# 
  2100  0F51                     	;# 
  2101  0F52                     	;# 
  2102  0F53                     	;# 
  2103  0F54                     	;# 
  2104  0F55                     	;# 
  2105  0F56                     	;# 
  2106  0F57                     	;# 
  2107  0F65                     	;# 
  2108  0F68                     	;# 
  2109  0F69                     	;# 
  2110  0F6A                     	;# 
  2111  0F6B                     	;# 
  2112  0FE4                     	;# 
  2113  0FE5                     	;# 
  2114  0FE6                     	;# 
  2115  0FE7                     	;# 
  2116  0FE8                     	;# 
  2117  0FE9                     	;# 
  2118  0FEA                     	;# 
  2119  0FEB                     	;# 
  2120  0FED                     	;# 
  2121  0FEE                     	;# 
  2122  0FEF                     	;# 
  2123  0000                     	;# 
  2124  0001                     	;# 
  2125  0002                     	;# 
  2126  0003                     	;# 
  2127  0004                     	;# 
  2128  0005                     	;# 
  2129  0006                     	;# 
  2130  0007                     	;# 
  2131  0008                     	;# 
  2132  0009                     	;# 
  2133  000A                     	;# 
  2134  000B                     	;# 
  2135  000C                     	;# 
  2136  000D                     	;# 
  2137  000E                     	;# 
  2138  0010                     	;# 
  2139  0011                     	;# 
  2140  0012                     	;# 
  2141  0013                     	;# 
  2142  0016                     	;# 
  2143  0017                     	;# 
  2144  0018                     	;# 
  2145  001C                     	;# 
  2146  001C                     	;# 
  2147  001D                     	;# 
  2148  001D                     	;# 
  2149  001E                     	;# 
  2150  001F                     	;# 
  2151  008C                     	;# 
  2152  008C                     	;# 
  2153  008D                     	;# 
  2154  008E                     	;# 
  2155  008E                     	;# 
  2156  008F                     	;# 
  2157  0090                     	;# 
  2158  0090                     	;# 
  2159  0091                     	;# 
  2160  0093                     	;# 
  2161  0094                     	;# 
  2162  0095                     	;# 
  2163  0096                     	;# 
  2164  0097                     	;# 
  2165  0098                     	;# 
  2166  0099                     	;# 
  2167  009A                     	;# 
  2168  009B                     	;# 
  2169  009C                     	;# 
  2170  009D                     	;# 
  2171  009E                     	;# 
  2172  010C                     	;# 
  2173  010D                     	;# 
  2174  010E                     	;# 
  2175  010E                     	;# 
  2176  010F                     	;# 
  2177  0110                     	;# 
  2178  0110                     	;# 
  2179  0111                     	;# 
  2180  0112                     	;# 
  2181  0112                     	;# 
  2182  0113                     	;# 
  2183  0114                     	;# 
  2184  0114                     	;# 
  2185  0115                     	;# 
  2186  0116                     	;# 
  2187  0116                     	;# 
  2188  0117                     	;# 
  2189  0119                     	;# 
  2190  0119                     	;# 
  2191  0119                     	;# 
  2192  011A                     	;# 
  2193  011A                     	;# 
  2194  011A                     	;# 
  2195  011B                     	;# 
  2196  011B                     	;# 
  2197  011B                     	;# 
  2198  011B                     	;# 
  2199  011B                     	;# 
  2200  011C                     	;# 
  2201  011C                     	;# 
  2202  011C                     	;# 
  2203  011D                     	;# 
  2204  011D                     	;# 
  2205  011D                     	;# 
  2206  011E                     	;# 
  2207  011E                     	;# 
  2208  011E                     	;# 
  2209  011F                     	;# 
  2210  011F                     	;# 
  2211  011F                     	;# 
  2212  011F                     	;# 
  2213  011F                     	;# 
  2214  018C                     	;# 
  2215  018D                     	;# 
  2216  018E                     	;# 
  2217  018F                     	;# 
  2218  0190                     	;# 
  2219  0191                     	;# 
  2220  0192                     	;# 
  2221  0196                     	;# 
  2222  0197                     	;# 
  2223  0198                     	;# 
  2224  0199                     	;# 
  2225  019A                     	;# 
  2226  019B                     	;# 
  2227  019C                     	;# 
  2228  020C                     	;# 
  2229  020C                     	;# 
  2230  020D                     	;# 
  2231  020E                     	;# 
  2232  020F                     	;# 
  2233  020F                     	;# 
  2234  0210                     	;# 
  2235  0210                     	;# 
  2236  0211                     	;# 
  2237  0211                     	;# 
  2238  0212                     	;# 
  2239  0212                     	;# 
  2240  0213                     	;# 
  2241  0214                     	;# 
  2242  0215                     	;# 
  2243  0215                     	;# 
  2244  0216                     	;# 
  2245  0216                     	;# 
  2246  0217                     	;# 
  2247  0217                     	;# 
  2248  0218                     	;# 
  2249  0218                     	;# 
  2250  0219                     	;# 
  2251  021A                     	;# 
  2252  021B                     	;# 
  2253  021B                     	;# 
  2254  021C                     	;# 
  2255  021C                     	;# 
  2256  021D                     	;# 
  2257  021D                     	;# 
  2258  021E                     	;# 
  2259  021F                     	;# 
  2260  028C                     	;# 
  2261  028C                     	;# 
  2262  028D                     	;# 
  2263  028D                     	;# 
  2264  028E                     	;# 
  2265  028F                     	;# 
  2266  0290                     	;# 
  2267  0290                     	;# 
  2268  0291                     	;# 
  2269  0292                     	;# 
  2270  0292                     	;# 
  2271  0293                     	;# 
  2272  0293                     	;# 
  2273  0294                     	;# 
  2274  0295                     	;# 
  2275  0296                     	;# 
  2276  0296                     	;# 
  2277  0297                     	;# 
  2278  0298                     	;# 
  2279  0298                     	;# 
  2280  0299                     	;# 
  2281  0299                     	;# 
  2282  029A                     	;# 
  2283  029B                     	;# 
  2284  029C                     	;# 
  2285  029C                     	;# 
  2286  029D                     	;# 
  2287  030C                     	;# 
  2288  030C                     	;# 
  2289  030D                     	;# 
  2290  030E                     	;# 
  2291  030F                     	;# 
  2292  0310                     	;# 
  2293  0310                     	;# 
  2294  0311                     	;# 
  2295  0312                     	;# 
  2296  0313                     	;# 
  2297  0314                     	;# 
  2298  0314                     	;# 
  2299  0315                     	;# 
  2300  0316                     	;# 
  2301  0317                     	;# 
  2302  0318                     	;# 
  2303  0318                     	;# 
  2304  0319                     	;# 
  2305  031A                     	;# 
  2306  031B                     	;# 
  2307  031C                     	;# 
  2308  031C                     	;# 
  2309  031D                     	;# 
  2310  031E                     	;# 
  2311  031F                     	;# 
  2312  038C                     	;# 
  2313  038D                     	;# 
  2314  038E                     	;# 
  2315  0390                     	;# 
  2316  0391                     	;# 
  2317  0392                     	;# 
  2318  040C                     	;# 
  2319  040D                     	;# 
  2320  040E                     	;# 
  2321  040F                     	;# 
  2322  0410                     	;# 
  2323  0411                     	;# 
  2324  0416                     	;# 
  2325  0416                     	;# 
  2326  0417                     	;# 
  2327  0418                     	;# 
  2328  0418                     	;# 
  2329  0419                     	;# 
  2330  041A                     	;# 
  2331  041A                     	;# 
  2332  041B                     	;# 
  2333  041C                     	;# 
  2334  041C                     	;# 
  2335  041D                     	;# 
  2336  041E                     	;# 
  2337  041F                     	;# 
  2338  048C                     	;# 
  2339  048C                     	;# 
  2340  048D                     	;# 
  2341  048E                     	;# 
  2342  048F                     	;# 
  2343  048F                     	;# 
  2344  0490                     	;# 
  2345  0491                     	;# 
  2346  0492                     	;# 
  2347  0492                     	;# 
  2348  0493                     	;# 
  2349  0494                     	;# 
  2350  0495                     	;# 
  2351  0495                     	;# 
  2352  0496                     	;# 
  2353  0497                     	;# 
  2354  0498                     	;# 
  2355  0499                     	;# 
  2356  049A                     	;# 
  2357  049B                     	;# 
  2358  049C                     	;# 
  2359  049D                     	;# 
  2360  050C                     	;# 
  2361  050C                     	;# 
  2362  050D                     	;# 
  2363  050E                     	;# 
  2364  050F                     	;# 
  2365  050F                     	;# 
  2366  0510                     	;# 
  2367  0511                     	;# 
  2368  0512                     	;# 
  2369  0512                     	;# 
  2370  0513                     	;# 
  2371  0514                     	;# 
  2372  0515                     	;# 
  2373  0515                     	;# 
  2374  0516                     	;# 
  2375  0517                     	;# 
  2376  0518                     	;# 
  2377  0519                     	;# 
  2378  051A                     	;# 
  2379  051B                     	;# 
  2380  051C                     	;# 
  2381  051D                     	;# 
  2382  058C                     	;# 
  2383  058C                     	;# 
  2384  058D                     	;# 
  2385  058E                     	;# 
  2386  058F                     	;# 
  2387  058F                     	;# 
  2388  0590                     	;# 
  2389  0591                     	;# 
  2390  0592                     	;# 
  2391  0593                     	;# 
  2392  060C                     	;# 
  2393  060D                     	;# 
  2394  060E                     	;# 
  2395  060F                     	;# 
  2396  0610                     	;# 
  2397  0611                     	;# 
  2398  0612                     	;# 
  2399  0613                     	;# 
  2400  0614                     	;# 
  2401  0616                     	;# 
  2402  0617                     	;# 
  2403  0618                     	;# 
  2404  0619                     	;# 
  2405  061A                     	;# 
  2406  061B                     	;# 
  2407  061C                     	;# 
  2408  061D                     	;# 
  2409  061E                     	;# 
  2410  068C                     	;# 
  2411  068D                     	;# 
  2412  068E                     	;# 
  2413  068F                     	;# 
  2414  0690                     	;# 
  2415  0691                     	;# 
  2416  0692                     	;# 
  2417  0693                     	;# 
  2418  0694                     	;# 
  2419  070C                     	;# 
  2420  070D                     	;# 
  2421  070E                     	;# 
  2422  070F                     	;# 
  2423  0710                     	;# 
  2424  0711                     	;# 
  2425  0712                     	;# 
  2426  0713                     	;# 
  2427  0714                     	;# 
  2428  0716                     	;# 
  2429  0717                     	;# 
  2430  0718                     	;# 
  2431  0719                     	;# 
  2432  071A                     	;# 
  2433  071B                     	;# 
  2434  071C                     	;# 
  2435  071D                     	;# 
  2436  071E                     	;# 
  2437  0796                     	;# 
  2438  0797                     	;# 
  2439  0798                     	;# 
  2440  0799                     	;# 
  2441  079A                     	;# 
  2442  079B                     	;# 
  2443  080C                     	;# 
  2444  080D                     	;# 
  2445  080E                     	;# 
  2446  080F                     	;# 
  2447  0810                     	;# 
  2448  0811                     	;# 
  2449  0812                     	;# 
  2450  0813                     	;# 
  2451  0814                     	;# 
  2452  081A                     	;# 
  2453  081B                     	;# 
  2454  081C                     	;# 
  2455  081D                     	;# 
  2456  081E                     	;# 
  2457  081F                     	;# 
  2458  088C                     	;# 
  2459  088D                     	;# 
  2460  088E                     	;# 
  2461  088F                     	;# 
  2462  0890                     	;# 
  2463  0891                     	;# 
  2464  0892                     	;# 
  2465  0893                     	;# 
  2466  0895                     	;# 
  2467  0896                     	;# 
  2468  0897                     	;# 
  2469  0898                     	;# 
  2470  0899                     	;# 
  2471  089A                     	;# 
  2472  089B                     	;# 
  2473  090C                     	;# 
  2474  090E                     	;# 
  2475  090F                     	;# 
  2476  091F                     	;# 
  2477  091F                     	;# 
  2478  098F                     	;# 
  2479  098F                     	;# 
  2480  0990                     	;# 
  2481  0991                     	;# 
  2482  0992                     	;# 
  2483  0993                     	;# 
  2484  0994                     	;# 
  2485  0995                     	;# 
  2486  0996                     	;# 
  2487  0997                     	;# 
  2488  0E0F                     	;# 
  2489  0E10                     	;# 
  2490  0E11                     	;# 
  2491  0E12                     	;# 
  2492  0E13                     	;# 
  2493  0E14                     	;# 
  2494  0E15                     	;# 
  2495  0E16                     	;# 
  2496  0E17                     	;# 
  2497  0E18                     	;# 
  2498  0E19                     	;# 
  2499  0E1A                     	;# 
  2500  0E1B                     	;# 
  2501  0E1C                     	;# 
  2502  0E1D                     	;# 
  2503  0E1E                     	;# 
  2504  0E1F                     	;# 
  2505  0E20                     	;# 
  2506  0E21                     	;# 
  2507  0E22                     	;# 
  2508  0E23                     	;# 
  2509  0E24                     	;# 
  2510  0E25                     	;# 
  2511  0E26                     	;# 
  2512  0E27                     	;# 
  2513  0E28                     	;# 
  2514  0E29                     	;# 
  2515  0E2A                     	;# 
  2516  0E2B                     	;# 
  2517  0E2C                     	;# 
  2518  0E2D                     	;# 
  2519  0E2E                     	;# 
  2520  0E2F                     	;# 
  2521  0E30                     	;# 
  2522  0E31                     	;# 
  2523  0E32                     	;# 
  2524  0E33                     	;# 
  2525  0E34                     	;# 
  2526  0E35                     	;# 
  2527  0E36                     	;# 
  2528  0E37                     	;# 
  2529  0E8F                     	;# 
  2530  0E90                     	;# 
  2531  0E91                     	;# 
  2532  0E92                     	;# 
  2533  0E93                     	;# 
  2534  0E94                     	;# 
  2535  0E95                     	;# 
  2536  0E96                     	;# 
  2537  0E97                     	;# 
  2538  0E9C                     	;# 
  2539  0E9D                     	;# 
  2540  0E9E                     	;# 
  2541  0EA1                     	;# 
  2542  0EA2                     	;# 
  2543  0EA3                     	;# 
  2544  0EA4                     	;# 
  2545  0EA5                     	;# 
  2546  0EA9                     	;# 
  2547  0EAA                     	;# 
  2548  0EAB                     	;# 
  2549  0EAC                     	;# 
  2550  0EB1                     	;# 
  2551  0EB2                     	;# 
  2552  0EB3                     	;# 
  2553  0EB8                     	;# 
  2554  0EB9                     	;# 
  2555  0EBA                     	;# 
  2556  0EBB                     	;# 
  2557  0EBC                     	;# 
  2558  0EBD                     	;# 
  2559  0EBE                     	;# 
  2560  0EC3                     	;# 
  2561  0EC5                     	;# 
  2562  0EC6                     	;# 
  2563  0EC7                     	;# 
  2564  0EC8                     	;# 
  2565  0EC9                     	;# 
  2566  0ECA                     	;# 
  2567  0ECB                     	;# 
  2568  0ECC                     	;# 
  2569  0F10                     	;# 
  2570  0F11                     	;# 
  2571  0F12                     	;# 
  2572  0F13                     	;# 
  2573  0F14                     	;# 
  2574  0F15                     	;# 
  2575  0F16                     	;# 
  2576  0F17                     	;# 
  2577  0F18                     	;# 
  2578  0F19                     	;# 
  2579  0F1A                     	;# 
  2580  0F1B                     	;# 
  2581  0F1C                     	;# 
  2582  0F1D                     	;# 
  2583  0F1E                     	;# 
  2584  0F1F                     	;# 
  2585  0F20                     	;# 
  2586  0F21                     	;# 
  2587  0F22                     	;# 
  2588  0F23                     	;# 
  2589  0F24                     	;# 
  2590  0F25                     	;# 
  2591  0F26                     	;# 
  2592  0F27                     	;# 
  2593  0F38                     	;# 
  2594  0F39                     	;# 
  2595  0F3A                     	;# 
  2596  0F3B                     	;# 
  2597  0F3C                     	;# 
  2598  0F3D                     	;# 
  2599  0F3E                     	;# 
  2600  0F3F                     	;# 
  2601  0F40                     	;# 
  2602  0F41                     	;# 
  2603  0F43                     	;# 
  2604  0F44                     	;# 
  2605  0F45                     	;# 
  2606  0F46                     	;# 
  2607  0F47                     	;# 
  2608  0F48                     	;# 
  2609  0F49                     	;# 
  2610  0F4A                     	;# 
  2611  0F4B                     	;# 
  2612  0F4C                     	;# 
  2613  0F4E                     	;# 
  2614  0F4F                     	;# 
  2615  0F50                     	;# 
  2616  0F51                     	;# 
  2617  0F52                     	;# 
  2618  0F53                     	;# 
  2619  0F54                     	;# 
  2620  0F55                     	;# 
  2621  0F56                     	;# 
  2622  0F57                     	;# 
  2623  0F65                     	;# 
  2624  0F68                     	;# 
  2625  0F69                     	;# 
  2626  0F6A                     	;# 
  2627  0F6B                     	;# 
  2628  0FE4                     	;# 
  2629  0FE5                     	;# 
  2630  0FE6                     	;# 
  2631  0FE7                     	;# 
  2632  0FE8                     	;# 
  2633  0FE9                     	;# 
  2634  0FEA                     	;# 
  2635  0FEB                     	;# 
  2636  0FED                     	;# 
  2637  0FEE                     	;# 
  2638  0FEF                     	;# 
  2639  0000                     	;# 
  2640  0001                     	;# 
  2641  0002                     	;# 
  2642  0003                     	;# 
  2643  0004                     	;# 
  2644  0005                     	;# 
  2645  0006                     	;# 
  2646  0007                     	;# 
  2647  0008                     	;# 
  2648  0009                     	;# 
  2649  000A                     	;# 
  2650  000B                     	;# 
  2651  000C                     	;# 
  2652  000D                     	;# 
  2653  000E                     	;# 
  2654  0010                     	;# 
  2655  0011                     	;# 
  2656  0012                     	;# 
  2657  0013                     	;# 
  2658  0016                     	;# 
  2659  0017                     	;# 
  2660  0018                     	;# 
  2661  001C                     	;# 
  2662  001C                     	;# 
  2663  001D                     	;# 
  2664  001D                     	;# 
  2665  001E                     	;# 
  2666  001F                     	;# 
  2667  008C                     	;# 
  2668  008C                     	;# 
  2669  008D                     	;# 
  2670  008E                     	;# 
  2671  008E                     	;# 
  2672  008F                     	;# 
  2673  0090                     	;# 
  2674  0090                     	;# 
  2675  0091                     	;# 
  2676  0093                     	;# 
  2677  0094                     	;# 
  2678  0095                     	;# 
  2679  0096                     	;# 
  2680  0097                     	;# 
  2681  0098                     	;# 
  2682  0099                     	;# 
  2683  009A                     	;# 
  2684  009B                     	;# 
  2685  009C                     	;# 
  2686  009D                     	;# 
  2687  009E                     	;# 
  2688  010C                     	;# 
  2689  010D                     	;# 
  2690  010E                     	;# 
  2691  010E                     	;# 
  2692  010F                     	;# 
  2693  0110                     	;# 
  2694  0110                     	;# 
  2695  0111                     	;# 
  2696  0112                     	;# 
  2697  0112                     	;# 
  2698  0113                     	;# 
  2699  0114                     	;# 
  2700  0114                     	;# 
  2701  0115                     	;# 
  2702  0116                     	;# 
  2703  0116                     	;# 
  2704  0117                     	;# 
  2705  0119                     	;# 
  2706  0119                     	;# 
  2707  0119                     	;# 
  2708  011A                     	;# 
  2709  011A                     	;# 
  2710  011A                     	;# 
  2711  011B                     	;# 
  2712  011B                     	;# 
  2713  011B                     	;# 
  2714  011B                     	;# 
  2715  011B                     	;# 
  2716  011C                     	;# 
  2717  011C                     	;# 
  2718  011C                     	;# 
  2719  011D                     	;# 
  2720  011D                     	;# 
  2721  011D                     	;# 
  2722  011E                     	;# 
  2723  011E                     	;# 
  2724  011E                     	;# 
  2725  011F                     	;# 
  2726  011F                     	;# 
  2727  011F                     	;# 
  2728  011F                     	;# 
  2729  011F                     	;# 
  2730  018C                     	;# 
  2731  018D                     	;# 
  2732  018E                     	;# 
  2733  018F                     	;# 
  2734  0190                     	;# 
  2735  0191                     	;# 
  2736  0192                     	;# 
  2737  0196                     	;# 
  2738  0197                     	;# 
  2739  0198                     	;# 
  2740  0199                     	;# 
  2741  019A                     	;# 
  2742  019B                     	;# 
  2743  019C                     	;# 
  2744  020C                     	;# 
  2745  020C                     	;# 
  2746  020D                     	;# 
  2747  020E                     	;# 
  2748  020F                     	;# 
  2749  020F                     	;# 
  2750  0210                     	;# 
  2751  0210                     	;# 
  2752  0211                     	;# 
  2753  0211                     	;# 
  2754  0212                     	;# 
  2755  0212                     	;# 
  2756  0213                     	;# 
  2757  0214                     	;# 
  2758  0215                     	;# 
  2759  0215                     	;# 
  2760  0216                     	;# 
  2761  0216                     	;# 
  2762  0217                     	;# 
  2763  0217                     	;# 
  2764  0218                     	;# 
  2765  0218                     	;# 
  2766  0219                     	;# 
  2767  021A                     	;# 
  2768  021B                     	;# 
  2769  021B                     	;# 
  2770  021C                     	;# 
  2771  021C                     	;# 
  2772  021D                     	;# 
  2773  021D                     	;# 
  2774  021E                     	;# 
  2775  021F                     	;# 
  2776  028C                     	;# 
  2777  028C                     	;# 
  2778  028D                     	;# 
  2779  028D                     	;# 
  2780  028E                     	;# 
  2781  028F                     	;# 
  2782  0290                     	;# 
  2783  0290                     	;# 
  2784  0291                     	;# 
  2785  0292                     	;# 
  2786  0292                     	;# 
  2787  0293                     	;# 
  2788  0293                     	;# 
  2789  0294                     	;# 
  2790  0295                     	;# 
  2791  0296                     	;# 
  2792  0296                     	;# 
  2793  0297                     	;# 
  2794  0298                     	;# 
  2795  0298                     	;# 
  2796  0299                     	;# 
  2797  0299                     	;# 
  2798  029A                     	;# 
  2799  029B                     	;# 
  2800  029C                     	;# 
  2801  029C                     	;# 
  2802  029D                     	;# 
  2803  030C                     	;# 
  2804  030C                     	;# 
  2805  030D                     	;# 
  2806  030E                     	;# 
  2807  030F                     	;# 
  2808  0310                     	;# 
  2809  0310                     	;# 
  2810  0311                     	;# 
  2811  0312                     	;# 
  2812  0313                     	;# 
  2813  0314                     	;# 
  2814  0314                     	;# 
  2815  0315                     	;# 
  2816  0316                     	;# 
  2817  0317                     	;# 
  2818  0318                     	;# 
  2819  0318                     	;# 
  2820  0319                     	;# 
  2821  031A                     	;# 
  2822  031B                     	;# 
  2823  031C                     	;# 
  2824  031C                     	;# 
  2825  031D                     	;# 
  2826  031E                     	;# 
  2827  031F                     	;# 
  2828  038C                     	;# 
  2829  038D                     	;# 
  2830  038E                     	;# 
  2831  0390                     	;# 
  2832  0391                     	;# 
  2833  0392                     	;# 
  2834  040C                     	;# 
  2835  040D                     	;# 
  2836  040E                     	;# 
  2837  040F                     	;# 
  2838  0410                     	;# 
  2839  0411                     	;# 
  2840  0416                     	;# 
  2841  0416                     	;# 
  2842  0417                     	;# 
  2843  0418                     	;# 
  2844  0418                     	;# 
  2845  0419                     	;# 
  2846  041A                     	;# 
  2847  041A                     	;# 
  2848  041B                     	;# 
  2849  041C                     	;# 
  2850  041C                     	;# 
  2851  041D                     	;# 
  2852  041E                     	;# 
  2853  041F                     	;# 
  2854  048C                     	;# 
  2855  048C                     	;# 
  2856  048D                     	;# 
  2857  048E                     	;# 
  2858  048F                     	;# 
  2859  048F                     	;# 
  2860  0490                     	;# 
  2861  0491                     	;# 
  2862  0492                     	;# 
  2863  0492                     	;# 
  2864  0493                     	;# 
  2865  0494                     	;# 
  2866  0495                     	;# 
  2867  0495                     	;# 
  2868  0496                     	;# 
  2869  0497                     	;# 
  2870  0498                     	;# 
  2871  0499                     	;# 
  2872  049A                     	;# 
  2873  049B                     	;# 
  2874  049C                     	;# 
  2875  049D                     	;# 
  2876  050C                     	;# 
  2877  050C                     	;# 
  2878  050D                     	;# 
  2879  050E                     	;# 
  2880  050F                     	;# 
  2881  050F                     	;# 
  2882  0510                     	;# 
  2883  0511                     	;# 
  2884  0512                     	;# 
  2885  0512                     	;# 
  2886  0513                     	;# 
  2887  0514                     	;# 
  2888  0515                     	;# 
  2889  0515                     	;# 
  2890  0516                     	;# 
  2891  0517                     	;# 
  2892  0518                     	;# 
  2893  0519                     	;# 
  2894  051A                     	;# 
  2895  051B                     	;# 
  2896  051C                     	;# 
  2897  051D                     	;# 
  2898  058C                     	;# 
  2899  058C                     	;# 
  2900  058D                     	;# 
  2901  058E                     	;# 
  2902  058F                     	;# 
  2903  058F                     	;# 
  2904  0590                     	;# 
  2905  0591                     	;# 
  2906  0592                     	;# 
  2907  0593                     	;# 
  2908  060C                     	;# 
  2909  060D                     	;# 
  2910  060E                     	;# 
  2911  060F                     	;# 
  2912  0610                     	;# 
  2913  0611                     	;# 
  2914  0612                     	;# 
  2915  0613                     	;# 
  2916  0614                     	;# 
  2917  0616                     	;# 
  2918  0617                     	;# 
  2919  0618                     	;# 
  2920  0619                     	;# 
  2921  061A                     	;# 
  2922  061B                     	;# 
  2923  061C                     	;# 
  2924  061D                     	;# 
  2925  061E                     	;# 
  2926  068C                     	;# 
  2927  068D                     	;# 
  2928  068E                     	;# 
  2929  068F                     	;# 
  2930  0690                     	;# 
  2931  0691                     	;# 
  2932  0692                     	;# 
  2933  0693                     	;# 
  2934  0694                     	;# 
  2935  070C                     	;# 
  2936  070D                     	;# 
  2937  070E                     	;# 
  2938  070F                     	;# 
  2939  0710                     	;# 
  2940  0711                     	;# 
  2941  0712                     	;# 
  2942  0713                     	;# 
  2943  0714                     	;# 
  2944  0716                     	;# 
  2945  0717                     	;# 
  2946  0718                     	;# 
  2947  0719                     	;# 
  2948  071A                     	;# 
  2949  071B                     	;# 
  2950  071C                     	;# 
  2951  071D                     	;# 
  2952  071E                     	;# 
  2953  0796                     	;# 
  2954  0797                     	;# 
  2955  0798                     	;# 
  2956  0799                     	;# 
  2957  079A                     	;# 
  2958  079B                     	;# 
  2959  080C                     	;# 
  2960  080D                     	;# 
  2961  080E                     	;# 
  2962  080F                     	;# 
  2963  0810                     	;# 
  2964  0811                     	;# 
  2965  0812                     	;# 
  2966  0813                     	;# 
  2967  0814                     	;# 
  2968  081A                     	;# 
  2969  081B                     	;# 
  2970  081C                     	;# 
  2971  081D                     	;# 
  2972  081E                     	;# 
  2973  081F                     	;# 
  2974  088C                     	;# 
  2975  088D                     	;# 
  2976  088E                     	;# 
  2977  088F                     	;# 
  2978  0890                     	;# 
  2979  0891                     	;# 
  2980  0892                     	;# 
  2981  0893                     	;# 
  2982  0895                     	;# 
  2983  0896                     	;# 
  2984  0897                     	;# 
  2985  0898                     	;# 
  2986  0899                     	;# 
  2987  089A                     	;# 
  2988  089B                     	;# 
  2989  090C                     	;# 
  2990  090E                     	;# 
  2991  090F                     	;# 
  2992  091F                     	;# 
  2993  091F                     	;# 
  2994  098F                     	;# 
  2995  098F                     	;# 
  2996  0990                     	;# 
  2997  0991                     	;# 
  2998  0992                     	;# 
  2999  0993                     	;# 
  3000  0994                     	;# 
  3001  0995                     	;# 
  3002  0996                     	;# 
  3003  0997                     	;# 
  3004  0E0F                     	;# 
  3005  0E10                     	;# 
  3006  0E11                     	;# 
  3007  0E12                     	;# 
  3008  0E13                     	;# 
  3009  0E14                     	;# 
  3010  0E15                     	;# 
  3011  0E16                     	;# 
  3012  0E17                     	;# 
  3013  0E18                     	;# 
  3014  0E19                     	;# 
  3015  0E1A                     	;# 
  3016  0E1B                     	;# 
  3017  0E1C                     	;# 
  3018  0E1D                     	;# 
  3019  0E1E                     	;# 
  3020  0E1F                     	;# 
  3021  0E20                     	;# 
  3022  0E21                     	;# 
  3023  0E22                     	;# 
  3024  0E23                     	;# 
  3025  0E24                     	;# 
  3026  0E25                     	;# 
  3027  0E26                     	;# 
  3028  0E27                     	;# 
  3029  0E28                     	;# 
  3030  0E29                     	;# 
  3031  0E2A                     	;# 
  3032  0E2B                     	;# 
  3033  0E2C                     	;# 
  3034  0E2D                     	;# 
  3035  0E2E                     	;# 
  3036  0E2F                     	;# 
  3037  0E30                     	;# 
  3038  0E31                     	;# 
  3039  0E32                     	;# 
  3040  0E33                     	;# 
  3041  0E34                     	;# 
  3042  0E35                     	;# 
  3043  0E36                     	;# 
  3044  0E37                     	;# 
  3045  0E8F                     	;# 
  3046  0E90                     	;# 
  3047  0E91                     	;# 
  3048  0E92                     	;# 
  3049  0E93                     	;# 
  3050  0E94                     	;# 
  3051  0E95                     	;# 
  3052  0E96                     	;# 
  3053  0E97                     	;# 
  3054  0E9C                     	;# 
  3055  0E9D                     	;# 
  3056  0E9E                     	;# 
  3057  0EA1                     	;# 
  3058  0EA2                     	;# 
  3059  0EA3                     	;# 
  3060  0EA4                     	;# 
  3061  0EA5                     	;# 
  3062  0EA9                     	;# 
  3063  0EAA                     	;# 
  3064  0EAB                     	;# 
  3065  0EAC                     	;# 
  3066  0EB1                     	;# 
  3067  0EB2                     	;# 
  3068  0EB3                     	;# 
  3069  0EB8                     	;# 
  3070  0EB9                     	;# 
  3071  0EBA                     	;# 
  3072  0EBB                     	;# 
  3073  0EBC                     	;# 
  3074  0EBD                     	;# 
  3075  0EBE                     	;# 
  3076  0EC3                     	;# 
  3077  0EC5                     	;# 
  3078  0EC6                     	;# 
  3079  0EC7                     	;# 
  3080  0EC8                     	;# 
  3081  0EC9                     	;# 
  3082  0ECA                     	;# 
  3083  0ECB                     	;# 
  3084  0ECC                     	;# 
  3085  0F10                     	;# 
  3086  0F11                     	;# 
  3087  0F12                     	;# 
  3088  0F13                     	;# 
  3089  0F14                     	;# 
  3090  0F15                     	;# 
  3091  0F16                     	;# 
  3092  0F17                     	;# 
  3093  0F18                     	;# 
  3094  0F19                     	;# 
  3095  0F1A                     	;# 
  3096  0F1B                     	;# 
  3097  0F1C                     	;# 
  3098  0F1D                     	;# 
  3099  0F1E                     	;# 
  3100  0F1F                     	;# 
  3101  0F20                     	;# 
  3102  0F21                     	;# 
  3103  0F22                     	;# 
  3104  0F23                     	;# 
  3105  0F24                     	;# 
  3106  0F25                     	;# 
  3107  0F26                     	;# 
  3108  0F27                     	;# 
  3109  0F38                     	;# 
  3110  0F39                     	;# 
  3111  0F3A                     	;# 
  3112  0F3B                     	;# 
  3113  0F3C                     	;# 
  3114  0F3D                     	;# 
  3115  0F3E                     	;# 
  3116  0F3F                     	;# 
  3117  0F40                     	;# 
  3118  0F41                     	;# 
  3119  0F43                     	;# 
  3120  0F44                     	;# 
  3121  0F45                     	;# 
  3122  0F46                     	;# 
  3123  0F47                     	;# 
  3124  0F48                     	;# 
  3125  0F49                     	;# 
  3126  0F4A                     	;# 
  3127  0F4B                     	;# 
  3128  0F4C                     	;# 
  3129  0F4E                     	;# 
  3130  0F4F                     	;# 
  3131  0F50                     	;# 
  3132  0F51                     	;# 
  3133  0F52                     	;# 
  3134  0F53                     	;# 
  3135  0F54                     	;# 
  3136  0F55                     	;# 
  3137  0F56                     	;# 
  3138  0F57                     	;# 
  3139  0F65                     	;# 
  3140  0F68                     	;# 
  3141  0F69                     	;# 
  3142  0F6A                     	;# 
  3143  0F6B                     	;# 
  3144  0FE4                     	;# 
  3145  0FE5                     	;# 
  3146  0FE6                     	;# 
  3147  0FE7                     	;# 
  3148  0FE8                     	;# 
  3149  0FE9                     	;# 
  3150  0FEA                     	;# 
  3151  0FEB                     	;# 
  3152  0FED                     	;# 
  3153  0FEE                     	;# 
  3154  0FEF                     	;# 
  3155                           
  3156                           	psect	stringtext
  3157  0024                     __pstringtext:	
  3158  0024                     _fonts:	
  3159  0024  3400               	retlw	0
  3160  0025  3400               	retlw	0
  3161  0026  3400               	retlw	0
  3162  0027  3400               	retlw	0
  3163  0028  344E               	retlw	78
  3164  0029  3400               	retlw	0
  3165  002A  3406               	retlw	6
  3166  002B  3400               	retlw	0
  3167  002C  3406               	retlw	6
  3168  002D  34FF               	retlw	255
  3169  002E  34FF               	retlw	255
  3170  002F  34FF               	retlw	255
  3171  0030  3448               	retlw	72
  3172  0031  34D6               	retlw	214
  3173  0032  3424               	retlw	36
  3174  0033  3413               	retlw	19
  3175  0034  346B               	retlw	107
  3176  0035  3464               	retlw	100
  3177  0036  34FF               	retlw	255
  3178  0037  34FF               	retlw	255
  3179  0038  34FF               	retlw	255
  3180  0039  3400               	retlw	0
  3181  003A  3406               	retlw	6
  3182  003B  3400               	retlw	0
  3183  003C  3438               	retlw	56
  3184  003D  3444               	retlw	68
  3185  003E  3482               	retlw	130
  3186  003F  3482               	retlw	130
  3187  0040  3444               	retlw	68
  3188  0041  3438               	retlw	56
  3189  0042  3414               	retlw	20
  3190  0043  3408               	retlw	8
  3191  0044  343E               	retlw	62
  3192  0045  3410               	retlw	16
  3193  0046  3438               	retlw	56
  3194  0047  3410               	retlw	16
  3195  0048  34A0               	retlw	160
  3196  0049  3460               	retlw	96
  3197  004A  3400               	retlw	0
  3198  004B  3410               	retlw	16
  3199  004C  3410               	retlw	16
  3200  004D  3410               	retlw	16
  3201  004E  3460               	retlw	96
  3202  004F  3460               	retlw	96
  3203  0050  3400               	retlw	0
  3204  0051  3460               	retlw	96
  3205  0052  3418               	retlw	24
  3206  0053  3406               	retlw	6
  3207  0054  347C               	retlw	124
  3208  0055  3442               	retlw	66
  3209  0056  347C               	retlw	124
  3210  0057  3444               	retlw	68
  3211  0058  347E               	retlw	126
  3212  0059  3440               	retlw	64
  3213  005A  3464               	retlw	100
  3214  005B  3452               	retlw	82
  3215  005C  344C               	retlw	76
  3216  005D  344A               	retlw	74
  3217  005E  344A               	retlw	74
  3218  005F  3434               	retlw	52
  3219  0060  3438               	retlw	56
  3220  0061  3424               	retlw	36
  3221  0062  347E               	retlw	126
  3222  0063  344E               	retlw	78
  3223  0064  344A               	retlw	74
  3224  0065  3432               	retlw	50
  3225  0066  343C               	retlw	60
  3226  0067  344A               	retlw	74
  3227  0068  3432               	retlw	50
  3228  0069  3462               	retlw	98
  3229  006A  341A               	retlw	26
  3230  006B  3406               	retlw	6
  3231  006C  3476               	retlw	118
  3232  006D  344A               	retlw	74
  3233  006E  3476               	retlw	118
  3234  006F  344C               	retlw	76
  3235  0070  3452               	retlw	82
  3236  0071  343C               	retlw	60
  3237  0072  346C               	retlw	108
  3238  0073  346C               	retlw	108
  3239  0074  3400               	retlw	0
  3240  0075  34AC               	retlw	172
  3241  0076  346C               	retlw	108
  3242  0077  3400               	retlw	0
  3243  0078  3410               	retlw	16
  3244  0079  3428               	retlw	40
  3245  007A  3444               	retlw	68
  3246  007B  3428               	retlw	40
  3247  007C  3428               	retlw	40
  3248  007D  3428               	retlw	40
  3249  007E  3444               	retlw	68
  3250  007F  3428               	retlw	40
  3251  0080  3410               	retlw	16
  3252  0081  3402               	retlw	2
  3253  0082  3459               	retlw	89
  3254  0083  3406               	retlw	6
  3255  0084  34FF               	retlw	255
  3256  0085  34FF               	retlw	255
  3257  0086  34FF               	retlw	255
  3258  0087  347C               	retlw	124
  3259  0088  3412               	retlw	18
  3260  0089  347C               	retlw	124
  3261  008A  347E               	retlw	126
  3262  008B  345A               	retlw	90
  3263  008C  3434               	retlw	52
  3264  008D  343C               	retlw	60
  3265  008E  3442               	retlw	66
  3266  008F  3442               	retlw	66
  3267  0090  347E               	retlw	126
  3268  0091  3442               	retlw	66
  3269  0092  343C               	retlw	60
  3270  0093  347E               	retlw	126
  3271  0094  344A               	retlw	74
  3272  0095  3442               	retlw	66
  3273  0096  347E               	retlw	126
  3274  0097  340A               	retlw	10
  3275  0098  340A               	retlw	10
  3276  0099  343C               	retlw	60
  3277  009A  3452               	retlw	82
  3278  009B  3434               	retlw	52
  3279  009C  347E               	retlw	126
  3280  009D  3408               	retlw	8
  3281  009E  347E               	retlw	126
  3282  009F  3442               	retlw	66
  3283  00A0  347E               	retlw	126
  3284  00A1  3442               	retlw	66
  3285  00A2  3430               	retlw	48
  3286  00A3  3440               	retlw	64
  3287  00A4  343E               	retlw	62
  3288  00A5  347E               	retlw	126
  3289  00A6  3418               	retlw	24
  3290  00A7  3466               	retlw	102
  3291  00A8  347E               	retlw	126
  3292  00A9  3440               	retlw	64
  3293  00AA  3440               	retlw	64
  3294  00AB  347E               	retlw	126
  3295  00AC  341C               	retlw	28
  3296  00AD  347E               	retlw	126
  3297  00AE  347E               	retlw	126
  3298  00AF  3402               	retlw	2
  3299  00B0  347E               	retlw	126
  3300  00B1  343C               	retlw	60
  3301  00B2  3442               	retlw	66
  3302  00B3  343C               	retlw	60
  3303  00B4  347E               	retlw	126
  3304  00B5  3412               	retlw	18
  3305  00B6  340C               	retlw	12
  3306  00B7  347E               	retlw	126
  3307  00B8  3462               	retlw	98
  3308  00B9  34FE               	retlw	254
  3309  00BA  347E               	retlw	126
  3310  00BB  3432               	retlw	50
  3311  00BC  344E               	retlw	78
  3312  00BD  3444               	retlw	68
  3313  00BE  344A               	retlw	74
  3314  00BF  3432               	retlw	50
  3315  00C0  3402               	retlw	2
  3316  00C1  347E               	retlw	126
  3317  00C2  3402               	retlw	2
  3318  00C3  347E               	retlw	126
  3319  00C4  3440               	retlw	64
  3320  00C5  347E               	retlw	126
  3321  00C6  343E               	retlw	62
  3322  00C7  3440               	retlw	64
  3323  00C8  343E               	retlw	62
  3324  00C9  347E               	retlw	126
  3325  00CA  3438               	retlw	56
  3326  00CB  347E               	retlw	126
  3327  00CC  3466               	retlw	102
  3328  00CD  3418               	retlw	24
  3329  00CE  3466               	retlw	102
  3330  00CF  340E               	retlw	14
  3331  00D0  3470               	retlw	112
  3332  00D1  340E               	retlw	14
  3333  00D2  3462               	retlw	98
  3334  00D3  345A               	retlw	90
  3335  00D4  3446               	retlw	70
  3336  00D5  3400               	retlw	0
  3337  00D6  347E               	retlw	126
  3338  00D7  3442               	retlw	66
  3339  00D8  3406               	retlw	6
  3340  00D9  3418               	retlw	24
  3341  00DA  3460               	retlw	96
  3342  00DB  3442               	retlw	66
  3343  00DC  347E               	retlw	126
  3344  00DD  3400               	retlw	0
  3345  00DE  3404               	retlw	4
  3346  00DF  3402               	retlw	2
  3347  00E0  3404               	retlw	4
  3348  00E1  3440               	retlw	64
  3349  00E2  3440               	retlw	64
  3350  00E3  3440               	retlw	64
  3351  00E4  3400               	retlw	0
  3352  00E5  3402               	retlw	2
  3353  00E6  3404               	retlw	4
  3354  00E7  3474               	retlw	116
  3355  00E8  3454               	retlw	84
  3356  00E9  3478               	retlw	120
  3357  00EA  347E               	retlw	126
  3358  00EB  3448               	retlw	72
  3359  00EC  3430               	retlw	48
  3360  00ED  3430               	retlw	48
  3361  00EE  3448               	retlw	72
  3362  00EF  3448               	retlw	72
  3363  00F0  3430               	retlw	48
  3364  00F1  3448               	retlw	72
  3365  00F2  347E               	retlw	126
  3366  00F3  3438               	retlw	56
  3367  00F4  3454               	retlw	84
  3368  00F5  3458               	retlw	88
  3369  00F6  347C               	retlw	124
  3370  00F7  340A               	retlw	10
  3371  00F8  3402               	retlw	2
  3372  00F9  3498               	retlw	152
  3373  00FA  34A4               	retlw	164
  3374  00FB  347C               	retlw	124
  3375  00FC  347E               	retlw	126
  3376  00FD  3408               	retlw	8
  3377  00FE  3470               	retlw	112
  3378  00FF  3448               	retlw	72
  3379  0100  347A               	retlw	122
  3380  0101  3440               	retlw	64
  3381  0102  3488               	retlw	136
  3382  0103  34FA               	retlw	250
  3383  0104  3400               	retlw	0
  3384  0105  347E               	retlw	126
  3385  0106  3418               	retlw	24
  3386  0107  3464               	retlw	100
  3387  0108  3442               	retlw	66
  3388  0109  347E               	retlw	126
  3389  010A  3440               	retlw	64
  3390  010B  347C               	retlw	124
  3391  010C  3438               	retlw	56
  3392  010D  347C               	retlw	124
  3393  010E  347C               	retlw	124
  3394  010F  3404               	retlw	4
  3395  0110  3478               	retlw	120
  3396  0111  3438               	retlw	56
  3397  0112  3444               	retlw	68
  3398  0113  3438               	retlw	56
  3399  0114  34FC               	retlw	252
  3400  0115  3424               	retlw	36
  3401  0116  3418               	retlw	24
  3402  0117  3418               	retlw	24
  3403  0118  3424               	retlw	36
  3404  0119  34FC               	retlw	252
  3405  011A  3478               	retlw	120
  3406  011B  3404               	retlw	4
  3407  011C  3404               	retlw	4
  3408  011D  3448               	retlw	72
  3409  011E  3454               	retlw	84
  3410  011F  3424               	retlw	36
  3411  0120  3404               	retlw	4
  3412  0121  343E               	retlw	62
  3413  0122  3444               	retlw	68
  3414  0123  347C               	retlw	124
  3415  0124  3440               	retlw	64
  3416  0125  347C               	retlw	124
  3417  0126  343C               	retlw	60
  3418  0127  3440               	retlw	64
  3419  0128  343C               	retlw	60
  3420  0129  347C               	retlw	124
  3421  012A  3430               	retlw	48
  3422  012B  347C               	retlw	124
  3423  012C  346C               	retlw	108
  3424  012D  3410               	retlw	16
  3425  012E  346C               	retlw	108
  3426  012F  349C               	retlw	156
  3427  0130  34A0               	retlw	160
  3428  0131  347C               	retlw	124
  3429  0132  3464               	retlw	100
  3430  0133  3454               	retlw	84
  3431  0134  344C               	retlw	76
  3432  0135  34FF               	retlw	255
  3433  0136  34FF               	retlw	255
  3434  0137  34FF               	retlw	255
  3435  0138  34FF               	retlw	255
  3436  0139  34FF               	retlw	255
  3437  013A  34FF               	retlw	255
  3438  013B  34FF               	retlw	255
  3439  013C  34FF               	retlw	255
  3440  013D  34FF               	retlw	255
  3441  013E  34FF               	retlw	255
  3442  013F  34FF               	retlw	255
  3443  0140  34FF               	retlw	255
  3444  0141  34FF               	retlw	255
  3445  0142  34FF               	retlw	255
  3446  0143  34FF               	retlw	255
  3447  0144  34FF               	retlw	255
  3448  0145  34FF               	retlw	255
  3449  0146  34FF               	retlw	255
  3450  0147  340C               	retlw	12
  3451  0148  3412               	retlw	18
  3452  0149  340C               	retlw	12
  3453  014A  34FC               	retlw	252
  3454  014B  3440               	retlw	64
  3455  014C  347C               	retlw	124
  3456  014D  34FF               	retlw	255
  3457  014E  34FF               	retlw	255
  3458  014F  34FF               	retlw	255
  3459  0150  34FF               	retlw	255
  3460  0151  34FF               	retlw	255
  3461  0152  34FF               	retlw	255
  3462  0153                     __end_of_fonts:	
  3463  0013                     _TRISC	set	19
  3464  0012                     _TRISB	set	18
  3465  0011                     _TRISA	set	17
  3466  0018                     _LATC	set	24
  3467  0017                     _LATB	set	23
  3468  0016                     _LATA	set	22
  3469  0016                     _LATAbits	set	22
  3470  0011                     _TRISAbits	set	17
  3471  000B                     _INTCONbits	set	11
  3472  070E                     _PIR2bits	set	1806
  3473  0718                     _PIE2bits	set	1816
  3474  0892                     _OSCTUNE	set	2194
  3475  0893                     _OSCFRQ	set	2195
  3476  0891                     _OSCEN	set	2193
  3477  088F                     _OSCCON3	set	2191
  3478  088D                     _OSCCON1	set	2189
  3479  091F                     _ZCD1CON	set	2335
  3480  0F50                     _ODCONC	set	3920
  3481  0F45                     _ODCONB	set	3909
  3482  0F3A                     _ODCONA	set	3898
  3483  0F4F                     _WPUC	set	3919
  3484  0F39                     _WPUA	set	3897
  3485  0F44                     _WPUB	set	3908
  3486  0F65                     _WPUE	set	3941
  3487  0F4E                     _ANSELC	set	3918
  3488  0F43                     _ANSELB	set	3907
  3489  0F38                     _ANSELA	set	3896
  3490  0153                     STR_1:	
  3491  0153  3446               	retlw	70	;'F'
  3492  0154  3455               	retlw	85	;'U'
  3493  0155  3443               	retlw	67	;'C'
  3494  0156  344B               	retlw	75	;'K'
  3495  0157  3421               	retlw	33	;'!'
  3496  0158  3421               	retlw	33	;'!'
  3497  0159  3400               	retlw	0
  3498                           
  3499                           ; #config settings
  3500  0000                     
  3501                           	psect	cinit
  3502  0018                     start_initialization:	
  3503  0018                     __initialization:	
  3504                           
  3505                           ; Clear objects allocated to COMMON
  3506  0018  01FC               	clrf	__pbssCOMMON& (0+127)
  3507                           
  3508                           ; Clear objects allocated to BANK0
  3509  0019  0020               	movlb	0	; select bank0
  3510  001A  01AB               	clrf	__pbssBANK0& (0+127)
  3511  001B  01AC               	clrf	(__pbssBANK0+1)& (0+127)
  3512  001C  01AD               	clrf	(__pbssBANK0+2)& (0+127)
  3513  001D  01AE               	clrf	(__pbssBANK0+3)& (0+127)
  3514  001E  01AF               	clrf	(__pbssBANK0+4)& (0+127)
  3515  001F  01B0               	clrf	(__pbssBANK0+5)& (0+127)
  3516  0020                     end_of_initialization:	
  3517                           ;End of C runtime variable initialization code
  3518                           
  3519  0020                     __end_of__initialization:	
  3520  0020  107E               	bcf	int$flags,0	;clear compiler interrupt flag (level 1)
  3521  0021  0020               	movlb	0
  3522  0022  3182  2AA3         	ljmp	_main	;jump to C main() function
  3523                           
  3524                           	psect	bssCOMMON
  3525  007C                     __pbssCOMMON:	
  3526  007C                     _x:	
  3527  007C                     	ds	1
  3528                           
  3529                           	psect	bssBANK0
  3530  002B                     __pbssBANK0:	
  3531  002B                     LCD_Write_Int@F14312:	
  3532  002B                     	ds	5
  3533  0030                     _y:	
  3534  0030                     	ds	1
  3535                           
  3536                           	psect	cstackCOMMON
  3537  0070                     __pcstackCOMMON:	
  3538  0070                     ?_SYSTEM_Initialize:	
  3539  0070                     ?_PIN_MANAGER_Initialize:	
  3540                           ; 1 bytes @ 0x0
  3541                           
  3542  0070                     ?_OSCILLATOR_Initialize:	
  3543                           ; 1 bytes @ 0x0
  3544                           
  3545  0070                     ?_ZCD_ISR:	
  3546                           ; 1 bytes @ 0x0
  3547                           
  3548  0070                     ??_ZCD_ISR:	
  3549                           ; 1 bytes @ 0x0
  3550                           
  3551  0070                     ?_main:	
  3552                           ; 1 bytes @ 0x0
  3553                           
  3554  0070                     ?_LCD_Write_Character:	
  3555                           ; 1 bytes @ 0x0
  3556                           
  3557  0070                     ?_LCD_Clear:	
  3558                           ; 1 bytes @ 0x0
  3559                           
  3560  0070                     ?_LCD_Init:	
  3561                           ; 1 bytes @ 0x0
  3562                           
  3563  0070                     ?_INTERRUPT_InterruptManager:	
  3564                           ; 1 bytes @ 0x0
  3565                           
  3566  0070                     ??_INTERRUPT_InterruptManager:	
  3567                           ; 1 bytes @ 0x0
  3568                           
  3569                           
  3570                           ; 1 bytes @ 0x0
  3571  0070                     	ds	1
  3572  0071                     ??_PIN_MANAGER_Initialize:	
  3573  0071                     ??_OSCILLATOR_Initialize:	
  3574                           ; 1 bytes @ 0x1
  3575                           
  3576  0071                     ?___wmul:	
  3577                           ; 1 bytes @ 0x1
  3578                           
  3579  0071                     ___wmul@multiplier:	
  3580                           ; 2 bytes @ 0x1
  3581                           
  3582                           
  3583                           ; 2 bytes @ 0x1
  3584  0071                     	ds	2
  3585  0073                     ___wmul@multiplicand:	
  3586                           
  3587                           ; 2 bytes @ 0x3
  3588  0073                     	ds	2
  3589  0075                     ??___wmul:	
  3590  0075                     ___wmul@product:	
  3591                           ; 1 bytes @ 0x5
  3592                           
  3593                           
  3594                           ; 2 bytes @ 0x5
  3595  0075                     	ds	2
  3596  0077                     ?_LCD_Write:	
  3597  0077                     LCD_Write@data:	
  3598                           ; 1 bytes @ 0x7
  3599                           
  3600                           
  3601                           ; 1 bytes @ 0x7
  3602  0077                     	ds	1
  3603  0078                     ??_LCD_Write:	
  3604                           
  3605                           ; 1 bytes @ 0x8
  3606  0078                     	ds	1
  3607  0079                     LCD_Write@data_or_command:	
  3608                           
  3609                           ; 1 bytes @ 0x9
  3610  0079                     	ds	1
  3611  007A                     LCD_Write@d:	
  3612                           
  3613                           ; 1 bytes @ 0xA
  3614  007A                     	ds	1
  3615  007B                     LCD_Write@i:	
  3616                           
  3617                           ; 1 bytes @ 0xB
  3618  007B                     	ds	1
  3619  007C                     ??_main:	
  3620                           
  3621                           	psect	cstackBANK0
  3622  0020                     __pcstackBANK0:	
  3623                           ; 1 bytes @ 0xC
  3624                           
  3625  0020                     ?_gotoXY:	
  3626  0020                     ??_LCD_Write_Character:	
  3627                           ; 1 bytes @ 0x0
  3628                           
  3629  0020                     ??_LCD_Init:	
  3630                           ; 1 bytes @ 0x0
  3631                           
  3632  0020                     gotoXY@y:	
  3633                           ; 1 bytes @ 0x0
  3634                           
  3635                           
  3636                           ; 1 bytes @ 0x0
  3637  0020                     	ds	1
  3638  0021                     ??_gotoXY:	
  3639                           
  3640                           ; 1 bytes @ 0x1
  3641  0021                     	ds	1
  3642  0022                     gotoXY@x:	
  3643                           
  3644                           ; 1 bytes @ 0x2
  3645  0022                     	ds	1
  3646  0023                     ??_LCD_Clear:	
  3647                           
  3648                           ; 1 bytes @ 0x3
  3649  0023                     	ds	1
  3650  0024                     LCD_Clear@index:	
  3651                           
  3652                           ; 2 bytes @ 0x4
  3653  0024                     	ds	1
  3654  0025                     LCD_Write_Character@character:	
  3655                           
  3656                           ; 1 bytes @ 0x5
  3657  0025                     	ds	1
  3658  0026                     ??_SYSTEM_Initialize:	
  3659  0026                     LCD_Write_Character@index:	
  3660                           ; 1 bytes @ 0x6
  3661                           
  3662                           
  3663                           ; 2 bytes @ 0x6
  3664  0026                     	ds	2
  3665  0028                     ?_LCD_Write_String:	
  3666  0028                     LCD_Write_String@characters:	
  3667                           ; 1 bytes @ 0x8
  3668                           
  3669                           
  3670                           ; 2 bytes @ 0x8
  3671  0028                     	ds	2
  3672  002A                     ??_LCD_Write_String:	
  3673                           
  3674                           ; 1 bytes @ 0xA
  3675  002A                     	ds	1
  3676                           
  3677                           	psect	maintext
  3678  02A3                     __pmaintext:	
  3679 ;;
  3680 ;;Main: autosize = 0, tempsize = 0, incstack = 0, save=0
  3681 ;;
  3682 ;; *************** function _main *****************
  3683 ;; Defined at:
  3684 ;;		line 3 in file "main.c"
  3685 ;; Parameters:    Size  Location     Type
  3686 ;;		None
  3687 ;; Auto vars:     Size  Location     Type
  3688 ;;		None
  3689 ;; Return value:  Size  Location     Type
  3690 ;;                  1    wreg      void 
  3691 ;; Registers used:
  3692 ;;		wreg, fsr0l, fsr0h, status,2, status,0, pclath, cstack
  3693 ;; Tracked objects:
  3694 ;;		On entry : B1F/0
  3695 ;;		On exit  : 0/0
  3696 ;;		Unchanged: 0/0
  3697 ;; Data sizes:     COMMON   BANK0   BANK1   BANK2   BANK3   BANK4   BANK5   BANK6   BANK7   BANK8   BANK9  BANK10  BANK1
      +1  BANK12
  3698 ;;      Params:         0       0       0       0       0       0       0       0       0       0       0       0       
      +0       0
  3699 ;;      Locals:         0       0       0       0       0       0       0       0       0       0       0       0       
      +0       0
  3700 ;;      Temps:          0       0       0       0       0       0       0       0       0       0       0       0       
      +0       0
  3701 ;;      Totals:         0       0       0       0       0       0       0       0       0       0       0       0       
      +0       0
  3702 ;;Total ram usage:        0 bytes
  3703 ;; Hardware stack levels required when called:    6
  3704 ;; This function calls:
  3705 ;;		_LCD_Write_String
  3706 ;;		_SYSTEM_Initialize
  3707 ;; This function is called by:
  3708 ;;		Startup code after reset
  3709 ;; This function uses a non-reentrant model
  3710 ;;
  3711                           
  3712                           
  3713                           ;psect for function _main
  3714  02A3                     _main:	
  3715                           
  3716                           ;main.c: 5: SYSTEM_Initialize();
  3717                           
  3718                           ;incstack = 0
  3719                           ; Regs used in _main: [wreg-fsr0h+status,2+status,0+pclath+cstack]
  3720  02A3  3182  2266  3182   	fcall	_SYSTEM_Initialize
  3721                           
  3722                           ;main.c: 7: (INTCONbits.GIE = 1);
  3723  02A6  178B               	bsf	11,7	;volatile
  3724                           
  3725                           ;main.c: 9: (INTCONbits.PEIE = 1);
  3726  02A7  170B               	bsf	11,6	;volatile
  3727  02A8                     l1189:	
  3728                           ;main.c: 11: while (1)
  3729                           
  3730                           
  3731                           ;main.c: 12: {
  3732                           ;main.c: 13: LCD_Write_String("FUCK!!");
  3733  02A8  3053               	movlw	low (STR_1| (0+32768))
  3734  02A9  0020               	movlb	0	; select bank0
  3735  02AA  00A8               	movwf	LCD_Write_String@characters
  3736  02AB  3081               	movlw	high (STR_1| (0+32768))
  3737  02AC  00A9               	movwf	LCD_Write_String@characters+1
  3738  02AD  3182  224F  3182   	fcall	_LCD_Write_String
  3739  02B0  0064               	clrwdt	;# 
  3740  02B1  2AA8               	goto	l1189
  3741  02B2                     __end_of_main:	
  3742                           
  3743                           	psect	text1
  3744  0266                     __ptext1:	
  3745 ;; *************** function _SYSTEM_Initialize *****************
  3746 ;; Defined at:
  3747 ;;		line 36 in file "system.c"
  3748 ;; Parameters:    Size  Location     Type
  3749 ;;		None
  3750 ;; Auto vars:     Size  Location     Type
  3751 ;;		None
  3752 ;; Return value:  Size  Location     Type
  3753 ;;                  1    wreg      void 
  3754 ;; Registers used:
  3755 ;;		wreg, status,2, status,0, pclath, cstack
  3756 ;; Tracked objects:
  3757 ;;		On entry : 0/0
  3758 ;;		On exit  : 0/0
  3759 ;;		Unchanged: 0/0
  3760 ;; Data sizes:     COMMON   BANK0   BANK1   BANK2   BANK3   BANK4   BANK5   BANK6   BANK7   BANK8   BANK9  BANK10  BANK1
      +1  BANK12
  3761 ;;      Params:         0       0       0       0       0       0       0       0       0       0       0       0       
      +0       0
  3762 ;;      Locals:         0       0       0       0       0       0       0       0       0       0       0       0       
      +0       0
  3763 ;;      Temps:          0       1       0       0       0       0       0       0       0       0       0       0       
      +0       0
  3764 ;;      Totals:         0       1       0       0       0       0       0       0       0       0       0       0       
      +0       0
  3765 ;;Total ram usage:        1 bytes
  3766 ;; Hardware stack levels used:    1
  3767 ;; Hardware stack levels required when called:    5
  3768 ;; This function calls:
  3769 ;;		_LCD_Clear
  3770 ;;		_LCD_Init
  3771 ;;		_OSCILLATOR_Initialize
  3772 ;;		_PIN_MANAGER_Initialize
  3773 ;; This function is called by:
  3774 ;;		_main
  3775 ;; This function uses a non-reentrant model
  3776 ;;
  3777                           
  3778                           
  3779                           ;psect for function _SYSTEM_Initialize
  3780  0266                     _SYSTEM_Initialize:	
  3781                           
  3782                           ;system.c: 38: PIN_MANAGER_Initialize();
  3783                           
  3784                           ;incstack = 0
  3785                           ; Regs used in _SYSTEM_Initialize: [wreg+status,2+status,0+pclath+cstack]
  3786  0266  3182  2290  3182   	fcall	_PIN_MANAGER_Initialize
  3787                           
  3788                           ;system.c: 39: OSCILLATOR_Initialize();
  3789  0269  3182  22B2  3182   	fcall	_OSCILLATOR_Initialize
  3790                           
  3791                           ;system.c: 41: LCD_Init();
  3792  026C  3181  21A6  3182   	fcall	_LCD_Init
  3793                           
  3794                           ;system.c: 42: _delay((unsigned long)((75)*(4000000/4000.0)));
  3795  026F  3062               	movlw	98
  3796  0270  0020               	movlb	0	; select bank0
  3797  0271  00A6               	movwf	??_SYSTEM_Initialize
  3798  0272  3065               	movlw	101
  3799  0273                     u987:	
  3800  0273  0B89               	decfsz	9,f
  3801  0274  2A73               	goto	u987
  3802  0275  0BA6               	decfsz	??_SYSTEM_Initialize,f
  3803  0276  2A73               	goto	u987
  3804  0277  3200               	nop2
  3805                           
  3806                           ;system.c: 43: LCD_Clear();
  3807  0278  3181  21E6         	fcall	_LCD_Clear
  3808  027A  0008               	return
  3809  027B                     __end_of_SYSTEM_Initialize:	
  3810                           
  3811                           	psect	text2
  3812  0290                     __ptext2:	
  3813 ;; *************** function _PIN_MANAGER_Initialize *****************
  3814 ;; Defined at:
  3815 ;;		line 3 in file "pin_manager.c"
  3816 ;; Parameters:    Size  Location     Type
  3817 ;;		None
  3818 ;; Auto vars:     Size  Location     Type
  3819 ;;		None
  3820 ;; Return value:  Size  Location     Type
  3821 ;;                  1    wreg      void 
  3822 ;; Registers used:
  3823 ;;		status,2
  3824 ;; Tracked objects:
  3825 ;;		On entry : 0/0
  3826 ;;		On exit  : 0/0
  3827 ;;		Unchanged: 0/0
  3828 ;; Data sizes:     COMMON   BANK0   BANK1   BANK2   BANK3   BANK4   BANK5   BANK6   BANK7   BANK8   BANK9  BANK10  BANK1
      +1  BANK12
  3829 ;;      Params:         0       0       0       0       0       0       0       0       0       0       0       0       
      +0       0
  3830 ;;      Locals:         0       0       0       0       0       0       0       0       0       0       0       0       
      +0       0
  3831 ;;      Temps:          0       0       0       0       0       0       0       0       0       0       0       0       
      +0       0
  3832 ;;      Totals:         0       0       0       0       0       0       0       0       0       0       0       0       
      +0       0
  3833 ;;Total ram usage:        0 bytes
  3834 ;; Hardware stack levels used:    1
  3835 ;; Hardware stack levels required when called:    2
  3836 ;; This function calls:
  3837 ;;		Nothing
  3838 ;; This function is called by:
  3839 ;;		_SYSTEM_Initialize
  3840 ;; This function uses a non-reentrant model
  3841 ;;
  3842                           
  3843                           
  3844                           ;psect for function _PIN_MANAGER_Initialize
  3845  0290                     _PIN_MANAGER_Initialize:	
  3846                           
  3847                           ;pin_manager.c: 5: LATA = 0x00;
  3848                           
  3849                           ;incstack = 0
  3850                           ; Regs used in _PIN_MANAGER_Initialize: [status,2]
  3851  0290  0020               	movlb	0	; select bank0
  3852  0291  0196               	clrf	22	;volatile
  3853                           
  3854                           ;pin_manager.c: 6: LATB = 0x00;
  3855  0292  0197               	clrf	23	;volatile
  3856                           
  3857                           ;pin_manager.c: 7: LATC = 0x00;
  3858  0293  0198               	clrf	24	;volatile
  3859                           
  3860                           ;pin_manager.c: 17: TRISA = 0x00;
  3861  0294  0191               	clrf	17	;volatile
  3862                           
  3863                           ;pin_manager.c: 18: TRISB = 0x00;
  3864  0295  0192               	clrf	18	;volatile
  3865                           
  3866                           ;pin_manager.c: 19: TRISC = 0x00;
  3867  0296  0193               	clrf	19	;volatile
  3868                           
  3869                           ;pin_manager.c: 21: ANSELA = 0x00;
  3870  0297  003E               	movlb	30	; select bank30
  3871  0298  01B8               	clrf	56	;volatile
  3872                           
  3873                           ;pin_manager.c: 22: ANSELB = 0x00;
  3874  0299  01C3               	clrf	67	;volatile
  3875                           
  3876                           ;pin_manager.c: 23: ANSELC = 0x00;
  3877  029A  01CE               	clrf	78	;volatile
  3878                           
  3879                           ;pin_manager.c: 25: WPUE = 0x00;
  3880  029B  01E5               	clrf	101	;volatile
  3881                           
  3882                           ;pin_manager.c: 26: WPUB = 0x00;
  3883  029C  01C4               	clrf	68	;volatile
  3884                           
  3885                           ;pin_manager.c: 27: WPUA = 0x00;
  3886  029D  01B9               	clrf	57	;volatile
  3887                           
  3888                           ;pin_manager.c: 28: WPUC = 0x00;
  3889  029E  01CF               	clrf	79	;volatile
  3890                           
  3891                           ;pin_manager.c: 30: ODCONA = 0x00;
  3892  029F  01BA               	clrf	58	;volatile
  3893                           
  3894                           ;pin_manager.c: 31: ODCONB = 0x00;
  3895  02A0  01C5               	clrf	69	;volatile
  3896                           
  3897                           ;pin_manager.c: 32: ODCONC = 0x00;
  3898  02A1  01D0               	clrf	80	;volatile
  3899  02A2  0008               	return
  3900  02A3                     __end_of_PIN_MANAGER_Initialize:	
  3901                           
  3902                           	psect	text3
  3903  02B2                     __ptext3:	
  3904 ;; *************** function _OSCILLATOR_Initialize *****************
  3905 ;; Defined at:
  3906 ;;		line 46 in file "system.c"
  3907 ;; Parameters:    Size  Location     Type
  3908 ;;		None
  3909 ;; Auto vars:     Size  Location     Type
  3910 ;;		None
  3911 ;; Return value:  Size  Location     Type
  3912 ;;                  1    wreg      void 
  3913 ;; Registers used:
  3914 ;;		wreg, status,2
  3915 ;; Tracked objects:
  3916 ;;		On entry : 0/0
  3917 ;;		On exit  : 0/0
  3918 ;;		Unchanged: 0/0
  3919 ;; Data sizes:     COMMON   BANK0   BANK1   BANK2   BANK3   BANK4   BANK5   BANK6   BANK7   BANK8   BANK9  BANK10  BANK1
      +1  BANK12
  3920 ;;      Params:         0       0       0       0       0       0       0       0       0       0       0       0       
      +0       0
  3921 ;;      Locals:         0       0       0       0       0       0       0       0       0       0       0       0       
      +0       0
  3922 ;;      Temps:          0       0       0       0       0       0       0       0       0       0       0       0       
      +0       0
  3923 ;;      Totals:         0       0       0       0       0       0       0       0       0       0       0       0       
      +0       0
  3924 ;;Total ram usage:        0 bytes
  3925 ;; Hardware stack levels used:    1
  3926 ;; Hardware stack levels required when called:    2
  3927 ;; This function calls:
  3928 ;;		Nothing
  3929 ;; This function is called by:
  3930 ;;		_SYSTEM_Initialize
  3931 ;; This function uses a non-reentrant model
  3932 ;;
  3933                           
  3934                           
  3935                           ;psect for function _OSCILLATOR_Initialize
  3936  02B2                     _OSCILLATOR_Initialize:	
  3937                           
  3938                           ;system.c: 48: OSCCON1 = 0x60;
  3939                           
  3940                           ;incstack = 0
  3941                           ; Regs used in _OSCILLATOR_Initialize: [wreg+status,2]
  3942  02B2  3060               	movlw	96
  3943  02B3  0031               	movlb	17	; select bank17
  3944  02B4  008D               	movwf	13	;volatile
  3945                           
  3946                           ;system.c: 50: OSCCON3 = 0x00;
  3947  02B5  018F               	clrf	15	;volatile
  3948                           
  3949                           ;system.c: 52: OSCEN = 0x00;
  3950  02B6  0191               	clrf	17	;volatile
  3951                           
  3952                           ;system.c: 54: OSCFRQ = 0x02;
  3953  02B7  3002               	movlw	2
  3954  02B8  0093               	movwf	19	;volatile
  3955                           
  3956                           ;system.c: 56: OSCTUNE = 0x00;
  3957  02B9  0192               	clrf	18	;volatile
  3958  02BA  0008               	return
  3959  02BB                     __end_of_OSCILLATOR_Initialize:	
  3960                           
  3961                           	psect	text4
  3962  01A6                     __ptext4:	
  3963 ;; *************** function _LCD_Init *****************
  3964 ;; Defined at:
  3965 ;;		line 334 in file "lcd.c"
  3966 ;; Parameters:    Size  Location     Type
  3967 ;;		None
  3968 ;; Auto vars:     Size  Location     Type
  3969 ;;		None
  3970 ;; Return value:  Size  Location     Type
  3971 ;;                  1    wreg      void 
  3972 ;; Registers used:
  3973 ;;		wreg, status,2, status,0, pclath, cstack
  3974 ;; Tracked objects:
  3975 ;;		On entry : 0/0
  3976 ;;		On exit  : 0/0
  3977 ;;		Unchanged: 0/0
  3978 ;; Data sizes:     COMMON   BANK0   BANK1   BANK2   BANK3   BANK4   BANK5   BANK6   BANK7   BANK8   BANK9  BANK10  BANK1
      +1  BANK12
  3979 ;;      Params:         0       0       0       0       0       0       0       0       0       0       0       0       
      +0       0
  3980 ;;      Locals:         0       0       0       0       0       0       0       0       0       0       0       0       
      +0       0
  3981 ;;      Temps:          0       1       0       0       0       0       0       0       0       0       0       0       
      +0       0
  3982 ;;      Totals:         0       1       0       0       0       0       0       0       0       0       0       0       
      +0       0
  3983 ;;Total ram usage:        1 bytes
  3984 ;; Hardware stack levels used:    1
  3985 ;; Hardware stack levels required when called:    3
  3986 ;; This function calls:
  3987 ;;		_LCD_Write
  3988 ;; This function is called by:
  3989 ;;		_SYSTEM_Initialize
  3990 ;; This function uses a non-reentrant model
  3991 ;;
  3992                           
  3993                           
  3994                           ;psect for function _LCD_Init
  3995  01A6                     _LCD_Init:	
  3996                           
  3997                           ;lcd.c: 343: TRISAbits.TRISA2 = 0;
  3998                           
  3999                           ;incstack = 0
  4000                           ; Regs used in _LCD_Init: [wreg+status,2+status,0+pclath+cstack]
  4001  01A6  0020               	movlb	0	; select bank0
  4002  01A7  1111               	bcf	17,2	;volatile
  4003                           
  4004                           ;lcd.c: 344: TRISAbits.TRISA3 = 0;
  4005  01A8  1191               	bcf	17,3	;volatile
  4006                           
  4007                           ;lcd.c: 345: TRISAbits.TRISA4 = 0;
  4008  01A9  1211               	bcf	17,4	;volatile
  4009                           
  4010                           ;lcd.c: 346: TRISAbits.TRISA0 = 0;
  4011  01AA  1011               	bcf	17,0	;volatile
  4012                           
  4013                           ;lcd.c: 347: TRISAbits.TRISA1 = 0;
  4014  01AB  1091               	bcf	17,1	;volatile
  4015                           
  4016                           ;lcd.c: 350: LATAbits.LATA3 = 0;
  4017  01AC  1196               	bcf	22,3	;volatile
  4018                           
  4019                           ;lcd.c: 351: LATAbits.LATA4 = 0;
  4020  01AD  1216               	bcf	22,4	;volatile
  4021                           
  4022                           ;lcd.c: 352: LATAbits.LATA2 = 0;
  4023  01AE  1116               	bcf	22,2	;volatile
  4024                           
  4025                           ;lcd.c: 353: LATAbits.LATA0 = 0;
  4026  01AF  1016               	bcf	22,0	;volatile
  4027                           
  4028                           ;lcd.c: 354: LATAbits.LATA0 = 1;
  4029  01B0  1416               	bsf	22,0	;volatile
  4030                           
  4031                           ;lcd.c: 355: LCD_Write(0, 0x21);
  4032  01B1  3021               	movlw	33
  4033  01B2  00A0               	movwf	??_LCD_Init
  4034  01B3  0820               	movf	??_LCD_Init,w
  4035  01B4  00F7               	movwf	LCD_Write@data
  4036  01B5  3000               	movlw	0
  4037  01B6  3182  220F  3181   	fcall	_LCD_Write
  4038                           
  4039                           ;lcd.c: 361: LCD_Write(0, 0xBB);
  4040  01B9  30BB               	movlw	187
  4041  01BA  0020               	movlb	0	; select bank0
  4042  01BB  00A0               	movwf	??_LCD_Init
  4043  01BC  0820               	movf	??_LCD_Init,w
  4044  01BD  00F7               	movwf	LCD_Write@data
  4045  01BE  3000               	movlw	0
  4046  01BF  3182  220F  3181   	fcall	_LCD_Write
  4047                           
  4048                           ;lcd.c: 363: LCD_Write(0, 0x04);
  4049  01C2  3004               	movlw	4
  4050  01C3  0020               	movlb	0	; select bank0
  4051  01C4  00A0               	movwf	??_LCD_Init
  4052  01C5  0820               	movf	??_LCD_Init,w
  4053  01C6  00F7               	movwf	LCD_Write@data
  4054  01C7  3000               	movlw	0
  4055  01C8  3182  220F  3181   	fcall	_LCD_Write
  4056                           
  4057                           ;lcd.c: 365: LCD_Write(0, 0x14);
  4058  01CB  3014               	movlw	20
  4059  01CC  0020               	movlb	0	; select bank0
  4060  01CD  00A0               	movwf	??_LCD_Init
  4061  01CE  0820               	movf	??_LCD_Init,w
  4062  01CF  00F7               	movwf	LCD_Write@data
  4063  01D0  3000               	movlw	0
  4064  01D1  3182  220F  3181   	fcall	_LCD_Write
  4065                           
  4066                           ;lcd.c: 367: LCD_Write(0, 0x20);
  4067  01D4  3020               	movlw	32
  4068  01D5  0020               	movlb	0	; select bank0
  4069  01D6  00A0               	movwf	??_LCD_Init
  4070  01D7  0820               	movf	??_LCD_Init,w
  4071  01D8  00F7               	movwf	LCD_Write@data
  4072  01D9  3000               	movlw	0
  4073  01DA  3182  220F  3181   	fcall	_LCD_Write
  4074                           
  4075                           ;lcd.c: 369: LCD_Write(0, 0x0C);
  4076  01DD  300C               	movlw	12
  4077  01DE  0020               	movlb	0	; select bank0
  4078  01DF  00A0               	movwf	??_LCD_Init
  4079  01E0  0820               	movf	??_LCD_Init,w
  4080  01E1  00F7               	movwf	LCD_Write@data
  4081  01E2  3000               	movlw	0
  4082  01E3  3182  220F         	fcall	_LCD_Write
  4083  01E5  0008               	return
  4084  01E6                     __end_of_LCD_Init:	
  4085                           
  4086                           	psect	text5
  4087  01E6                     __ptext5:	
  4088 ;; *************** function _LCD_Clear *****************
  4089 ;; Defined at:
  4090 ;;		line 270 in file "lcd.c"
  4091 ;; Parameters:    Size  Location     Type
  4092 ;;		None
  4093 ;; Auto vars:     Size  Location     Type
  4094 ;;  index           2    4[BANK0 ] int 
  4095 ;; Return value:  Size  Location     Type
  4096 ;;                  1    wreg      void 
  4097 ;; Registers used:
  4098 ;;		wreg, status,2, status,0, pclath, cstack
  4099 ;; Tracked objects:
  4100 ;;		On entry : 0/0
  4101 ;;		On exit  : 0/0
  4102 ;;		Unchanged: 0/0
  4103 ;; Data sizes:     COMMON   BANK0   BANK1   BANK2   BANK3   BANK4   BANK5   BANK6   BANK7   BANK8   BANK9  BANK10  BANK1
      +1  BANK12
  4104 ;;      Params:         0       0       0       0       0       0       0       0       0       0       0       0       
      +0       0
  4105 ;;      Locals:         0       2       0       0       0       0       0       0       0       0       0       0       
      +0       0
  4106 ;;      Temps:          0       1       0       0       0       0       0       0       0       0       0       0       
      +0       0
  4107 ;;      Totals:         0       3       0       0       0       0       0       0       0       0       0       0       
      +0       0
  4108 ;;Total ram usage:        3 bytes
  4109 ;; Hardware stack levels used:    1
  4110 ;; Hardware stack levels required when called:    4
  4111 ;; This function calls:
  4112 ;;		_LCD_Write
  4113 ;;		_gotoXY
  4114 ;; This function is called by:
  4115 ;;		_SYSTEM_Initialize
  4116 ;; This function uses a non-reentrant model
  4117 ;;
  4118                           
  4119                           
  4120                           ;psect for function _LCD_Clear
  4121  01E6                     _LCD_Clear:	
  4122                           
  4123                           ;lcd.c: 272: for (int index = 0 ; index < (84 * 48 / 8) ; index++)
  4124                           
  4125                           ;incstack = 0
  4126                           ; Regs used in _LCD_Clear: [wreg+status,2+status,0+pclath+cstack]
  4127  01E6  0020               	movlb	0	; select bank0
  4128  01E7  01A4               	clrf	LCD_Clear@index
  4129  01E8  01A5               	clrf	LCD_Clear@index+1
  4130  01E9  0825               	movf	LCD_Clear@index+1,w
  4131  01EA  3A80               	xorlw	128
  4132  01EB  00A3               	movwf	??_LCD_Clear
  4133  01EC  3081               	movlw	129
  4134  01ED  0223               	subwf	??_LCD_Clear,w
  4135  01EE  1D03               	skipz
  4136  01EF  29F2               	goto	u875
  4137  01F0  30F8               	movlw	248
  4138  01F1  0224               	subwf	LCD_Clear@index,w
  4139  01F2                     u875:	
  4140  01F2  1803               	btfsc	3,0
  4141  01F3  2A09               	goto	l1161
  4142  01F4                     l1155:	
  4143                           
  4144                           ;lcd.c: 273: LCD_Write(1, 0x00);
  4145  01F4  01F7               	clrf	LCD_Write@data
  4146  01F5  3001               	movlw	1
  4147  01F6  3182  220F  3181   	fcall	_LCD_Write
  4148  01F9  3001               	movlw	1
  4149  01FA  0020               	movlb	0	; select bank0
  4150  01FB  07A4               	addwf	LCD_Clear@index,f
  4151  01FC  3000               	movlw	0
  4152  01FD  3DA5               	addwfc	LCD_Clear@index+1,f
  4153  01FE  0825               	movf	LCD_Clear@index+1,w
  4154  01FF  3A80               	xorlw	128
  4155  0200  00A3               	movwf	??_LCD_Clear
  4156  0201  3081               	movlw	129
  4157  0202  0223               	subwf	??_LCD_Clear,w
  4158  0203  1D03               	skipz
  4159  0204  2A07               	goto	u885
  4160  0205  30F8               	movlw	248
  4161  0206  0224               	subwf	LCD_Clear@index,w
  4162  0207                     u885:	
  4163  0207  1C03               	skipc
  4164  0208  29F4               	goto	l1155
  4165  0209                     l1161:	
  4166                           
  4167                           ;lcd.c: 274: gotoXY(0, 0);
  4168  0209  0020               	movlb	0	; select bank0
  4169  020A  01A0               	clrf	gotoXY@y
  4170  020B  3000               	movlw	0
  4171  020C  3182  227B         	fcall	_gotoXY
  4172  020E  0008               	return
  4173  020F                     __end_of_LCD_Clear:	
  4174                           
  4175                           	psect	text6
  4176  027B                     __ptext6:	
  4177 ;; *************** function _gotoXY *****************
  4178 ;; Defined at:
  4179 ;;		line 230 in file "lcd.c"
  4180 ;; Parameters:    Size  Location     Type
  4181 ;;  x               1    wreg     char 
  4182 ;;  y               1    0[BANK0 ] char 
  4183 ;; Auto vars:     Size  Location     Type
  4184 ;;  x               1    2[BANK0 ] char 
  4185 ;; Return value:  Size  Location     Type
  4186 ;;                  1    wreg      void 
  4187 ;; Registers used:
  4188 ;;		wreg, status,2, status,0, pclath, cstack
  4189 ;; Tracked objects:
  4190 ;;		On entry : 0/0
  4191 ;;		On exit  : 0/0
  4192 ;;		Unchanged: 0/0
  4193 ;; Data sizes:     COMMON   BANK0   BANK1   BANK2   BANK3   BANK4   BANK5   BANK6   BANK7   BANK8   BANK9  BANK10  BANK1
      +1  BANK12
  4194 ;;      Params:         0       1       0       0       0       0       0       0       0       0       0       0       
      +0       0
  4195 ;;      Locals:         0       1       0       0       0       0       0       0       0       0       0       0       
      +0       0
  4196 ;;      Temps:          0       1       0       0       0       0       0       0       0       0       0       0       
      +0       0
  4197 ;;      Totals:         0       3       0       0       0       0       0       0       0       0       0       0       
      +0       0
  4198 ;;Total ram usage:        3 bytes
  4199 ;; Hardware stack levels used:    1
  4200 ;; Hardware stack levels required when called:    3
  4201 ;; This function calls:
  4202 ;;		_LCD_Write
  4203 ;; This function is called by:
  4204 ;;		_LCD_Clear
  4205 ;;		_drawBox
  4206 ;; This function uses a non-reentrant model
  4207 ;;
  4208                           
  4209                           
  4210                           ;psect for function _gotoXY
  4211  027B                     _gotoXY:	
  4212                           
  4213                           ;incstack = 0
  4214                           ; Regs used in _gotoXY: [wreg+status,2+status,0+pclath+cstack]
  4215                           ;gotoXY@x stored from wreg
  4216  027B  0020               	movlb	0	; select bank0
  4217  027C  00A2               	movwf	gotoXY@x
  4218                           
  4219                           ;lcd.c: 232: LCD_Write(0, 0x80 | x);
  4220  027D  0822               	movf	gotoXY@x,w
  4221  027E  3880               	iorlw	128
  4222  027F  00A1               	movwf	??_gotoXY
  4223  0280  0821               	movf	??_gotoXY,w
  4224  0281  00F7               	movwf	LCD_Write@data
  4225  0282  3000               	movlw	0
  4226  0283  3182  220F  3182   	fcall	_LCD_Write
  4227                           
  4228                           ;lcd.c: 233: LCD_Write(0, 0x40 | y);
  4229  0286  0020               	movlb	0	; select bank0
  4230  0287  0820               	movf	gotoXY@y,w
  4231  0288  3840               	iorlw	64
  4232  0289  00A1               	movwf	??_gotoXY
  4233  028A  0821               	movf	??_gotoXY,w
  4234  028B  00F7               	movwf	LCD_Write@data
  4235  028C  3000               	movlw	0
  4236  028D  3182  220F         	fcall	_LCD_Write
  4237  028F  0008               	return
  4238  0290                     __end_of_gotoXY:	
  4239                           
  4240                           	psect	text7
  4241  024F                     __ptext7:	
  4242 ;; *************** function _LCD_Write_String *****************
  4243 ;; Defined at:
  4244 ;;		line 263 in file "lcd.c"
  4245 ;; Parameters:    Size  Location     Type
  4246 ;;  characters      2    8[BANK0 ] PTR const unsigned char 
  4247 ;;		 -> STR_1(7), 
  4248 ;; Auto vars:     Size  Location     Type
  4249 ;;		None
  4250 ;; Return value:  Size  Location     Type
  4251 ;;                  1    wreg      void 
  4252 ;; Registers used:
  4253 ;;		wreg, fsr0l, fsr0h, status,2, status,0, pclath, cstack
  4254 ;; Tracked objects:
  4255 ;;		On entry : 0/0
  4256 ;;		On exit  : 0/0
  4257 ;;		Unchanged: 0/0
  4258 ;; Data sizes:     COMMON   BANK0   BANK1   BANK2   BANK3   BANK4   BANK5   BANK6   BANK7   BANK8   BANK9  BANK10  BANK1
      +1  BANK12
  4259 ;;      Params:         0       2       0       0       0       0       0       0       0       0       0       0       
      +0       0
  4260 ;;      Locals:         0       0       0       0       0       0       0       0       0       0       0       0       
      +0       0
  4261 ;;      Temps:          0       1       0       0       0       0       0       0       0       0       0       0       
      +0       0
  4262 ;;      Totals:         0       3       0       0       0       0       0       0       0       0       0       0       
      +0       0
  4263 ;;Total ram usage:        3 bytes
  4264 ;; Hardware stack levels used:    1
  4265 ;; Hardware stack levels required when called:    4
  4266 ;; This function calls:
  4267 ;;		_LCD_Write_Character
  4268 ;; This function is called by:
  4269 ;;		_main
  4270 ;; This function uses a non-reentrant model
  4271 ;;
  4272                           
  4273                           
  4274                           ;psect for function _LCD_Write_String
  4275  024F                     _LCD_Write_String:	
  4276  024F                     l1181:	
  4277                           ;lcd.c: 265: while (*characters)
  4278                           
  4279                           ;incstack = 0
  4280                           ; Regs used in _LCD_Write_String: [wreg-fsr0h+status,2+status,0+pclath+cstack]
  4281                           
  4282  024F  0020               	movlb	0	; select bank0
  4283  0250  0828               	movf	LCD_Write_String@characters,w
  4284  0251  0084               	movwf	4
  4285  0252  0829               	movf	LCD_Write_String@characters+1,w
  4286  0253  0085               	movwf	5
  4287  0254  0012               	moviw fsr0++
  4288  0255  1903               	btfsc	3,2
  4289  0256  0008               	return
  4290                           
  4291                           ;lcd.c: 266: LCD_Write_Character(*characters++);
  4292  0257  0020               	movlb	0	; select bank0
  4293  0258  0828               	movf	LCD_Write_String@characters,w
  4294  0259  0084               	movwf	4
  4295  025A  0829               	movf	LCD_Write_String@characters+1,w
  4296  025B  0085               	movwf	5
  4297  025C  0800               	movf	0,w	;code access
  4298  025D  3181  215A  3182   	fcall	_LCD_Write_Character
  4299  0260  3001               	movlw	1
  4300  0261  0020               	movlb	0	; select bank0
  4301  0262  07A8               	addwf	LCD_Write_String@characters,f
  4302  0263  3000               	movlw	0
  4303  0264  3DA9               	addwfc	LCD_Write_String@characters+1,f
  4304  0265  2A4F               	goto	l1181
  4305  0266                     __end_of_LCD_Write_String:	
  4306                           
  4307                           	psect	text8
  4308  015A                     __ptext8:	
  4309 ;; *************** function _LCD_Write_Character *****************
  4310 ;; Defined at:
  4311 ;;		line 249 in file "lcd.c"
  4312 ;; Parameters:    Size  Location     Type
  4313 ;;  character       1    wreg     const unsigned char 
  4314 ;; Auto vars:     Size  Location     Type
  4315 ;;  character       1    5[BANK0 ] const unsigned char 
  4316 ;;  index           2    6[BANK0 ] int 
  4317 ;; Return value:  Size  Location     Type
  4318 ;;                  1    wreg      void 
  4319 ;; Registers used:
  4320 ;;		wreg, fsr0l, fsr0h, status,2, status,0, pclath, cstack
  4321 ;; Tracked objects:
  4322 ;;		On entry : 0/0
  4323 ;;		On exit  : 0/0
  4324 ;;		Unchanged: 0/0
  4325 ;; Data sizes:     COMMON   BANK0   BANK1   BANK2   BANK3   BANK4   BANK5   BANK6   BANK7   BANK8   BANK9  BANK10  BANK1
      +1  BANK12
  4326 ;;      Params:         0       0       0       0       0       0       0       0       0       0       0       0       
      +0       0
  4327 ;;      Locals:         0       3       0       0       0       0       0       0       0       0       0       0       
      +0       0
  4328 ;;      Temps:          0       5       0       0       0       0       0       0       0       0       0       0       
      +0       0
  4329 ;;      Totals:         0       8       0       0       0       0       0       0       0       0       0       0       
      +0       0
  4330 ;;Total ram usage:        8 bytes
  4331 ;; Hardware stack levels used:    1
  4332 ;; Hardware stack levels required when called:    3
  4333 ;; This function calls:
  4334 ;;		_LCD_Write
  4335 ;;		___wmul
  4336 ;; This function is called by:
  4337 ;;		_LCD_Write_String
  4338 ;;		_LCD_Write_Int
  4339 ;; This function uses a non-reentrant model
  4340 ;;
  4341                           
  4342                           
  4343                           ;psect for function _LCD_Write_Character
  4344  015A                     _LCD_Write_Character:	
  4345                           
  4346                           ;incstack = 0
  4347                           ; Regs used in _LCD_Write_Character: [wreg-fsr0h+status,2+status,0+pclath+cstack]
  4348                           ;LCD_Write_Character@character stored from wreg
  4349  015A  0020               	movlb	0	; select bank0
  4350  015B  00A5               	movwf	LCD_Write_Character@character
  4351                           
  4352                           ;lcd.c: 253: for (int index = 0 ; index < 3 ; index++)
  4353  015C  01A6               	clrf	LCD_Write_Character@index
  4354  015D  01A7               	clrf	LCD_Write_Character@index+1
  4355  015E  0827               	movf	LCD_Write_Character@index+1,w
  4356  015F  3A80               	xorlw	128
  4357  0160  00A0               	movwf	??_LCD_Write_Character
  4358  0161  3080               	movlw	128
  4359  0162  0220               	subwf	??_LCD_Write_Character,w
  4360  0163  1D03               	skipz
  4361  0164  2967               	goto	u445
  4362  0165  3003               	movlw	3
  4363  0166  0226               	subwf	LCD_Write_Character@index,w
  4364  0167                     u445:	
  4365  0167  1803               	btfsc	3,0
  4366  0168  29A1               	goto	l913
  4367  0169                     l907:	
  4368                           
  4369                           ;lcd.c: 254: {
  4370                           ;lcd.c: 255: LCD_Write(1, fonts[character - 0x20][index]);
  4371  0169  0020               	movlb	0	; select bank0
  4372  016A  0825               	movf	LCD_Write_Character@character,w
  4373  016B  3EE0               	addlw	224
  4374  016C  00F1               	movwf	___wmul@multiplier
  4375  016D  30FF               	movlw	255
  4376  016E  1803               	skipnc
  4377  016F  3000               	movlw	0
  4378  0170  00F2               	movwf	___wmul@multiplier+1
  4379  0171  3003               	movlw	3
  4380  0172  00F3               	movwf	___wmul@multiplicand
  4381  0173  3000               	movlw	0
  4382  0174  00F4               	movwf	___wmul@multiplicand+1
  4383  0175  3182  2234  3181   	fcall	___wmul
  4384  0178  3024               	movlw	low (_fonts| (0+32768))
  4385  0179  0020               	movlb	0	; select bank0
  4386  017A  00A0               	movwf	??_LCD_Write_Character
  4387  017B  3080               	movlw	high (_fonts| (0+32768))
  4388  017C  00A1               	movwf	??_LCD_Write_Character+1
  4389  017D  0871               	movf	?___wmul,w
  4390  017E  0720               	addwf	??_LCD_Write_Character,w
  4391  017F  00A2               	movwf	??_LCD_Write_Character+2
  4392  0180  0872               	movf	?___wmul+1,w
  4393  0181  3D21               	addwfc	??_LCD_Write_Character+1,w
  4394  0182  00A3               	movwf	??_LCD_Write_Character+3
  4395  0183  0822               	movf	??_LCD_Write_Character+2,w
  4396  0184  0726               	addwf	LCD_Write_Character@index,w
  4397  0185  0084               	movwf	4
  4398  0186  0823               	movf	??_LCD_Write_Character+3,w
  4399  0187  3D27               	addwfc	LCD_Write_Character@index+1,w
  4400  0188  0085               	movwf	5
  4401  0189  0800               	movf	0,w	;code access
  4402  018A  00A4               	movwf	??_LCD_Write_Character+4
  4403  018B  0824               	movf	??_LCD_Write_Character+4,w
  4404  018C  00F7               	movwf	LCD_Write@data
  4405  018D  3001               	movlw	1
  4406  018E  3182  220F  3181   	fcall	_LCD_Write
  4407  0191  3001               	movlw	1
  4408  0192  0020               	movlb	0	; select bank0
  4409  0193  07A6               	addwf	LCD_Write_Character@index,f
  4410  0194  3000               	movlw	0
  4411  0195  3DA7               	addwfc	LCD_Write_Character@index+1,f
  4412  0196  0827               	movf	LCD_Write_Character@index+1,w
  4413  0197  3A80               	xorlw	128
  4414  0198  00A0               	movwf	??_LCD_Write_Character
  4415  0199  3080               	movlw	128
  4416  019A  0220               	subwf	??_LCD_Write_Character,w
  4417  019B  1D03               	skipz
  4418  019C  299F               	goto	u455
  4419  019D  3003               	movlw	3
  4420  019E  0226               	subwf	LCD_Write_Character@index,w
  4421  019F                     u455:	
  4422  019F  1C03               	skipc
  4423  01A0  2969               	goto	l907
  4424  01A1                     l913:	
  4425                           
  4426                           ;lcd.c: 256: }
  4427                           ;lcd.c: 258: LCD_Write(1, 0x00);
  4428  01A1  01F7               	clrf	LCD_Write@data
  4429  01A2  3001               	movlw	1
  4430  01A3  3182  220F         	fcall	_LCD_Write
  4431  01A5  0008               	return
  4432  01A6                     __end_of_LCD_Write_Character:	
  4433                           
  4434                           	psect	text9
  4435  0234                     __ptext9:	
  4436 ;; *************** function ___wmul *****************
  4437 ;; Defined at:
  4438 ;;		line 15 in file "C:\Program Files (x86)\Microchip\xc8\v1.41\sources\common\Umul16.c"
  4439 ;; Parameters:    Size  Location     Type
  4440 ;;  multiplier      2    1[COMMON] unsigned int 
  4441 ;;  multiplicand    2    3[COMMON] unsigned int 
  4442 ;; Auto vars:     Size  Location     Type
  4443 ;;  product         2    5[COMMON] unsigned int 
  4444 ;; Return value:  Size  Location     Type
  4445 ;;                  2    1[COMMON] unsigned int 
  4446 ;; Registers used:
  4447 ;;		wreg, status,2, status,0
  4448 ;; Tracked objects:
  4449 ;;		On entry : 0/0
  4450 ;;		On exit  : 0/0
  4451 ;;		Unchanged: 0/0
  4452 ;; Data sizes:     COMMON   BANK0   BANK1   BANK2   BANK3   BANK4   BANK5   BANK6   BANK7   BANK8   BANK9  BANK10  BANK1
      +1  BANK12
  4453 ;;      Params:         4       0       0       0       0       0       0       0       0       0       0       0       
      +0       0
  4454 ;;      Locals:         2       0       0       0       0       0       0       0       0       0       0       0       
      +0       0
  4455 ;;      Temps:          0       0       0       0       0       0       0       0       0       0       0       0       
      +0       0
  4456 ;;      Totals:         6       0       0       0       0       0       0       0       0       0       0       0       
      +0       0
  4457 ;;Total ram usage:        6 bytes
  4458 ;; Hardware stack levels used:    1
  4459 ;; Hardware stack levels required when called:    2
  4460 ;; This function calls:
  4461 ;;		Nothing
  4462 ;; This function is called by:
  4463 ;;		_LCD_Write_Character
  4464 ;; This function uses a non-reentrant model
  4465 ;;
  4466                           
  4467                           
  4468                           ;psect for function ___wmul
  4469  0234                     ___wmul:	
  4470                           
  4471                           ;incstack = 0
  4472                           ; Regs used in ___wmul: [wreg+status,2+status,0]
  4473  0234  01F5               	clrf	___wmul@product
  4474  0235  01F6               	clrf	___wmul@product+1
  4475  0236                     l889:	
  4476  0236  1C71               	btfss	___wmul@multiplier,0
  4477  0237  2A3C               	goto	l259
  4478  0238  0873               	movf	___wmul@multiplicand,w
  4479  0239  07F5               	addwf	___wmul@product,f
  4480  023A  0874               	movf	___wmul@multiplicand+1,w
  4481  023B  3DF6               	addwfc	___wmul@product+1,f
  4482  023C                     l259:	
  4483  023C  3001               	movlw	1
  4484  023D                     u415:	
  4485  023D  35F3               	lslf	___wmul@multiplicand,f
  4486  023E  0DF4               	rlf	___wmul@multiplicand+1,f
  4487  023F  0B89               	decfsz	9,f
  4488  0240  2A3D               	goto	u415
  4489  0241  3001               	movlw	1
  4490  0242                     u425:	
  4491  0242  36F2               	lsrf	___wmul@multiplier+1,f
  4492  0243  0CF1               	rrf	___wmul@multiplier,f
  4493  0244  0B89               	decfsz	9,f
  4494  0245  2A42               	goto	u425
  4495  0246  0871               	movf	___wmul@multiplier,w
  4496  0247  0472               	iorwf	___wmul@multiplier+1,w
  4497  0248  1D03               	btfss	3,2
  4498  0249  2A36               	goto	l889
  4499  024A  0876               	movf	___wmul@product+1,w
  4500  024B  00F2               	movwf	?___wmul+1
  4501  024C  0875               	movf	___wmul@product,w
  4502  024D  00F1               	movwf	?___wmul
  4503  024E  0008               	return
  4504  024F                     __end_of___wmul:	
  4505                           
  4506                           	psect	text10
  4507  020F                     __ptext10:	
  4508 ;; *************** function _LCD_Write *****************
  4509 ;; Defined at:
  4510 ;;		line 376 in file "lcd.c"
  4511 ;; Parameters:    Size  Location     Type
  4512 ;;  data_or_comm    1    wreg     unsigned char 
  4513 ;;  data            1    7[COMMON] unsigned char 
  4514 ;; Auto vars:     Size  Location     Type
  4515 ;;  data_or_comm    1    9[COMMON] unsigned char 
  4516 ;;  i               1   11[COMMON] unsigned char 
  4517 ;;  d               1   10[COMMON] unsigned char 
  4518 ;; Return value:  Size  Location     Type
  4519 ;;                  1    wreg      void 
  4520 ;; Registers used:
  4521 ;;		wreg, status,2, status,0
  4522 ;; Tracked objects:
  4523 ;;		On entry : 0/0
  4524 ;;		On exit  : 0/0
  4525 ;;		Unchanged: 0/0
  4526 ;; Data sizes:     COMMON   BANK0   BANK1   BANK2   BANK3   BANK4   BANK5   BANK6   BANK7   BANK8   BANK9  BANK10  BANK1
      +1  BANK12
  4527 ;;      Params:         1       0       0       0       0       0       0       0       0       0       0       0       
      +0       0
  4528 ;;      Locals:         3       0       0       0       0       0       0       0       0       0       0       0       
      +0       0
  4529 ;;      Temps:          1       0       0       0       0       0       0       0       0       0       0       0       
      +0       0
  4530 ;;      Totals:         5       0       0       0       0       0       0       0       0       0       0       0       
      +0       0
  4531 ;;Total ram usage:        5 bytes
  4532 ;; Hardware stack levels used:    1
  4533 ;; Hardware stack levels required when called:    2
  4534 ;; This function calls:
  4535 ;;		Nothing
  4536 ;; This function is called by:
  4537 ;;		_gotoXY
  4538 ;;		_LCD_Write_Character
  4539 ;;		_LCD_Clear
  4540 ;;		_LCD_Init
  4541 ;;		_LCDBitmap
  4542 ;;		_drawBox
  4543 ;; This function uses a non-reentrant model
  4544 ;;
  4545                           
  4546                           
  4547                           ;psect for function _LCD_Write
  4548  020F                     _LCD_Write:	
  4549                           
  4550                           ;incstack = 0
  4551                           ; Regs used in _LCD_Write: [wreg+status,2+status,0]
  4552                           ;LCD_Write@data_or_command stored from wreg
  4553  020F  00F9               	movwf	LCD_Write@data_or_command
  4554                           
  4555                           ;lcd.c: 377: uint8_t i,d;
  4556                           ;lcd.c: 378: d=data;
  4557  0210  0877               	movf	LCD_Write@data,w
  4558  0211  00F8               	movwf	??_LCD_Write
  4559  0212  0878               	movf	??_LCD_Write,w
  4560  0213  00FA               	movwf	LCD_Write@d
  4561                           
  4562                           ;lcd.c: 379: if(data_or_command == 0)
  4563  0214  0879               	movf	LCD_Write@data_or_command,w
  4564  0215  1D03               	btfss	3,2
  4565  0216  2A1A               	goto	l75
  4566                           
  4567                           ;lcd.c: 380: {
  4568                           ;lcd.c: 381: LATAbits.LATA2=0;
  4569  0217  0020               	movlb	0	; select bank0
  4570  0218  1116               	bcf	22,2	;volatile
  4571                           
  4572                           ;lcd.c: 382: }
  4573  0219  2A1C               	goto	l76
  4574  021A                     l75:	
  4575                           
  4576                           ;lcd.c: 383: else
  4577                           ;lcd.c: 384: {
  4578                           ;lcd.c: 385: LATAbits.LATA2=1;
  4579  021A  0020               	movlb	0	; select bank0
  4580  021B  1516               	bsf	22,2	;volatile
  4581  021C                     l76:	
  4582                           
  4583                           ;lcd.c: 386: }
  4584                           ;lcd.c: 390: LATAbits.LATA1 = 0;
  4585  021C  1096               	bcf	22,1	;volatile
  4586                           
  4587                           ;lcd.c: 392: for(i=0;i<8;i++)
  4588  021D  01FB               	clrf	LCD_Write@i
  4589  021E  3008               	movlw	8
  4590  021F  027B               	subwf	LCD_Write@i,w
  4591  0220  1803               	btfsc	3,0
  4592  0221  2A32               	goto	l78
  4593  0222                     l77:	
  4594                           
  4595                           ;lcd.c: 393: {
  4596                           ;lcd.c: 394: LATAbits.LATA3 = 0;
  4597  0222  1196               	bcf	22,3	;volatile
  4598                           
  4599                           ;lcd.c: 395: if(d&0x80)LATAbits.LATA3=1;
  4600  0223  1FFA               	btfss	LCD_Write@d,7
  4601  0224  2A26               	goto	l79
  4602  0225  1596               	bsf	22,3	;volatile
  4603  0226                     l79:	
  4604                           
  4605                           ;lcd.c: 396: LATAbits.LATA4=1;
  4606  0226  1616               	bsf	22,4	;volatile
  4607                           
  4608                           ;lcd.c: 397: d<<=1;
  4609  0227  1003               	clrc
  4610  0228  0DFA               	rlf	LCD_Write@d,f
  4611                           
  4612                           ;lcd.c: 398: LATAbits.LATA4=0;
  4613  0229  1216               	bcf	22,4	;volatile
  4614  022A  3001               	movlw	1
  4615  022B  00F8               	movwf	??_LCD_Write
  4616  022C  0878               	movf	??_LCD_Write,w
  4617  022D  07FB               	addwf	LCD_Write@i,f
  4618  022E  3008               	movlw	8
  4619  022F  027B               	subwf	LCD_Write@i,w
  4620  0230  1C03               	skipc
  4621  0231  2A22               	goto	l77
  4622  0232                     l78:	
  4623                           
  4624                           ;lcd.c: 399: }
  4625                           ;lcd.c: 401: LATAbits.LATA1=1;
  4626  0232  1496               	bsf	22,1	;volatile
  4627  0233  0008               	return
  4628  0234                     __end_of_LCD_Write:	
  4629                           
  4630                           	psect	intentry
  4631  0004                     __pintentry:	
  4632 ;; *************** function _INTERRUPT_InterruptManager *****************
  4633 ;; Defined at:
  4634 ;;		line 3 in file "interrupt_manager.c"
  4635 ;; Parameters:    Size  Location     Type
  4636 ;;		None
  4637 ;; Auto vars:     Size  Location     Type
  4638 ;;		None
  4639 ;; Return value:  Size  Location     Type
  4640 ;;                  1    wreg      void 
  4641 ;; Registers used:
  4642 ;;		status,2, status,0, pclath, cstack
  4643 ;; Tracked objects:
  4644 ;;		On entry : 0/0
  4645 ;;		On exit  : 0/0
  4646 ;;		Unchanged: 0/0
  4647 ;; Data sizes:     COMMON   BANK0   BANK1   BANK2   BANK3   BANK4   BANK5   BANK6   BANK7   BANK8   BANK9  BANK10  BANK1
      +1  BANK12
  4648 ;;      Params:         0       0       0       0       0       0       0       0       0       0       0       0       
      +0       0
  4649 ;;      Locals:         0       0       0       0       0       0       0       0       0       0       0       0       
      +0       0
  4650 ;;      Temps:          1       0       0       0       0       0       0       0       0       0       0       0       
      +0       0
  4651 ;;      Totals:         1       0       0       0       0       0       0       0       0       0       0       0       
      +0       0
  4652 ;;Total ram usage:        1 bytes
  4653 ;; Hardware stack levels used:    1
  4654 ;; Hardware stack levels required when called:    1
  4655 ;; This function calls:
  4656 ;;		_ZCD_ISR
  4657 ;; This function is called by:
  4658 ;;		Interrupt level 1
  4659 ;; This function uses a non-reentrant model
  4660 ;;
  4661                           
  4662  0004                     _INTERRUPT_InterruptManager:	
  4663                           
  4664                           ;incstack = 0
  4665  0004  147E               	bsf	126,0	;set compiler interrupt flag (level 1)
  4666                           
  4667                           ; Regs used in _INTERRUPT_InterruptManager: [status,2+status,0+pclath+cstack]
  4668  0005  3180               	pagesel	$
  4669  0006  0020               	movlb	0	; select bank0
  4670  0007  087F               	movf	127,w
  4671  0008  00F0               	movwf	??_INTERRUPT_InterruptManager
  4672                           
  4673                           ;interrupt_manager.c: 6: if(INTCONbits.PEIE == 1 && PIE2bits.ZCDIE == 1 && PIR2bits.ZCDI
      +                          F == 1)
  4674  0009  1F0B               	btfss	11,6	;volatile
  4675  000A  2811               	goto	i1l130
  4676  000B  002E               	movlb	14	; select bank14
  4677  000C  1B18               	btfsc	24,6	;volatile
  4678  000D  1F0E               	btfss	14,6	;volatile
  4679  000E  2811               	goto	i1l130
  4680                           
  4681                           ;interrupt_manager.c: 7: {
  4682                           ;interrupt_manager.c: 8: ZCD_ISR();
  4683  000F  3182  22BB         	fcall	_ZCD_ISR
  4684  0011                     i1l130:	
  4685                           ;interrupt_manager.c: 10: else
  4686                           ;interrupt_manager.c: 11: {
  4687                           ;interrupt_manager.c: 12: ;
  4688                           
  4689                           ;interrupt_manager.c: 9: }
  4690                           
  4691  0011  0870               	movf	??_INTERRUPT_InterruptManager,w
  4692  0012  0020               	movlb	0	; select bank0
  4693  0013  00FF               	movwf	127
  4694  0014  107E               	bcf	126,0	;clear compiler interrupt flag (level 1)
  4695  0015  0009               	retfie
  4696  0016                     __end_of_INTERRUPT_InterruptManager:	
  4697                           
  4698                           	psect	text12
  4699  02BB                     __ptext12:	
  4700 ;; *************** function _ZCD_ISR *****************
  4701 ;; Defined at:
  4702 ;;		line 16 in file "zcd.c"
  4703 ;; Parameters:    Size  Location     Type
  4704 ;;		None
  4705 ;; Auto vars:     Size  Location     Type
  4706 ;;		None
  4707 ;; Return value:  Size  Location     Type
  4708 ;;                  1    wreg      void 
  4709 ;; Registers used:
  4710 ;;		None
  4711 ;; Tracked objects:
  4712 ;;		On entry : 0/0
  4713 ;;		On exit  : 0/0
  4714 ;;		Unchanged: 0/0
  4715 ;; Data sizes:     COMMON   BANK0   BANK1   BANK2   BANK3   BANK4   BANK5   BANK6   BANK7   BANK8   BANK9  BANK10  BANK1
      +1  BANK12
  4716 ;;      Params:         0       0       0       0       0       0       0       0       0       0       0       0       
      +0       0
  4717 ;;      Locals:         0       0       0       0       0       0       0       0       0       0       0       0       
      +0       0
  4718 ;;      Temps:          0       0       0       0       0       0       0       0       0       0       0       0       
      +0       0
  4719 ;;      Totals:         0       0       0       0       0       0       0       0       0       0       0       0       
      +0       0
  4720 ;;Total ram usage:        0 bytes
  4721 ;; Hardware stack levels used:    1
  4722 ;; This function calls:
  4723 ;;		Nothing
  4724 ;; This function is called by:
  4725 ;;		_INTERRUPT_InterruptManager
  4726 ;; This function uses a non-reentrant model
  4727 ;;
  4728                           
  4729                           
  4730                           ;psect for function _ZCD_ISR
  4731  02BB                     _ZCD_ISR:	
  4732                           
  4733                           ;zcd.c: 18: PIR2bits.ZCDIF = 0;
  4734                           
  4735                           ;incstack = 0
  4736                           ; Regs used in _ZCD_ISR: []
  4737  02BB  002E               	movlb	14	; select bank14
  4738  02BC  130E               	bcf	14,6	;volatile
  4739  02BD  0008               	return
  4740  02BE                     __end_of_ZCD_ISR:	
  4741  007E                     btemp	set	126	;btemp
  4742  007E                     int$flags	set	126
  4743  007E                     wtemp0	set	126


Data Sizes:
    Strings     7
    Constant    303
    Data        0
    BSS         7
    Persistent  0
    Stack       0

Auto Spaces:
    Space          Size  Autos    Used
    COMMON           14     12      13
    BANK0            80     11      17
    BANK1            80      0       0
    BANK2            80      0       0
    BANK3            80      0       0
    BANK4            80      0       0
    BANK5            80      0       0
    BANK6            80      0       0
    BANK7            80      0       0
    BANK8            80      0       0
    BANK9            80      0       0
    BANK10           80      0       0
    BANK11           80      0       0
    BANK12           48      0       0

Pointer List with Targets:

    LCD_Write_String@characters	PTR const unsigned char  size(2) Largest target is 7
		 -> STR_1(CODE[7]), 


Critical Paths under _main in COMMON

    _LCD_Init->_LCD_Write
    _LCD_Clear->_LCD_Write
    _gotoXY->_LCD_Write
    _LCD_Write_Character->_LCD_Write
    _LCD_Write->___wmul

Critical Paths under _INTERRUPT_InterruptManager in COMMON

    None.

Critical Paths under _main in BANK0

    _main->_LCD_Write_String
    _SYSTEM_Initialize->_LCD_Clear
    _LCD_Clear->_gotoXY
    _LCD_Write_String->_LCD_Write_Character

Critical Paths under _INTERRUPT_InterruptManager in BANK0

    None.

Critical Paths under _main in BANK1

    None.

Critical Paths under _INTERRUPT_InterruptManager in BANK1

    None.

Critical Paths under _main in BANK2

    None.

Critical Paths under _INTERRUPT_InterruptManager in BANK2

    None.

Critical Paths under _main in BANK3

    None.

Critical Paths under _INTERRUPT_InterruptManager in BANK3

    None.

Critical Paths under _main in BANK4

    None.

Critical Paths under _INTERRUPT_InterruptManager in BANK4

    None.

Critical Paths under _main in BANK5

    None.

Critical Paths under _INTERRUPT_InterruptManager in BANK5

    None.

Critical Paths under _main in BANK6

    None.

Critical Paths under _INTERRUPT_InterruptManager in BANK6

    None.

Critical Paths under _main in BANK7

    None.

Critical Paths under _INTERRUPT_InterruptManager in BANK7

    None.

Critical Paths under _main in BANK8

    None.

Critical Paths under _INTERRUPT_InterruptManager in BANK8

    None.

Critical Paths under _main in BANK9

    None.

Critical Paths under _INTERRUPT_InterruptManager in BANK9

    None.

Critical Paths under _main in BANK10

    None.

Critical Paths under _INTERRUPT_InterruptManager in BANK10

    None.

Critical Paths under _main in BANK11

    None.

Critical Paths under _INTERRUPT_InterruptManager in BANK11

    None.

Critical Paths under _main in BANK12

    None.

Critical Paths under _INTERRUPT_InterruptManager in BANK12

    None.

Call Graph Tables:

 ---------------------------------------------------------------------------------
 (Depth) Function   	        Calls       Base Space   Used Autos Params    Refs
 ---------------------------------------------------------------------------------
 (0) _main                                                 0     0      0    4721
                   _LCD_Write_String
                  _SYSTEM_Initialize
 ---------------------------------------------------------------------------------
 (1) _SYSTEM_Initialize                                    1     1      0    3341
                                              6 BANK0      1     1      0
                          _LCD_Clear
                           _LCD_Init
              _OSCILLATOR_Initialize
             _PIN_MANAGER_Initialize
 ---------------------------------------------------------------------------------
 (2) _PIN_MANAGER_Initialize                               0     0      0       0
 ---------------------------------------------------------------------------------
 (2) _OSCILLATOR_Initialize                                0     0      0       0
 ---------------------------------------------------------------------------------
 (2) _LCD_Init                                             1     1      0     962
                                              0 BANK0      1     1      0
                          _LCD_Write
 ---------------------------------------------------------------------------------
 (2) _LCD_Clear                                            3     3      0    2379
                                              3 BANK0      3     3      0
                          _LCD_Write
                             _gotoXY
 ---------------------------------------------------------------------------------
 (3) _gotoXY                                               3     2      1    1349
                                              0 BANK0      3     2      1
                          _LCD_Write
 ---------------------------------------------------------------------------------
 (1) _LCD_Write_String                                     3     1      2    1380
                                              8 BANK0      3     1      2
                _LCD_Write_Character
 ---------------------------------------------------------------------------------
 (2) _LCD_Write_Character                                  8     8      0    1250
                                              0 BANK0      8     8      0
                          _LCD_Write
                             ___wmul
 ---------------------------------------------------------------------------------
 (3) ___wmul                                               6     2      4     198
                                              1 COMMON     6     2      4
 ---------------------------------------------------------------------------------
 (3) _LCD_Write                                            5     4      1     962
                                              7 COMMON     5     4      1
                             ___wmul (ARG)
 ---------------------------------------------------------------------------------
 Estimated maximum stack depth 3
 ---------------------------------------------------------------------------------
 (Depth) Function   	        Calls       Base Space   Used Autos Params    Refs
 ---------------------------------------------------------------------------------
 (5) _INTERRUPT_InterruptManager                           1     1      0       0
                                              0 COMMON     1     1      0
                            _ZCD_ISR
 ---------------------------------------------------------------------------------
 (6) _ZCD_ISR                                              0     0      0       0
 ---------------------------------------------------------------------------------
 Estimated maximum stack depth 6
 ---------------------------------------------------------------------------------

 Call Graph Graphs:

 _main (ROOT)
   _LCD_Write_String
     _LCD_Write_Character
       _LCD_Write
         ___wmul (ARG)
       ___wmul
   _SYSTEM_Initialize
     _LCD_Clear
       _LCD_Write
         ___wmul (ARG)
       _gotoXY
         _LCD_Write
           ___wmul (ARG)
     _LCD_Init
       _LCD_Write
         ___wmul (ARG)
     _OSCILLATOR_Initialize
     _PIN_MANAGER_Initialize

 _INTERRUPT_InterruptManager (ROOT)
   _ZCD_ISR

 Address spaces:
Name               Size   Autos  Total    Cost      Usage
BIGRAM             3F0      0       0       0        0.0%
EEDATA             100      0       0       0        0.0%
NULL                 0      0       0       0        0.0%
CODE                 0      0       0       0        0.0%
BITCOMMON            E      0       0       1        0.0%
BITSFR0              0      0       0       1        0.0%
SFR0                 0      0       0       1        0.0%
COMMON               E      C       D       2       92.9%
BITSFR1              0      0       0       2        0.0%
SFR1                 0      0       0       2        0.0%
BITSFR2              0      0       0       3        0.0%
SFR2                 0      0       0       3        0.0%
STACK                0      0       0       3        0.0%
BITBANK0            50      0       0       4        0.0%
BITSFR3              0      0       0       4        0.0%
SFR3                 0      0       0       4        0.0%
BANK0               50      B      11       5       21.3%
BITSFR4              0      0       0       5        0.0%
SFR4                 0      0       0       5        0.0%
BITBANK1            50      0       0       6        0.0%
BITSFR5              0      0       0       6        0.0%
SFR5                 0      0       0       6        0.0%
BANK1               50      0       0       7        0.0%
BITSFR6              0      0       0       7        0.0%
SFR6                 0      0       0       7        0.0%
BITBANK2            50      0       0       8        0.0%
BITSFR7              0      0       0       8        0.0%
SFR7                 0      0       0       8        0.0%
BANK2               50      0       0       9        0.0%
BITSFR8              0      0       0       9        0.0%
SFR8                 0      0       0       9        0.0%
BITBANK3            50      0       0      10        0.0%
BITSFR9              0      0       0      10        0.0%
SFR9                 0      0       0      10        0.0%
BANK3               50      0       0      11        0.0%
BITSFR10             0      0       0      11        0.0%
SFR10                0      0       0      11        0.0%
BITBANK4            50      0       0      12        0.0%
BITSFR11             0      0       0      12        0.0%
SFR11                0      0       0      12        0.0%
BANK4               50      0       0      13        0.0%
BITSFR12             0      0       0      13        0.0%
SFR12                0      0       0      13        0.0%
BITBANK5            50      0       0      14        0.0%
BITSFR13             0      0       0      14        0.0%
SFR13                0      0       0      14        0.0%
BANK5               50      0       0      15        0.0%
BITSFR14             0      0       0      15        0.0%
SFR14                0      0       0      15        0.0%
BITBANK6            50      0       0      16        0.0%
BITSFR15             0      0       0      16        0.0%
SFR15                0      0       0      16        0.0%
BANK6               50      0       0      17        0.0%
BITSFR16             0      0       0      17        0.0%
SFR16                0      0       0      17        0.0%
BITBANK7            50      0       0      18        0.0%
BITSFR17             0      0       0      18        0.0%
SFR17                0      0       0      18        0.0%
BANK7               50      0       0      19        0.0%
BITSFR18             0      0       0      19        0.0%
SFR18                0      0       0      19        0.0%
BITSFR19             0      0       0      20        0.0%
SFR19                0      0       0      20        0.0%
ABS                  0      0      1E      20        0.0%
BITBANK8            50      0       0      21        0.0%
BITSFR20             0      0       0      21        0.0%
SFR20                0      0       0      21        0.0%
BANK8               50      0       0      22        0.0%
BITSFR21             0      0       0      22        0.0%
SFR21                0      0       0      22        0.0%
BITBANK9            50      0       0      23        0.0%
BITSFR22             0      0       0      23        0.0%
SFR22                0      0       0      23        0.0%
BANK9               50      0       0      24        0.0%
BITSFR23             0      0       0      24        0.0%
SFR23                0      0       0      24        0.0%
BITBANK10           50      0       0      25        0.0%
BITSFR24             0      0       0      25        0.0%
SFR24                0      0       0      25        0.0%
BANK10              50      0       0      26        0.0%
BITSFR25             0      0       0      26        0.0%
SFR25                0      0       0      26        0.0%
BITBANK11           50      0       0      27        0.0%
BITSFR26             0      0       0      27        0.0%
SFR26                0      0       0      27        0.0%
BANK11              50      0       0      28        0.0%
BITSFR27             0      0       0      28        0.0%
SFR27                0      0       0      28        0.0%
BITBANK12           30      0       0      29        0.0%
BITSFR28             0      0       0      29        0.0%
SFR28                0      0       0      29        0.0%
BANK12              30      0       0      30        0.0%
BITSFR29             0      0       0      30        0.0%
SFR29                0      0       0      30        0.0%
BITSFR30             0      0       0      31        0.0%
SFR30                0      0       0      31        0.0%
DATA                 0      0      1E      31        0.0%
BITSFR31             0      0       0      32        0.0%
SFR31                0      0       0      32        0.0%


Microchip Technology PIC Macro Assembler V1.41 build -162212810 
Symbol Table                                                                                   Mon Dec 11 10:17:52 2017

                                  _x 007C                                    _y 0030  
                        __CFG_CP$OFF 0000                                   l75 021A  
                                 l76 021C                                   l77 0222  
                                 l78 0232                                   l79 0226  
                ___wmul@multiplicand 0073                          __CFG_LVP$ON 0000  
                        __CFG_ZCD$ON 0000                                  l259 023C  
                                l913 01A1                                  l907 0169  
                                l889 0236                                  u415 023D  
                                u425 0242                         __CFG_CPD$OFF 0000  
                                u445 0167                                  u455 019F  
                                u875 01F2                                  u885 0207  
                                u987 0273                         __CFG_BORV$LO 0000  
                                wreg 0009         __size_of_LCD_Write_Character 004C  
                               l1161 0209                                 l1155 01F4  
                               l1181 024F                                 l1189 02A8  
                               STR_1 0153                         __CFG_WDTE$ON 0000  
                               _LATA 0016                                 _LATB 0017  
                               _LATC 0018                                 _WPUA 0F39  
                               _WPUB 0F44                                 _WPUC 0F4F  
                               _WPUE 0F65                         __CFG_WRT$OFF 0000  
                      __CFG_FCMEN$ON 0000                    ?_LCD_Write_String 0028  
                               _main 02A3                      __end_of_ZCD_ISR 02BE  
                 __size_of_LCD_Clear 0029                                 fsr0h 0005  
                               indf0 0000                                 fsr0l 0004  
                               btemp 007E                        __CFG_BOREN$ON 0000  
                               start 0016                   ??_LCD_Write_String 002A  
                 __size_of_LCD_Write 0025                        __CFG_CSWEN$ON 0000  
                      __CFG_MCLRE$ON 0000                     __end_of_LCD_Init 01E6  
     __size_of_OSCILLATOR_Initialize 0009        __end_of_OSCILLATOR_Initialize 02BB  
                              ?_main 0070                       __CFG_DEBUG$OFF 0000  
                              i1l130 0011                                _OSCEN 0891  
                              _TRISA 0011                                _TRISB 0012  
                              _TRISC 0013                                _fonts 0024  
                              status 0003                                wtemp0 007E  
                    __initialization 0018                         __end_of_main 02B2  
        ?_INTERRUPT_InterruptManager 0070                               ??_main 007C  
                  __end_of_LCD_Clear 020F                    __end_of_LCD_Write 0234  
                          ??_ZCD_ISR 0070                               _ANSELA 0F38  
                             _ANSELB 0F43                               _ANSELC 0F4E  
                 __CFG_RSTOSC$HFINT1 0000                               _ODCONA 0F3A  
                             _ODCONB 0F45                               _ODCONC 0F50  
                     __CFG_WDTCCS$SC 0000                               _OSCFRQ 0893  
                     __CFG_PWRTE$OFF 0000                               ___wmul 0234  
                     __CFG_STVREN$ON 0000                               _gotoXY 027B  
                  _SYSTEM_Initialize 0266              __end_of__initialization 0020  
                          ?_LCD_Init 0070                   ?_SYSTEM_Initialize 0070  
                     __pcstackCOMMON 0070                  _LCD_Write_Character 015A  
                ??_SYSTEM_Initialize 0026                        __end_of_fonts 0153  
               ?_LCD_Write_Character 0070            __end_of_SYSTEM_Initialize 027B  
                         __pbssBANK0 002B                           ??_LCD_Init 0020  
                         __pmaintext 02A3                              ?___wmul 0071  
                    __CFG_PPS1WAY$ON 0000                           __pintentry 0004  
                            ?_gotoXY 0020            __size_of_LCD_Write_String 0017  
                            _OSCCON1 088D                              _OSCCON3 088F  
                            _ZCD1CON 091F                ??_LCD_Write_Character 0020  
                            _OSCTUNE 0892                       LCD_Clear@index 0024  
                            _ZCD_ISR 02BB                        LCD_Write@data 0077  
               __CFG_SCANE$available 0000                      __size_of___wmul 001B  
                    __size_of_gotoXY 0015                              __ptext1 0266  
                            __ptext2 0290                              __ptext3 02B2  
                            __ptext4 01A6                              __ptext5 01E6  
                            __ptext6 027B                              __ptext7 024F  
                            __ptext8 015A                              __ptext9 0234  
              _OSCILLATOR_Initialize 02B2             ??_PIN_MANAGER_Initialize 0071  
                          _LCD_Clear 01E6           __size_of_SYSTEM_Initialize 0015  
                          _LCD_Write 020F                 end_of_initialization 0020  
           LCD_Write@data_or_command 0079                              gotoXY@x 0022  
                            gotoXY@y 0020           LCD_Write_String@characters 0028  
                       __pstringtext 0024                __CFG_WDTCPS$WDTCPS_31 0000  
           LCD_Write_Character@index 0026                            _TRISAbits 0011  
                         ?_LCD_Clear 0070                           ?_LCD_Write 0077  
                   __CFG_FEXTOSC$OFF 0000                    __size_of_LCD_Init 0040  
                     __end_of___wmul 024F                     _LCD_Write_String 024F  
                         LCD_Write@d 007A                           LCD_Write@i 007B  
                     __end_of_gotoXY 0290               ?_OSCILLATOR_Initialize 0070  
                start_initialization 0018      __size_of_PIN_MANAGER_Initialize 0013  
                   __CFG_LPBOREN$OFF 0000                             ??___wmul 0075  
                           ??_gotoXY 0021                          __pbssCOMMON 007C  
                          ___latbits 0002                        __pcstackBANK0 0020  
                        ??_LCD_Clear 0023                             ?_ZCD_ISR 0070  
                        ??_LCD_Write 0078               _PIN_MANAGER_Initialize 0290  
       ??_INTERRUPT_InterruptManager 0070          __end_of_LCD_Write_Character 01A6  
                           _LCD_Init 01A6                       ___wmul@product 0075  
                           _LATAbits 0016                             _PIE2bits 0718  
__size_of_INTERRUPT_InterruptManager 0012                             _PIR2bits 070E  
                  ___wmul@multiplier 0071                     __size_of_ZCD_ISR 0003  
           __end_of_LCD_Write_String 0266              ??_OSCILLATOR_Initialize 0071  
                           __ptext10 020F                             __ptext12 02BB  
                LCD_Write_Int@F14312 002B                        __size_of_main 000F  
               __CFG_WDTCWS$WDTCWS_7 0000                             int$flags 007E  
 __end_of_INTERRUPT_InterruptManager 0016           _INTERRUPT_InterruptManager 0004  
                         _INTCONbits 000B                             intlevel1 0000  
            ?_PIN_MANAGER_Initialize 0070                    __CFG_CLKOUTEN$OFF 0000  
       LCD_Write_Character@character 0025       __end_of_PIN_MANAGER_Initialize 02A3  
