

Microchip Technology PIC LITE Macro Assembler V1.38 build -256452561 
                                                                                               Sun Jul 02 13:19:50 2017

Microchip Technology Omniscient Code Generator v1.38 (Free mode) build 201607010351
     1                           	processor	16F18855
     2                           	opt	pw 120
     3                           	opt	lm
     4                           	psect	cinit,global,class=CODE,merge=1,delta=2
     5                           	psect	bssCOMMON,global,class=COMMON,space=1,delta=1
     6                           	psect	cstackCOMMON,global,class=COMMON,space=1,delta=1
     7                           	psect	maintext,global,class=CODE,merge=1,split=1,delta=2
     8                           	psect	text1,local,class=CODE,merge=1,delta=2
     9                           	psect	text2,local,class=CODE,merge=1,delta=2
    10                           	psect	text3,local,class=CODE,merge=1,delta=2
    11                           	psect	text4,local,class=CODE,merge=1,delta=2
    12                           	psect	text5,local,class=CODE,merge=1,delta=2
    13                           	psect	text6,local,class=CODE,merge=1,delta=2
    14                           	psect	text7,local,class=CODE,merge=1,delta=2
    15                           	psect	text8,local,class=CODE,merge=1,delta=2
    16                           	dabs	1,0x7E,2
    17  0000                     	;# 
    18  0001                     	;# 
    19  0002                     	;# 
    20  0003                     	;# 
    21  0004                     	;# 
    22  0005                     	;# 
    23  0006                     	;# 
    24  0007                     	;# 
    25  0008                     	;# 
    26  0009                     	;# 
    27  000A                     	;# 
    28  000B                     	;# 
    29  000C                     	;# 
    30  000D                     	;# 
    31  000E                     	;# 
    32  0010                     	;# 
    33  0011                     	;# 
    34  0012                     	;# 
    35  0013                     	;# 
    36  0016                     	;# 
    37  0017                     	;# 
    38  0018                     	;# 
    39  001C                     	;# 
    40  001C                     	;# 
    41  001D                     	;# 
    42  001D                     	;# 
    43  001E                     	;# 
    44  001F                     	;# 
    45  008C                     	;# 
    46  008C                     	;# 
    47  008D                     	;# 
    48  008E                     	;# 
    49  008E                     	;# 
    50  008F                     	;# 
    51  0090                     	;# 
    52  0090                     	;# 
    53  0091                     	;# 
    54  0093                     	;# 
    55  0094                     	;# 
    56  0095                     	;# 
    57  0096                     	;# 
    58  0097                     	;# 
    59  0098                     	;# 
    60  0099                     	;# 
    61  009A                     	;# 
    62  009B                     	;# 
    63  009C                     	;# 
    64  009D                     	;# 
    65  009E                     	;# 
    66  010C                     	;# 
    67  010D                     	;# 
    68  010E                     	;# 
    69  010E                     	;# 
    70  010F                     	;# 
    71  0110                     	;# 
    72  0110                     	;# 
    73  0111                     	;# 
    74  0112                     	;# 
    75  0112                     	;# 
    76  0113                     	;# 
    77  0114                     	;# 
    78  0114                     	;# 
    79  0115                     	;# 
    80  0116                     	;# 
    81  0116                     	;# 
    82  0117                     	;# 
    83  0119                     	;# 
    84  0119                     	;# 
    85  0119                     	;# 
    86  011A                     	;# 
    87  011A                     	;# 
    88  011A                     	;# 
    89  011B                     	;# 
    90  011B                     	;# 
    91  011B                     	;# 
    92  011B                     	;# 
    93  011B                     	;# 
    94  011C                     	;# 
    95  011C                     	;# 
    96  011C                     	;# 
    97  011D                     	;# 
    98  011D                     	;# 
    99  011D                     	;# 
   100  011E                     	;# 
   101  011E                     	;# 
   102  011E                     	;# 
   103  011F                     	;# 
   104  011F                     	;# 
   105  011F                     	;# 
   106  011F                     	;# 
   107  011F                     	;# 
   108  018C                     	;# 
   109  018D                     	;# 
   110  018E                     	;# 
   111  018F                     	;# 
   112  0190                     	;# 
   113  0191                     	;# 
   114  0192                     	;# 
   115  0196                     	;# 
   116  0197                     	;# 
   117  0198                     	;# 
   118  0199                     	;# 
   119  019A                     	;# 
   120  019B                     	;# 
   121  019C                     	;# 
   122  020C                     	;# 
   123  020D                     	;# 
   124  020E                     	;# 
   125  020F                     	;# 
   126  020F                     	;# 
   127  0210                     	;# 
   128  0210                     	;# 
   129  0211                     	;# 
   130  0211                     	;# 
   131  0212                     	;# 
   132  0213                     	;# 
   133  0214                     	;# 
   134  0215                     	;# 
   135  0215                     	;# 
   136  0216                     	;# 
   137  0216                     	;# 
   138  0217                     	;# 
   139  0217                     	;# 
   140  0218                     	;# 
   141  0219                     	;# 
   142  021A                     	;# 
   143  021B                     	;# 
   144  021B                     	;# 
   145  021C                     	;# 
   146  021C                     	;# 
   147  021D                     	;# 
   148  021D                     	;# 
   149  021E                     	;# 
   150  021F                     	;# 
   151  028C                     	;# 
   152  028C                     	;# 
   153  028D                     	;# 
   154  028D                     	;# 
   155  028E                     	;# 
   156  028F                     	;# 
   157  0290                     	;# 
   158  0290                     	;# 
   159  0291                     	;# 
   160  0292                     	;# 
   161  0292                     	;# 
   162  0293                     	;# 
   163  0293                     	;# 
   164  0294                     	;# 
   165  0295                     	;# 
   166  0296                     	;# 
   167  0296                     	;# 
   168  0297                     	;# 
   169  0298                     	;# 
   170  0298                     	;# 
   171  0299                     	;# 
   172  0299                     	;# 
   173  029A                     	;# 
   174  029B                     	;# 
   175  029C                     	;# 
   176  029C                     	;# 
   177  029D                     	;# 
   178  030C                     	;# 
   179  030C                     	;# 
   180  030D                     	;# 
   181  030E                     	;# 
   182  030F                     	;# 
   183  0310                     	;# 
   184  0310                     	;# 
   185  0311                     	;# 
   186  0312                     	;# 
   187  0313                     	;# 
   188  0314                     	;# 
   189  0314                     	;# 
   190  0315                     	;# 
   191  0316                     	;# 
   192  0317                     	;# 
   193  0318                     	;# 
   194  0318                     	;# 
   195  0319                     	;# 
   196  031A                     	;# 
   197  031B                     	;# 
   198  031C                     	;# 
   199  031C                     	;# 
   200  031D                     	;# 
   201  031E                     	;# 
   202  031F                     	;# 
   203  038C                     	;# 
   204  038D                     	;# 
   205  038E                     	;# 
   206  0390                     	;# 
   207  0391                     	;# 
   208  0392                     	;# 
   209  040C                     	;# 
   210  040D                     	;# 
   211  040E                     	;# 
   212  040F                     	;# 
   213  0410                     	;# 
   214  0411                     	;# 
   215  0416                     	;# 
   216  0416                     	;# 
   217  0417                     	;# 
   218  0418                     	;# 
   219  0418                     	;# 
   220  0419                     	;# 
   221  041A                     	;# 
   222  041A                     	;# 
   223  041B                     	;# 
   224  041C                     	;# 
   225  041C                     	;# 
   226  041D                     	;# 
   227  041E                     	;# 
   228  041F                     	;# 
   229  048C                     	;# 
   230  048C                     	;# 
   231  048D                     	;# 
   232  048E                     	;# 
   233  048F                     	;# 
   234  048F                     	;# 
   235  0490                     	;# 
   236  0491                     	;# 
   237  0492                     	;# 
   238  0492                     	;# 
   239  0493                     	;# 
   240  0494                     	;# 
   241  0495                     	;# 
   242  0495                     	;# 
   243  0496                     	;# 
   244  0497                     	;# 
   245  0498                     	;# 
   246  0499                     	;# 
   247  049A                     	;# 
   248  049B                     	;# 
   249  049C                     	;# 
   250  049D                     	;# 
   251  050C                     	;# 
   252  050C                     	;# 
   253  050D                     	;# 
   254  050E                     	;# 
   255  050F                     	;# 
   256  050F                     	;# 
   257  0510                     	;# 
   258  0511                     	;# 
   259  0512                     	;# 
   260  0512                     	;# 
   261  0513                     	;# 
   262  0514                     	;# 
   263  0515                     	;# 
   264  0515                     	;# 
   265  0516                     	;# 
   266  0517                     	;# 
   267  0518                     	;# 
   268  0519                     	;# 
   269  051A                     	;# 
   270  051B                     	;# 
   271  051C                     	;# 
   272  051D                     	;# 
   273  058C                     	;# 
   274  058C                     	;# 
   275  058D                     	;# 
   276  058E                     	;# 
   277  058F                     	;# 
   278  058F                     	;# 
   279  0590                     	;# 
   280  0591                     	;# 
   281  0592                     	;# 
   282  0593                     	;# 
   283  060C                     	;# 
   284  060D                     	;# 
   285  060E                     	;# 
   286  060F                     	;# 
   287  0610                     	;# 
   288  0611                     	;# 
   289  0612                     	;# 
   290  0613                     	;# 
   291  0614                     	;# 
   292  0616                     	;# 
   293  0617                     	;# 
   294  0618                     	;# 
   295  0619                     	;# 
   296  061A                     	;# 
   297  061B                     	;# 
   298  061C                     	;# 
   299  061D                     	;# 
   300  061E                     	;# 
   301  068C                     	;# 
   302  068D                     	;# 
   303  068E                     	;# 
   304  068F                     	;# 
   305  0690                     	;# 
   306  0691                     	;# 
   307  0692                     	;# 
   308  0693                     	;# 
   309  0694                     	;# 
   310  070C                     	;# 
   311  070D                     	;# 
   312  070E                     	;# 
   313  070F                     	;# 
   314  0710                     	;# 
   315  0711                     	;# 
   316  0712                     	;# 
   317  0713                     	;# 
   318  0714                     	;# 
   319  0716                     	;# 
   320  0717                     	;# 
   321  0718                     	;# 
   322  0719                     	;# 
   323  071A                     	;# 
   324  071B                     	;# 
   325  071C                     	;# 
   326  071D                     	;# 
   327  071E                     	;# 
   328  0796                     	;# 
   329  0797                     	;# 
   330  0798                     	;# 
   331  0799                     	;# 
   332  079A                     	;# 
   333  079B                     	;# 
   334  080C                     	;# 
   335  080D                     	;# 
   336  080E                     	;# 
   337  080F                     	;# 
   338  0810                     	;# 
   339  0811                     	;# 
   340  0812                     	;# 
   341  0813                     	;# 
   342  0814                     	;# 
   343  081A                     	;# 
   344  081B                     	;# 
   345  081C                     	;# 
   346  081D                     	;# 
   347  081E                     	;# 
   348  081F                     	;# 
   349  088C                     	;# 
   350  088D                     	;# 
   351  088E                     	;# 
   352  088F                     	;# 
   353  0890                     	;# 
   354  0891                     	;# 
   355  0892                     	;# 
   356  0893                     	;# 
   357  0895                     	;# 
   358  0896                     	;# 
   359  0897                     	;# 
   360  0898                     	;# 
   361  0899                     	;# 
   362  089A                     	;# 
   363  089B                     	;# 
   364  090C                     	;# 
   365  090E                     	;# 
   366  090F                     	;# 
   367  091F                     	;# 
   368  091F                     	;# 
   369  098F                     	;# 
   370  098F                     	;# 
   371  0990                     	;# 
   372  0991                     	;# 
   373  0992                     	;# 
   374  0993                     	;# 
   375  0994                     	;# 
   376  0995                     	;# 
   377  0996                     	;# 
   378  0997                     	;# 
   379  0E0F                     	;# 
   380  0E10                     	;# 
   381  0E11                     	;# 
   382  0E12                     	;# 
   383  0E13                     	;# 
   384  0E14                     	;# 
   385  0E15                     	;# 
   386  0E16                     	;# 
   387  0E17                     	;# 
   388  0E18                     	;# 
   389  0E19                     	;# 
   390  0E1A                     	;# 
   391  0E1B                     	;# 
   392  0E1C                     	;# 
   393  0E1D                     	;# 
   394  0E1E                     	;# 
   395  0E1F                     	;# 
   396  0E20                     	;# 
   397  0E21                     	;# 
   398  0E22                     	;# 
   399  0E23                     	;# 
   400  0E24                     	;# 
   401  0E25                     	;# 
   402  0E26                     	;# 
   403  0E27                     	;# 
   404  0E28                     	;# 
   405  0E29                     	;# 
   406  0E2A                     	;# 
   407  0E2B                     	;# 
   408  0E2C                     	;# 
   409  0E2D                     	;# 
   410  0E2E                     	;# 
   411  0E2F                     	;# 
   412  0E30                     	;# 
   413  0E31                     	;# 
   414  0E32                     	;# 
   415  0E33                     	;# 
   416  0E34                     	;# 
   417  0E35                     	;# 
   418  0E36                     	;# 
   419  0E37                     	;# 
   420  0E8F                     	;# 
   421  0E90                     	;# 
   422  0E91                     	;# 
   423  0E92                     	;# 
   424  0E93                     	;# 
   425  0E94                     	;# 
   426  0E95                     	;# 
   427  0E96                     	;# 
   428  0E97                     	;# 
   429  0E9C                     	;# 
   430  0E9D                     	;# 
   431  0E9E                     	;# 
   432  0EA1                     	;# 
   433  0EA2                     	;# 
   434  0EA3                     	;# 
   435  0EA4                     	;# 
   436  0EA5                     	;# 
   437  0EA9                     	;# 
   438  0EAA                     	;# 
   439  0EAB                     	;# 
   440  0EAC                     	;# 
   441  0EB1                     	;# 
   442  0EB2                     	;# 
   443  0EB3                     	;# 
   444  0EB8                     	;# 
   445  0EB9                     	;# 
   446  0EBA                     	;# 
   447  0EBB                     	;# 
   448  0EBC                     	;# 
   449  0EBD                     	;# 
   450  0EBE                     	;# 
   451  0EC3                     	;# 
   452  0EC5                     	;# 
   453  0EC6                     	;# 
   454  0EC7                     	;# 
   455  0EC8                     	;# 
   456  0EC9                     	;# 
   457  0ECA                     	;# 
   458  0ECB                     	;# 
   459  0ECC                     	;# 
   460  0F10                     	;# 
   461  0F11                     	;# 
   462  0F12                     	;# 
   463  0F13                     	;# 
   464  0F14                     	;# 
   465  0F15                     	;# 
   466  0F16                     	;# 
   467  0F17                     	;# 
   468  0F18                     	;# 
   469  0F19                     	;# 
   470  0F1A                     	;# 
   471  0F1B                     	;# 
   472  0F1C                     	;# 
   473  0F1D                     	;# 
   474  0F1E                     	;# 
   475  0F1F                     	;# 
   476  0F20                     	;# 
   477  0F21                     	;# 
   478  0F22                     	;# 
   479  0F23                     	;# 
   480  0F24                     	;# 
   481  0F25                     	;# 
   482  0F26                     	;# 
   483  0F27                     	;# 
   484  0F38                     	;# 
   485  0F39                     	;# 
   486  0F3A                     	;# 
   487  0F3B                     	;# 
   488  0F3C                     	;# 
   489  0F3D                     	;# 
   490  0F3E                     	;# 
   491  0F3F                     	;# 
   492  0F40                     	;# 
   493  0F41                     	;# 
   494  0F43                     	;# 
   495  0F44                     	;# 
   496  0F45                     	;# 
   497  0F46                     	;# 
   498  0F47                     	;# 
   499  0F48                     	;# 
   500  0F49                     	;# 
   501  0F4A                     	;# 
   502  0F4B                     	;# 
   503  0F4C                     	;# 
   504  0F4E                     	;# 
   505  0F4F                     	;# 
   506  0F50                     	;# 
   507  0F51                     	;# 
   508  0F52                     	;# 
   509  0F53                     	;# 
   510  0F54                     	;# 
   511  0F55                     	;# 
   512  0F56                     	;# 
   513  0F57                     	;# 
   514  0F65                     	;# 
   515  0F68                     	;# 
   516  0F69                     	;# 
   517  0F6A                     	;# 
   518  0F6B                     	;# 
   519  0FE4                     	;# 
   520  0FE5                     	;# 
   521  0FE6                     	;# 
   522  0FE7                     	;# 
   523  0FE8                     	;# 
   524  0FE9                     	;# 
   525  0FEA                     	;# 
   526  0FEB                     	;# 
   527  0FED                     	;# 
   528  0FEE                     	;# 
   529  0FEF                     	;# 
   530  0000                     	;# 
   531  0001                     	;# 
   532  0002                     	;# 
   533  0003                     	;# 
   534  0004                     	;# 
   535  0005                     	;# 
   536  0006                     	;# 
   537  0007                     	;# 
   538  0008                     	;# 
   539  0009                     	;# 
   540  000A                     	;# 
   541  000B                     	;# 
   542  000C                     	;# 
   543  000D                     	;# 
   544  000E                     	;# 
   545  0010                     	;# 
   546  0011                     	;# 
   547  0012                     	;# 
   548  0013                     	;# 
   549  0016                     	;# 
   550  0017                     	;# 
   551  0018                     	;# 
   552  001C                     	;# 
   553  001C                     	;# 
   554  001D                     	;# 
   555  001D                     	;# 
   556  001E                     	;# 
   557  001F                     	;# 
   558  008C                     	;# 
   559  008C                     	;# 
   560  008D                     	;# 
   561  008E                     	;# 
   562  008E                     	;# 
   563  008F                     	;# 
   564  0090                     	;# 
   565  0090                     	;# 
   566  0091                     	;# 
   567  0093                     	;# 
   568  0094                     	;# 
   569  0095                     	;# 
   570  0096                     	;# 
   571  0097                     	;# 
   572  0098                     	;# 
   573  0099                     	;# 
   574  009A                     	;# 
   575  009B                     	;# 
   576  009C                     	;# 
   577  009D                     	;# 
   578  009E                     	;# 
   579  010C                     	;# 
   580  010D                     	;# 
   581  010E                     	;# 
   582  010E                     	;# 
   583  010F                     	;# 
   584  0110                     	;# 
   585  0110                     	;# 
   586  0111                     	;# 
   587  0112                     	;# 
   588  0112                     	;# 
   589  0113                     	;# 
   590  0114                     	;# 
   591  0114                     	;# 
   592  0115                     	;# 
   593  0116                     	;# 
   594  0116                     	;# 
   595  0117                     	;# 
   596  0119                     	;# 
   597  0119                     	;# 
   598  0119                     	;# 
   599  011A                     	;# 
   600  011A                     	;# 
   601  011A                     	;# 
   602  011B                     	;# 
   603  011B                     	;# 
   604  011B                     	;# 
   605  011B                     	;# 
   606  011B                     	;# 
   607  011C                     	;# 
   608  011C                     	;# 
   609  011C                     	;# 
   610  011D                     	;# 
   611  011D                     	;# 
   612  011D                     	;# 
   613  011E                     	;# 
   614  011E                     	;# 
   615  011E                     	;# 
   616  011F                     	;# 
   617  011F                     	;# 
   618  011F                     	;# 
   619  011F                     	;# 
   620  011F                     	;# 
   621  018C                     	;# 
   622  018D                     	;# 
   623  018E                     	;# 
   624  018F                     	;# 
   625  0190                     	;# 
   626  0191                     	;# 
   627  0192                     	;# 
   628  0196                     	;# 
   629  0197                     	;# 
   630  0198                     	;# 
   631  0199                     	;# 
   632  019A                     	;# 
   633  019B                     	;# 
   634  019C                     	;# 
   635  020C                     	;# 
   636  020D                     	;# 
   637  020E                     	;# 
   638  020F                     	;# 
   639  020F                     	;# 
   640  0210                     	;# 
   641  0210                     	;# 
   642  0211                     	;# 
   643  0211                     	;# 
   644  0212                     	;# 
   645  0213                     	;# 
   646  0214                     	;# 
   647  0215                     	;# 
   648  0215                     	;# 
   649  0216                     	;# 
   650  0216                     	;# 
   651  0217                     	;# 
   652  0217                     	;# 
   653  0218                     	;# 
   654  0219                     	;# 
   655  021A                     	;# 
   656  021B                     	;# 
   657  021B                     	;# 
   658  021C                     	;# 
   659  021C                     	;# 
   660  021D                     	;# 
   661  021D                     	;# 
   662  021E                     	;# 
   663  021F                     	;# 
   664  028C                     	;# 
   665  028C                     	;# 
   666  028D                     	;# 
   667  028D                     	;# 
   668  028E                     	;# 
   669  028F                     	;# 
   670  0290                     	;# 
   671  0290                     	;# 
   672  0291                     	;# 
   673  0292                     	;# 
   674  0292                     	;# 
   675  0293                     	;# 
   676  0293                     	;# 
   677  0294                     	;# 
   678  0295                     	;# 
   679  0296                     	;# 
   680  0296                     	;# 
   681  0297                     	;# 
   682  0298                     	;# 
   683  0298                     	;# 
   684  0299                     	;# 
   685  0299                     	;# 
   686  029A                     	;# 
   687  029B                     	;# 
   688  029C                     	;# 
   689  029C                     	;# 
   690  029D                     	;# 
   691  030C                     	;# 
   692  030C                     	;# 
   693  030D                     	;# 
   694  030E                     	;# 
   695  030F                     	;# 
   696  0310                     	;# 
   697  0310                     	;# 
   698  0311                     	;# 
   699  0312                     	;# 
   700  0313                     	;# 
   701  0314                     	;# 
   702  0314                     	;# 
   703  0315                     	;# 
   704  0316                     	;# 
   705  0317                     	;# 
   706  0318                     	;# 
   707  0318                     	;# 
   708  0319                     	;# 
   709  031A                     	;# 
   710  031B                     	;# 
   711  031C                     	;# 
   712  031C                     	;# 
   713  031D                     	;# 
   714  031E                     	;# 
   715  031F                     	;# 
   716  038C                     	;# 
   717  038D                     	;# 
   718  038E                     	;# 
   719  0390                     	;# 
   720  0391                     	;# 
   721  0392                     	;# 
   722  040C                     	;# 
   723  040D                     	;# 
   724  040E                     	;# 
   725  040F                     	;# 
   726  0410                     	;# 
   727  0411                     	;# 
   728  0416                     	;# 
   729  0416                     	;# 
   730  0417                     	;# 
   731  0418                     	;# 
   732  0418                     	;# 
   733  0419                     	;# 
   734  041A                     	;# 
   735  041A                     	;# 
   736  041B                     	;# 
   737  041C                     	;# 
   738  041C                     	;# 
   739  041D                     	;# 
   740  041E                     	;# 
   741  041F                     	;# 
   742  048C                     	;# 
   743  048C                     	;# 
   744  048D                     	;# 
   745  048E                     	;# 
   746  048F                     	;# 
   747  048F                     	;# 
   748  0490                     	;# 
   749  0491                     	;# 
   750  0492                     	;# 
   751  0492                     	;# 
   752  0493                     	;# 
   753  0494                     	;# 
   754  0495                     	;# 
   755  0495                     	;# 
   756  0496                     	;# 
   757  0497                     	;# 
   758  0498                     	;# 
   759  0499                     	;# 
   760  049A                     	;# 
   761  049B                     	;# 
   762  049C                     	;# 
   763  049D                     	;# 
   764  050C                     	;# 
   765  050C                     	;# 
   766  050D                     	;# 
   767  050E                     	;# 
   768  050F                     	;# 
   769  050F                     	;# 
   770  0510                     	;# 
   771  0511                     	;# 
   772  0512                     	;# 
   773  0512                     	;# 
   774  0513                     	;# 
   775  0514                     	;# 
   776  0515                     	;# 
   777  0515                     	;# 
   778  0516                     	;# 
   779  0517                     	;# 
   780  0518                     	;# 
   781  0519                     	;# 
   782  051A                     	;# 
   783  051B                     	;# 
   784  051C                     	;# 
   785  051D                     	;# 
   786  058C                     	;# 
   787  058C                     	;# 
   788  058D                     	;# 
   789  058E                     	;# 
   790  058F                     	;# 
   791  058F                     	;# 
   792  0590                     	;# 
   793  0591                     	;# 
   794  0592                     	;# 
   795  0593                     	;# 
   796  060C                     	;# 
   797  060D                     	;# 
   798  060E                     	;# 
   799  060F                     	;# 
   800  0610                     	;# 
   801  0611                     	;# 
   802  0612                     	;# 
   803  0613                     	;# 
   804  0614                     	;# 
   805  0616                     	;# 
   806  0617                     	;# 
   807  0618                     	;# 
   808  0619                     	;# 
   809  061A                     	;# 
   810  061B                     	;# 
   811  061C                     	;# 
   812  061D                     	;# 
   813  061E                     	;# 
   814  068C                     	;# 
   815  068D                     	;# 
   816  068E                     	;# 
   817  068F                     	;# 
   818  0690                     	;# 
   819  0691                     	;# 
   820  0692                     	;# 
   821  0693                     	;# 
   822  0694                     	;# 
   823  070C                     	;# 
   824  070D                     	;# 
   825  070E                     	;# 
   826  070F                     	;# 
   827  0710                     	;# 
   828  0711                     	;# 
   829  0712                     	;# 
   830  0713                     	;# 
   831  0714                     	;# 
   832  0716                     	;# 
   833  0717                     	;# 
   834  0718                     	;# 
   835  0719                     	;# 
   836  071A                     	;# 
   837  071B                     	;# 
   838  071C                     	;# 
   839  071D                     	;# 
   840  071E                     	;# 
   841  0796                     	;# 
   842  0797                     	;# 
   843  0798                     	;# 
   844  0799                     	;# 
   845  079A                     	;# 
   846  079B                     	;# 
   847  080C                     	;# 
   848  080D                     	;# 
   849  080E                     	;# 
   850  080F                     	;# 
   851  0810                     	;# 
   852  0811                     	;# 
   853  0812                     	;# 
   854  0813                     	;# 
   855  0814                     	;# 
   856  081A                     	;# 
   857  081B                     	;# 
   858  081C                     	;# 
   859  081D                     	;# 
   860  081E                     	;# 
   861  081F                     	;# 
   862  088C                     	;# 
   863  088D                     	;# 
   864  088E                     	;# 
   865  088F                     	;# 
   866  0890                     	;# 
   867  0891                     	;# 
   868  0892                     	;# 
   869  0893                     	;# 
   870  0895                     	;# 
   871  0896                     	;# 
   872  0897                     	;# 
   873  0898                     	;# 
   874  0899                     	;# 
   875  089A                     	;# 
   876  089B                     	;# 
   877  090C                     	;# 
   878  090E                     	;# 
   879  090F                     	;# 
   880  091F                     	;# 
   881  091F                     	;# 
   882  098F                     	;# 
   883  098F                     	;# 
   884  0990                     	;# 
   885  0991                     	;# 
   886  0992                     	;# 
   887  0993                     	;# 
   888  0994                     	;# 
   889  0995                     	;# 
   890  0996                     	;# 
   891  0997                     	;# 
   892  0E0F                     	;# 
   893  0E10                     	;# 
   894  0E11                     	;# 
   895  0E12                     	;# 
   896  0E13                     	;# 
   897  0E14                     	;# 
   898  0E15                     	;# 
   899  0E16                     	;# 
   900  0E17                     	;# 
   901  0E18                     	;# 
   902  0E19                     	;# 
   903  0E1A                     	;# 
   904  0E1B                     	;# 
   905  0E1C                     	;# 
   906  0E1D                     	;# 
   907  0E1E                     	;# 
   908  0E1F                     	;# 
   909  0E20                     	;# 
   910  0E21                     	;# 
   911  0E22                     	;# 
   912  0E23                     	;# 
   913  0E24                     	;# 
   914  0E25                     	;# 
   915  0E26                     	;# 
   916  0E27                     	;# 
   917  0E28                     	;# 
   918  0E29                     	;# 
   919  0E2A                     	;# 
   920  0E2B                     	;# 
   921  0E2C                     	;# 
   922  0E2D                     	;# 
   923  0E2E                     	;# 
   924  0E2F                     	;# 
   925  0E30                     	;# 
   926  0E31                     	;# 
   927  0E32                     	;# 
   928  0E33                     	;# 
   929  0E34                     	;# 
   930  0E35                     	;# 
   931  0E36                     	;# 
   932  0E37                     	;# 
   933  0E8F                     	;# 
   934  0E90                     	;# 
   935  0E91                     	;# 
   936  0E92                     	;# 
   937  0E93                     	;# 
   938  0E94                     	;# 
   939  0E95                     	;# 
   940  0E96                     	;# 
   941  0E97                     	;# 
   942  0E9C                     	;# 
   943  0E9D                     	;# 
   944  0E9E                     	;# 
   945  0EA1                     	;# 
   946  0EA2                     	;# 
   947  0EA3                     	;# 
   948  0EA4                     	;# 
   949  0EA5                     	;# 
   950  0EA9                     	;# 
   951  0EAA                     	;# 
   952  0EAB                     	;# 
   953  0EAC                     	;# 
   954  0EB1                     	;# 
   955  0EB2                     	;# 
   956  0EB3                     	;# 
   957  0EB8                     	;# 
   958  0EB9                     	;# 
   959  0EBA                     	;# 
   960  0EBB                     	;# 
   961  0EBC                     	;# 
   962  0EBD                     	;# 
   963  0EBE                     	;# 
   964  0EC3                     	;# 
   965  0EC5                     	;# 
   966  0EC6                     	;# 
   967  0EC7                     	;# 
   968  0EC8                     	;# 
   969  0EC9                     	;# 
   970  0ECA                     	;# 
   971  0ECB                     	;# 
   972  0ECC                     	;# 
   973  0F10                     	;# 
   974  0F11                     	;# 
   975  0F12                     	;# 
   976  0F13                     	;# 
   977  0F14                     	;# 
   978  0F15                     	;# 
   979  0F16                     	;# 
   980  0F17                     	;# 
   981  0F18                     	;# 
   982  0F19                     	;# 
   983  0F1A                     	;# 
   984  0F1B                     	;# 
   985  0F1C                     	;# 
   986  0F1D                     	;# 
   987  0F1E                     	;# 
   988  0F1F                     	;# 
   989  0F20                     	;# 
   990  0F21                     	;# 
   991  0F22                     	;# 
   992  0F23                     	;# 
   993  0F24                     	;# 
   994  0F25                     	;# 
   995  0F26                     	;# 
   996  0F27                     	;# 
   997  0F38                     	;# 
   998  0F39                     	;# 
   999  0F3A                     	;# 
  1000  0F3B                     	;# 
  1001  0F3C                     	;# 
  1002  0F3D                     	;# 
  1003  0F3E                     	;# 
  1004  0F3F                     	;# 
  1005  0F40                     	;# 
  1006  0F41                     	;# 
  1007  0F43                     	;# 
  1008  0F44                     	;# 
  1009  0F45                     	;# 
  1010  0F46                     	;# 
  1011  0F47                     	;# 
  1012  0F48                     	;# 
  1013  0F49                     	;# 
  1014  0F4A                     	;# 
  1015  0F4B                     	;# 
  1016  0F4C                     	;# 
  1017  0F4E                     	;# 
  1018  0F4F                     	;# 
  1019  0F50                     	;# 
  1020  0F51                     	;# 
  1021  0F52                     	;# 
  1022  0F53                     	;# 
  1023  0F54                     	;# 
  1024  0F55                     	;# 
  1025  0F56                     	;# 
  1026  0F57                     	;# 
  1027  0F65                     	;# 
  1028  0F68                     	;# 
  1029  0F69                     	;# 
  1030  0F6A                     	;# 
  1031  0F6B                     	;# 
  1032  0FE4                     	;# 
  1033  0FE5                     	;# 
  1034  0FE6                     	;# 
  1035  0FE7                     	;# 
  1036  0FE8                     	;# 
  1037  0FE9                     	;# 
  1038  0FEA                     	;# 
  1039  0FEB                     	;# 
  1040  0FED                     	;# 
  1041  0FEE                     	;# 
  1042  0FEF                     	;# 
  1043  0000                     	;# 
  1044  0001                     	;# 
  1045  0002                     	;# 
  1046  0003                     	;# 
  1047  0004                     	;# 
  1048  0005                     	;# 
  1049  0006                     	;# 
  1050  0007                     	;# 
  1051  0008                     	;# 
  1052  0009                     	;# 
  1053  000A                     	;# 
  1054  000B                     	;# 
  1055  000C                     	;# 
  1056  000D                     	;# 
  1057  000E                     	;# 
  1058  0010                     	;# 
  1059  0011                     	;# 
  1060  0012                     	;# 
  1061  0013                     	;# 
  1062  0016                     	;# 
  1063  0017                     	;# 
  1064  0018                     	;# 
  1065  001C                     	;# 
  1066  001C                     	;# 
  1067  001D                     	;# 
  1068  001D                     	;# 
  1069  001E                     	;# 
  1070  001F                     	;# 
  1071  008C                     	;# 
  1072  008C                     	;# 
  1073  008D                     	;# 
  1074  008E                     	;# 
  1075  008E                     	;# 
  1076  008F                     	;# 
  1077  0090                     	;# 
  1078  0090                     	;# 
  1079  0091                     	;# 
  1080  0093                     	;# 
  1081  0094                     	;# 
  1082  0095                     	;# 
  1083  0096                     	;# 
  1084  0097                     	;# 
  1085  0098                     	;# 
  1086  0099                     	;# 
  1087  009A                     	;# 
  1088  009B                     	;# 
  1089  009C                     	;# 
  1090  009D                     	;# 
  1091  009E                     	;# 
  1092  010C                     	;# 
  1093  010D                     	;# 
  1094  010E                     	;# 
  1095  010E                     	;# 
  1096  010F                     	;# 
  1097  0110                     	;# 
  1098  0110                     	;# 
  1099  0111                     	;# 
  1100  0112                     	;# 
  1101  0112                     	;# 
  1102  0113                     	;# 
  1103  0114                     	;# 
  1104  0114                     	;# 
  1105  0115                     	;# 
  1106  0116                     	;# 
  1107  0116                     	;# 
  1108  0117                     	;# 
  1109  0119                     	;# 
  1110  0119                     	;# 
  1111  0119                     	;# 
  1112  011A                     	;# 
  1113  011A                     	;# 
  1114  011A                     	;# 
  1115  011B                     	;# 
  1116  011B                     	;# 
  1117  011B                     	;# 
  1118  011B                     	;# 
  1119  011B                     	;# 
  1120  011C                     	;# 
  1121  011C                     	;# 
  1122  011C                     	;# 
  1123  011D                     	;# 
  1124  011D                     	;# 
  1125  011D                     	;# 
  1126  011E                     	;# 
  1127  011E                     	;# 
  1128  011E                     	;# 
  1129  011F                     	;# 
  1130  011F                     	;# 
  1131  011F                     	;# 
  1132  011F                     	;# 
  1133  011F                     	;# 
  1134  018C                     	;# 
  1135  018D                     	;# 
  1136  018E                     	;# 
  1137  018F                     	;# 
  1138  0190                     	;# 
  1139  0191                     	;# 
  1140  0192                     	;# 
  1141  0196                     	;# 
  1142  0197                     	;# 
  1143  0198                     	;# 
  1144  0199                     	;# 
  1145  019A                     	;# 
  1146  019B                     	;# 
  1147  019C                     	;# 
  1148  020C                     	;# 
  1149  020D                     	;# 
  1150  020E                     	;# 
  1151  020F                     	;# 
  1152  020F                     	;# 
  1153  0210                     	;# 
  1154  0210                     	;# 
  1155  0211                     	;# 
  1156  0211                     	;# 
  1157  0212                     	;# 
  1158  0213                     	;# 
  1159  0214                     	;# 
  1160  0215                     	;# 
  1161  0215                     	;# 
  1162  0216                     	;# 
  1163  0216                     	;# 
  1164  0217                     	;# 
  1165  0217                     	;# 
  1166  0218                     	;# 
  1167  0219                     	;# 
  1168  021A                     	;# 
  1169  021B                     	;# 
  1170  021B                     	;# 
  1171  021C                     	;# 
  1172  021C                     	;# 
  1173  021D                     	;# 
  1174  021D                     	;# 
  1175  021E                     	;# 
  1176  021F                     	;# 
  1177  028C                     	;# 
  1178  028C                     	;# 
  1179  028D                     	;# 
  1180  028D                     	;# 
  1181  028E                     	;# 
  1182  028F                     	;# 
  1183  0290                     	;# 
  1184  0290                     	;# 
  1185  0291                     	;# 
  1186  0292                     	;# 
  1187  0292                     	;# 
  1188  0293                     	;# 
  1189  0293                     	;# 
  1190  0294                     	;# 
  1191  0295                     	;# 
  1192  0296                     	;# 
  1193  0296                     	;# 
  1194  0297                     	;# 
  1195  0298                     	;# 
  1196  0298                     	;# 
  1197  0299                     	;# 
  1198  0299                     	;# 
  1199  029A                     	;# 
  1200  029B                     	;# 
  1201  029C                     	;# 
  1202  029C                     	;# 
  1203  029D                     	;# 
  1204  030C                     	;# 
  1205  030C                     	;# 
  1206  030D                     	;# 
  1207  030E                     	;# 
  1208  030F                     	;# 
  1209  0310                     	;# 
  1210  0310                     	;# 
  1211  0311                     	;# 
  1212  0312                     	;# 
  1213  0313                     	;# 
  1214  0314                     	;# 
  1215  0314                     	;# 
  1216  0315                     	;# 
  1217  0316                     	;# 
  1218  0317                     	;# 
  1219  0318                     	;# 
  1220  0318                     	;# 
  1221  0319                     	;# 
  1222  031A                     	;# 
  1223  031B                     	;# 
  1224  031C                     	;# 
  1225  031C                     	;# 
  1226  031D                     	;# 
  1227  031E                     	;# 
  1228  031F                     	;# 
  1229  038C                     	;# 
  1230  038D                     	;# 
  1231  038E                     	;# 
  1232  0390                     	;# 
  1233  0391                     	;# 
  1234  0392                     	;# 
  1235  040C                     	;# 
  1236  040D                     	;# 
  1237  040E                     	;# 
  1238  040F                     	;# 
  1239  0410                     	;# 
  1240  0411                     	;# 
  1241  0416                     	;# 
  1242  0416                     	;# 
  1243  0417                     	;# 
  1244  0418                     	;# 
  1245  0418                     	;# 
  1246  0419                     	;# 
  1247  041A                     	;# 
  1248  041A                     	;# 
  1249  041B                     	;# 
  1250  041C                     	;# 
  1251  041C                     	;# 
  1252  041D                     	;# 
  1253  041E                     	;# 
  1254  041F                     	;# 
  1255  048C                     	;# 
  1256  048C                     	;# 
  1257  048D                     	;# 
  1258  048E                     	;# 
  1259  048F                     	;# 
  1260  048F                     	;# 
  1261  0490                     	;# 
  1262  0491                     	;# 
  1263  0492                     	;# 
  1264  0492                     	;# 
  1265  0493                     	;# 
  1266  0494                     	;# 
  1267  0495                     	;# 
  1268  0495                     	;# 
  1269  0496                     	;# 
  1270  0497                     	;# 
  1271  0498                     	;# 
  1272  0499                     	;# 
  1273  049A                     	;# 
  1274  049B                     	;# 
  1275  049C                     	;# 
  1276  049D                     	;# 
  1277  050C                     	;# 
  1278  050C                     	;# 
  1279  050D                     	;# 
  1280  050E                     	;# 
  1281  050F                     	;# 
  1282  050F                     	;# 
  1283  0510                     	;# 
  1284  0511                     	;# 
  1285  0512                     	;# 
  1286  0512                     	;# 
  1287  0513                     	;# 
  1288  0514                     	;# 
  1289  0515                     	;# 
  1290  0515                     	;# 
  1291  0516                     	;# 
  1292  0517                     	;# 
  1293  0518                     	;# 
  1294  0519                     	;# 
  1295  051A                     	;# 
  1296  051B                     	;# 
  1297  051C                     	;# 
  1298  051D                     	;# 
  1299  058C                     	;# 
  1300  058C                     	;# 
  1301  058D                     	;# 
  1302  058E                     	;# 
  1303  058F                     	;# 
  1304  058F                     	;# 
  1305  0590                     	;# 
  1306  0591                     	;# 
  1307  0592                     	;# 
  1308  0593                     	;# 
  1309  060C                     	;# 
  1310  060D                     	;# 
  1311  060E                     	;# 
  1312  060F                     	;# 
  1313  0610                     	;# 
  1314  0611                     	;# 
  1315  0612                     	;# 
  1316  0613                     	;# 
  1317  0614                     	;# 
  1318  0616                     	;# 
  1319  0617                     	;# 
  1320  0618                     	;# 
  1321  0619                     	;# 
  1322  061A                     	;# 
  1323  061B                     	;# 
  1324  061C                     	;# 
  1325  061D                     	;# 
  1326  061E                     	;# 
  1327  068C                     	;# 
  1328  068D                     	;# 
  1329  068E                     	;# 
  1330  068F                     	;# 
  1331  0690                     	;# 
  1332  0691                     	;# 
  1333  0692                     	;# 
  1334  0693                     	;# 
  1335  0694                     	;# 
  1336  070C                     	;# 
  1337  070D                     	;# 
  1338  070E                     	;# 
  1339  070F                     	;# 
  1340  0710                     	;# 
  1341  0711                     	;# 
  1342  0712                     	;# 
  1343  0713                     	;# 
  1344  0714                     	;# 
  1345  0716                     	;# 
  1346  0717                     	;# 
  1347  0718                     	;# 
  1348  0719                     	;# 
  1349  071A                     	;# 
  1350  071B                     	;# 
  1351  071C                     	;# 
  1352  071D                     	;# 
  1353  071E                     	;# 
  1354  0796                     	;# 
  1355  0797                     	;# 
  1356  0798                     	;# 
  1357  0799                     	;# 
  1358  079A                     	;# 
  1359  079B                     	;# 
  1360  080C                     	;# 
  1361  080D                     	;# 
  1362  080E                     	;# 
  1363  080F                     	;# 
  1364  0810                     	;# 
  1365  0811                     	;# 
  1366  0812                     	;# 
  1367  0813                     	;# 
  1368  0814                     	;# 
  1369  081A                     	;# 
  1370  081B                     	;# 
  1371  081C                     	;# 
  1372  081D                     	;# 
  1373  081E                     	;# 
  1374  081F                     	;# 
  1375  088C                     	;# 
  1376  088D                     	;# 
  1377  088E                     	;# 
  1378  088F                     	;# 
  1379  0890                     	;# 
  1380  0891                     	;# 
  1381  0892                     	;# 
  1382  0893                     	;# 
  1383  0895                     	;# 
  1384  0896                     	;# 
  1385  0897                     	;# 
  1386  0898                     	;# 
  1387  0899                     	;# 
  1388  089A                     	;# 
  1389  089B                     	;# 
  1390  090C                     	;# 
  1391  090E                     	;# 
  1392  090F                     	;# 
  1393  091F                     	;# 
  1394  091F                     	;# 
  1395  098F                     	;# 
  1396  098F                     	;# 
  1397  0990                     	;# 
  1398  0991                     	;# 
  1399  0992                     	;# 
  1400  0993                     	;# 
  1401  0994                     	;# 
  1402  0995                     	;# 
  1403  0996                     	;# 
  1404  0997                     	;# 
  1405  0E0F                     	;# 
  1406  0E10                     	;# 
  1407  0E11                     	;# 
  1408  0E12                     	;# 
  1409  0E13                     	;# 
  1410  0E14                     	;# 
  1411  0E15                     	;# 
  1412  0E16                     	;# 
  1413  0E17                     	;# 
  1414  0E18                     	;# 
  1415  0E19                     	;# 
  1416  0E1A                     	;# 
  1417  0E1B                     	;# 
  1418  0E1C                     	;# 
  1419  0E1D                     	;# 
  1420  0E1E                     	;# 
  1421  0E1F                     	;# 
  1422  0E20                     	;# 
  1423  0E21                     	;# 
  1424  0E22                     	;# 
  1425  0E23                     	;# 
  1426  0E24                     	;# 
  1427  0E25                     	;# 
  1428  0E26                     	;# 
  1429  0E27                     	;# 
  1430  0E28                     	;# 
  1431  0E29                     	;# 
  1432  0E2A                     	;# 
  1433  0E2B                     	;# 
  1434  0E2C                     	;# 
  1435  0E2D                     	;# 
  1436  0E2E                     	;# 
  1437  0E2F                     	;# 
  1438  0E30                     	;# 
  1439  0E31                     	;# 
  1440  0E32                     	;# 
  1441  0E33                     	;# 
  1442  0E34                     	;# 
  1443  0E35                     	;# 
  1444  0E36                     	;# 
  1445  0E37                     	;# 
  1446  0E8F                     	;# 
  1447  0E90                     	;# 
  1448  0E91                     	;# 
  1449  0E92                     	;# 
  1450  0E93                     	;# 
  1451  0E94                     	;# 
  1452  0E95                     	;# 
  1453  0E96                     	;# 
  1454  0E97                     	;# 
  1455  0E9C                     	;# 
  1456  0E9D                     	;# 
  1457  0E9E                     	;# 
  1458  0EA1                     	;# 
  1459  0EA2                     	;# 
  1460  0EA3                     	;# 
  1461  0EA4                     	;# 
  1462  0EA5                     	;# 
  1463  0EA9                     	;# 
  1464  0EAA                     	;# 
  1465  0EAB                     	;# 
  1466  0EAC                     	;# 
  1467  0EB1                     	;# 
  1468  0EB2                     	;# 
  1469  0EB3                     	;# 
  1470  0EB8                     	;# 
  1471  0EB9                     	;# 
  1472  0EBA                     	;# 
  1473  0EBB                     	;# 
  1474  0EBC                     	;# 
  1475  0EBD                     	;# 
  1476  0EBE                     	;# 
  1477  0EC3                     	;# 
  1478  0EC5                     	;# 
  1479  0EC6                     	;# 
  1480  0EC7                     	;# 
  1481  0EC8                     	;# 
  1482  0EC9                     	;# 
  1483  0ECA                     	;# 
  1484  0ECB                     	;# 
  1485  0ECC                     	;# 
  1486  0F10                     	;# 
  1487  0F11                     	;# 
  1488  0F12                     	;# 
  1489  0F13                     	;# 
  1490  0F14                     	;# 
  1491  0F15                     	;# 
  1492  0F16                     	;# 
  1493  0F17                     	;# 
  1494  0F18                     	;# 
  1495  0F19                     	;# 
  1496  0F1A                     	;# 
  1497  0F1B                     	;# 
  1498  0F1C                     	;# 
  1499  0F1D                     	;# 
  1500  0F1E                     	;# 
  1501  0F1F                     	;# 
  1502  0F20                     	;# 
  1503  0F21                     	;# 
  1504  0F22                     	;# 
  1505  0F23                     	;# 
  1506  0F24                     	;# 
  1507  0F25                     	;# 
  1508  0F26                     	;# 
  1509  0F27                     	;# 
  1510  0F38                     	;# 
  1511  0F39                     	;# 
  1512  0F3A                     	;# 
  1513  0F3B                     	;# 
  1514  0F3C                     	;# 
  1515  0F3D                     	;# 
  1516  0F3E                     	;# 
  1517  0F3F                     	;# 
  1518  0F40                     	;# 
  1519  0F41                     	;# 
  1520  0F43                     	;# 
  1521  0F44                     	;# 
  1522  0F45                     	;# 
  1523  0F46                     	;# 
  1524  0F47                     	;# 
  1525  0F48                     	;# 
  1526  0F49                     	;# 
  1527  0F4A                     	;# 
  1528  0F4B                     	;# 
  1529  0F4C                     	;# 
  1530  0F4E                     	;# 
  1531  0F4F                     	;# 
  1532  0F50                     	;# 
  1533  0F51                     	;# 
  1534  0F52                     	;# 
  1535  0F53                     	;# 
  1536  0F54                     	;# 
  1537  0F55                     	;# 
  1538  0F56                     	;# 
  1539  0F57                     	;# 
  1540  0F65                     	;# 
  1541  0F68                     	;# 
  1542  0F69                     	;# 
  1543  0F6A                     	;# 
  1544  0F6B                     	;# 
  1545  0FE4                     	;# 
  1546  0FE5                     	;# 
  1547  0FE6                     	;# 
  1548  0FE7                     	;# 
  1549  0FE8                     	;# 
  1550  0FE9                     	;# 
  1551  0FEA                     	;# 
  1552  0FEB                     	;# 
  1553  0FED                     	;# 
  1554  0FEE                     	;# 
  1555  0FEF                     	;# 
  1556  0000                     	;# 
  1557  0001                     	;# 
  1558  0002                     	;# 
  1559  0003                     	;# 
  1560  0004                     	;# 
  1561  0005                     	;# 
  1562  0006                     	;# 
  1563  0007                     	;# 
  1564  0008                     	;# 
  1565  0009                     	;# 
  1566  000A                     	;# 
  1567  000B                     	;# 
  1568  000C                     	;# 
  1569  000D                     	;# 
  1570  000E                     	;# 
  1571  0010                     	;# 
  1572  0011                     	;# 
  1573  0012                     	;# 
  1574  0013                     	;# 
  1575  0016                     	;# 
  1576  0017                     	;# 
  1577  0018                     	;# 
  1578  001C                     	;# 
  1579  001C                     	;# 
  1580  001D                     	;# 
  1581  001D                     	;# 
  1582  001E                     	;# 
  1583  001F                     	;# 
  1584  008C                     	;# 
  1585  008C                     	;# 
  1586  008D                     	;# 
  1587  008E                     	;# 
  1588  008E                     	;# 
  1589  008F                     	;# 
  1590  0090                     	;# 
  1591  0090                     	;# 
  1592  0091                     	;# 
  1593  0093                     	;# 
  1594  0094                     	;# 
  1595  0095                     	;# 
  1596  0096                     	;# 
  1597  0097                     	;# 
  1598  0098                     	;# 
  1599  0099                     	;# 
  1600  009A                     	;# 
  1601  009B                     	;# 
  1602  009C                     	;# 
  1603  009D                     	;# 
  1604  009E                     	;# 
  1605  010C                     	;# 
  1606  010D                     	;# 
  1607  010E                     	;# 
  1608  010E                     	;# 
  1609  010F                     	;# 
  1610  0110                     	;# 
  1611  0110                     	;# 
  1612  0111                     	;# 
  1613  0112                     	;# 
  1614  0112                     	;# 
  1615  0113                     	;# 
  1616  0114                     	;# 
  1617  0114                     	;# 
  1618  0115                     	;# 
  1619  0116                     	;# 
  1620  0116                     	;# 
  1621  0117                     	;# 
  1622  0119                     	;# 
  1623  0119                     	;# 
  1624  0119                     	;# 
  1625  011A                     	;# 
  1626  011A                     	;# 
  1627  011A                     	;# 
  1628  011B                     	;# 
  1629  011B                     	;# 
  1630  011B                     	;# 
  1631  011B                     	;# 
  1632  011B                     	;# 
  1633  011C                     	;# 
  1634  011C                     	;# 
  1635  011C                     	;# 
  1636  011D                     	;# 
  1637  011D                     	;# 
  1638  011D                     	;# 
  1639  011E                     	;# 
  1640  011E                     	;# 
  1641  011E                     	;# 
  1642  011F                     	;# 
  1643  011F                     	;# 
  1644  011F                     	;# 
  1645  011F                     	;# 
  1646  011F                     	;# 
  1647  018C                     	;# 
  1648  018D                     	;# 
  1649  018E                     	;# 
  1650  018F                     	;# 
  1651  0190                     	;# 
  1652  0191                     	;# 
  1653  0192                     	;# 
  1654  0196                     	;# 
  1655  0197                     	;# 
  1656  0198                     	;# 
  1657  0199                     	;# 
  1658  019A                     	;# 
  1659  019B                     	;# 
  1660  019C                     	;# 
  1661  020C                     	;# 
  1662  020D                     	;# 
  1663  020E                     	;# 
  1664  020F                     	;# 
  1665  020F                     	;# 
  1666  0210                     	;# 
  1667  0210                     	;# 
  1668  0211                     	;# 
  1669  0211                     	;# 
  1670  0212                     	;# 
  1671  0213                     	;# 
  1672  0214                     	;# 
  1673  0215                     	;# 
  1674  0215                     	;# 
  1675  0216                     	;# 
  1676  0216                     	;# 
  1677  0217                     	;# 
  1678  0217                     	;# 
  1679  0218                     	;# 
  1680  0219                     	;# 
  1681  021A                     	;# 
  1682  021B                     	;# 
  1683  021B                     	;# 
  1684  021C                     	;# 
  1685  021C                     	;# 
  1686  021D                     	;# 
  1687  021D                     	;# 
  1688  021E                     	;# 
  1689  021F                     	;# 
  1690  028C                     	;# 
  1691  028C                     	;# 
  1692  028D                     	;# 
  1693  028D                     	;# 
  1694  028E                     	;# 
  1695  028F                     	;# 
  1696  0290                     	;# 
  1697  0290                     	;# 
  1698  0291                     	;# 
  1699  0292                     	;# 
  1700  0292                     	;# 
  1701  0293                     	;# 
  1702  0293                     	;# 
  1703  0294                     	;# 
  1704  0295                     	;# 
  1705  0296                     	;# 
  1706  0296                     	;# 
  1707  0297                     	;# 
  1708  0298                     	;# 
  1709  0298                     	;# 
  1710  0299                     	;# 
  1711  0299                     	;# 
  1712  029A                     	;# 
  1713  029B                     	;# 
  1714  029C                     	;# 
  1715  029C                     	;# 
  1716  029D                     	;# 
  1717  030C                     	;# 
  1718  030C                     	;# 
  1719  030D                     	;# 
  1720  030E                     	;# 
  1721  030F                     	;# 
  1722  0310                     	;# 
  1723  0310                     	;# 
  1724  0311                     	;# 
  1725  0312                     	;# 
  1726  0313                     	;# 
  1727  0314                     	;# 
  1728  0314                     	;# 
  1729  0315                     	;# 
  1730  0316                     	;# 
  1731  0317                     	;# 
  1732  0318                     	;# 
  1733  0318                     	;# 
  1734  0319                     	;# 
  1735  031A                     	;# 
  1736  031B                     	;# 
  1737  031C                     	;# 
  1738  031C                     	;# 
  1739  031D                     	;# 
  1740  031E                     	;# 
  1741  031F                     	;# 
  1742  038C                     	;# 
  1743  038D                     	;# 
  1744  038E                     	;# 
  1745  0390                     	;# 
  1746  0391                     	;# 
  1747  0392                     	;# 
  1748  040C                     	;# 
  1749  040D                     	;# 
  1750  040E                     	;# 
  1751  040F                     	;# 
  1752  0410                     	;# 
  1753  0411                     	;# 
  1754  0416                     	;# 
  1755  0416                     	;# 
  1756  0417                     	;# 
  1757  0418                     	;# 
  1758  0418                     	;# 
  1759  0419                     	;# 
  1760  041A                     	;# 
  1761  041A                     	;# 
  1762  041B                     	;# 
  1763  041C                     	;# 
  1764  041C                     	;# 
  1765  041D                     	;# 
  1766  041E                     	;# 
  1767  041F                     	;# 
  1768  048C                     	;# 
  1769  048C                     	;# 
  1770  048D                     	;# 
  1771  048E                     	;# 
  1772  048F                     	;# 
  1773  048F                     	;# 
  1774  0490                     	;# 
  1775  0491                     	;# 
  1776  0492                     	;# 
  1777  0492                     	;# 
  1778  0493                     	;# 
  1779  0494                     	;# 
  1780  0495                     	;# 
  1781  0495                     	;# 
  1782  0496                     	;# 
  1783  0497                     	;# 
  1784  0498                     	;# 
  1785  0499                     	;# 
  1786  049A                     	;# 
  1787  049B                     	;# 
  1788  049C                     	;# 
  1789  049D                     	;# 
  1790  050C                     	;# 
  1791  050C                     	;# 
  1792  050D                     	;# 
  1793  050E                     	;# 
  1794  050F                     	;# 
  1795  050F                     	;# 
  1796  0510                     	;# 
  1797  0511                     	;# 
  1798  0512                     	;# 
  1799  0512                     	;# 
  1800  0513                     	;# 
  1801  0514                     	;# 
  1802  0515                     	;# 
  1803  0515                     	;# 
  1804  0516                     	;# 
  1805  0517                     	;# 
  1806  0518                     	;# 
  1807  0519                     	;# 
  1808  051A                     	;# 
  1809  051B                     	;# 
  1810  051C                     	;# 
  1811  051D                     	;# 
  1812  058C                     	;# 
  1813  058C                     	;# 
  1814  058D                     	;# 
  1815  058E                     	;# 
  1816  058F                     	;# 
  1817  058F                     	;# 
  1818  0590                     	;# 
  1819  0591                     	;# 
  1820  0592                     	;# 
  1821  0593                     	;# 
  1822  060C                     	;# 
  1823  060D                     	;# 
  1824  060E                     	;# 
  1825  060F                     	;# 
  1826  0610                     	;# 
  1827  0611                     	;# 
  1828  0612                     	;# 
  1829  0613                     	;# 
  1830  0614                     	;# 
  1831  0616                     	;# 
  1832  0617                     	;# 
  1833  0618                     	;# 
  1834  0619                     	;# 
  1835  061A                     	;# 
  1836  061B                     	;# 
  1837  061C                     	;# 
  1838  061D                     	;# 
  1839  061E                     	;# 
  1840  068C                     	;# 
  1841  068D                     	;# 
  1842  068E                     	;# 
  1843  068F                     	;# 
  1844  0690                     	;# 
  1845  0691                     	;# 
  1846  0692                     	;# 
  1847  0693                     	;# 
  1848  0694                     	;# 
  1849  070C                     	;# 
  1850  070D                     	;# 
  1851  070E                     	;# 
  1852  070F                     	;# 
  1853  0710                     	;# 
  1854  0711                     	;# 
  1855  0712                     	;# 
  1856  0713                     	;# 
  1857  0714                     	;# 
  1858  0716                     	;# 
  1859  0717                     	;# 
  1860  0718                     	;# 
  1861  0719                     	;# 
  1862  071A                     	;# 
  1863  071B                     	;# 
  1864  071C                     	;# 
  1865  071D                     	;# 
  1866  071E                     	;# 
  1867  0796                     	;# 
  1868  0797                     	;# 
  1869  0798                     	;# 
  1870  0799                     	;# 
  1871  079A                     	;# 
  1872  079B                     	;# 
  1873  080C                     	;# 
  1874  080D                     	;# 
  1875  080E                     	;# 
  1876  080F                     	;# 
  1877  0810                     	;# 
  1878  0811                     	;# 
  1879  0812                     	;# 
  1880  0813                     	;# 
  1881  0814                     	;# 
  1882  081A                     	;# 
  1883  081B                     	;# 
  1884  081C                     	;# 
  1885  081D                     	;# 
  1886  081E                     	;# 
  1887  081F                     	;# 
  1888  088C                     	;# 
  1889  088D                     	;# 
  1890  088E                     	;# 
  1891  088F                     	;# 
  1892  0890                     	;# 
  1893  0891                     	;# 
  1894  0892                     	;# 
  1895  0893                     	;# 
  1896  0895                     	;# 
  1897  0896                     	;# 
  1898  0897                     	;# 
  1899  0898                     	;# 
  1900  0899                     	;# 
  1901  089A                     	;# 
  1902  089B                     	;# 
  1903  090C                     	;# 
  1904  090E                     	;# 
  1905  090F                     	;# 
  1906  091F                     	;# 
  1907  091F                     	;# 
  1908  098F                     	;# 
  1909  098F                     	;# 
  1910  0990                     	;# 
  1911  0991                     	;# 
  1912  0992                     	;# 
  1913  0993                     	;# 
  1914  0994                     	;# 
  1915  0995                     	;# 
  1916  0996                     	;# 
  1917  0997                     	;# 
  1918  0E0F                     	;# 
  1919  0E10                     	;# 
  1920  0E11                     	;# 
  1921  0E12                     	;# 
  1922  0E13                     	;# 
  1923  0E14                     	;# 
  1924  0E15                     	;# 
  1925  0E16                     	;# 
  1926  0E17                     	;# 
  1927  0E18                     	;# 
  1928  0E19                     	;# 
  1929  0E1A                     	;# 
  1930  0E1B                     	;# 
  1931  0E1C                     	;# 
  1932  0E1D                     	;# 
  1933  0E1E                     	;# 
  1934  0E1F                     	;# 
  1935  0E20                     	;# 
  1936  0E21                     	;# 
  1937  0E22                     	;# 
  1938  0E23                     	;# 
  1939  0E24                     	;# 
  1940  0E25                     	;# 
  1941  0E26                     	;# 
  1942  0E27                     	;# 
  1943  0E28                     	;# 
  1944  0E29                     	;# 
  1945  0E2A                     	;# 
  1946  0E2B                     	;# 
  1947  0E2C                     	;# 
  1948  0E2D                     	;# 
  1949  0E2E                     	;# 
  1950  0E2F                     	;# 
  1951  0E30                     	;# 
  1952  0E31                     	;# 
  1953  0E32                     	;# 
  1954  0E33                     	;# 
  1955  0E34                     	;# 
  1956  0E35                     	;# 
  1957  0E36                     	;# 
  1958  0E37                     	;# 
  1959  0E8F                     	;# 
  1960  0E90                     	;# 
  1961  0E91                     	;# 
  1962  0E92                     	;# 
  1963  0E93                     	;# 
  1964  0E94                     	;# 
  1965  0E95                     	;# 
  1966  0E96                     	;# 
  1967  0E97                     	;# 
  1968  0E9C                     	;# 
  1969  0E9D                     	;# 
  1970  0E9E                     	;# 
  1971  0EA1                     	;# 
  1972  0EA2                     	;# 
  1973  0EA3                     	;# 
  1974  0EA4                     	;# 
  1975  0EA5                     	;# 
  1976  0EA9                     	;# 
  1977  0EAA                     	;# 
  1978  0EAB                     	;# 
  1979  0EAC                     	;# 
  1980  0EB1                     	;# 
  1981  0EB2                     	;# 
  1982  0EB3                     	;# 
  1983  0EB8                     	;# 
  1984  0EB9                     	;# 
  1985  0EBA                     	;# 
  1986  0EBB                     	;# 
  1987  0EBC                     	;# 
  1988  0EBD                     	;# 
  1989  0EBE                     	;# 
  1990  0EC3                     	;# 
  1991  0EC5                     	;# 
  1992  0EC6                     	;# 
  1993  0EC7                     	;# 
  1994  0EC8                     	;# 
  1995  0EC9                     	;# 
  1996  0ECA                     	;# 
  1997  0ECB                     	;# 
  1998  0ECC                     	;# 
  1999  0F10                     	;# 
  2000  0F11                     	;# 
  2001  0F12                     	;# 
  2002  0F13                     	;# 
  2003  0F14                     	;# 
  2004  0F15                     	;# 
  2005  0F16                     	;# 
  2006  0F17                     	;# 
  2007  0F18                     	;# 
  2008  0F19                     	;# 
  2009  0F1A                     	;# 
  2010  0F1B                     	;# 
  2011  0F1C                     	;# 
  2012  0F1D                     	;# 
  2013  0F1E                     	;# 
  2014  0F1F                     	;# 
  2015  0F20                     	;# 
  2016  0F21                     	;# 
  2017  0F22                     	;# 
  2018  0F23                     	;# 
  2019  0F24                     	;# 
  2020  0F25                     	;# 
  2021  0F26                     	;# 
  2022  0F27                     	;# 
  2023  0F38                     	;# 
  2024  0F39                     	;# 
  2025  0F3A                     	;# 
  2026  0F3B                     	;# 
  2027  0F3C                     	;# 
  2028  0F3D                     	;# 
  2029  0F3E                     	;# 
  2030  0F3F                     	;# 
  2031  0F40                     	;# 
  2032  0F41                     	;# 
  2033  0F43                     	;# 
  2034  0F44                     	;# 
  2035  0F45                     	;# 
  2036  0F46                     	;# 
  2037  0F47                     	;# 
  2038  0F48                     	;# 
  2039  0F49                     	;# 
  2040  0F4A                     	;# 
  2041  0F4B                     	;# 
  2042  0F4C                     	;# 
  2043  0F4E                     	;# 
  2044  0F4F                     	;# 
  2045  0F50                     	;# 
  2046  0F51                     	;# 
  2047  0F52                     	;# 
  2048  0F53                     	;# 
  2049  0F54                     	;# 
  2050  0F55                     	;# 
  2051  0F56                     	;# 
  2052  0F57                     	;# 
  2053  0F65                     	;# 
  2054  0F68                     	;# 
  2055  0F69                     	;# 
  2056  0F6A                     	;# 
  2057  0F6B                     	;# 
  2058  0FE4                     	;# 
  2059  0FE5                     	;# 
  2060  0FE6                     	;# 
  2061  0FE7                     	;# 
  2062  0FE8                     	;# 
  2063  0FE9                     	;# 
  2064  0FEA                     	;# 
  2065  0FEB                     	;# 
  2066  0FED                     	;# 
  2067  0FEE                     	;# 
  2068  0FEF                     	;# 
  2069  0000                     	;# 
  2070  0001                     	;# 
  2071  0002                     	;# 
  2072  0003                     	;# 
  2073  0004                     	;# 
  2074  0005                     	;# 
  2075  0006                     	;# 
  2076  0007                     	;# 
  2077  0008                     	;# 
  2078  0009                     	;# 
  2079  000A                     	;# 
  2080  000B                     	;# 
  2081  000C                     	;# 
  2082  000D                     	;# 
  2083  000E                     	;# 
  2084  0010                     	;# 
  2085  0011                     	;# 
  2086  0012                     	;# 
  2087  0013                     	;# 
  2088  0016                     	;# 
  2089  0017                     	;# 
  2090  0018                     	;# 
  2091  001C                     	;# 
  2092  001C                     	;# 
  2093  001D                     	;# 
  2094  001D                     	;# 
  2095  001E                     	;# 
  2096  001F                     	;# 
  2097  008C                     	;# 
  2098  008C                     	;# 
  2099  008D                     	;# 
  2100  008E                     	;# 
  2101  008E                     	;# 
  2102  008F                     	;# 
  2103  0090                     	;# 
  2104  0090                     	;# 
  2105  0091                     	;# 
  2106  0093                     	;# 
  2107  0094                     	;# 
  2108  0095                     	;# 
  2109  0096                     	;# 
  2110  0097                     	;# 
  2111  0098                     	;# 
  2112  0099                     	;# 
  2113  009A                     	;# 
  2114  009B                     	;# 
  2115  009C                     	;# 
  2116  009D                     	;# 
  2117  009E                     	;# 
  2118  010C                     	;# 
  2119  010D                     	;# 
  2120  010E                     	;# 
  2121  010E                     	;# 
  2122  010F                     	;# 
  2123  0110                     	;# 
  2124  0110                     	;# 
  2125  0111                     	;# 
  2126  0112                     	;# 
  2127  0112                     	;# 
  2128  0113                     	;# 
  2129  0114                     	;# 
  2130  0114                     	;# 
  2131  0115                     	;# 
  2132  0116                     	;# 
  2133  0116                     	;# 
  2134  0117                     	;# 
  2135  0119                     	;# 
  2136  0119                     	;# 
  2137  0119                     	;# 
  2138  011A                     	;# 
  2139  011A                     	;# 
  2140  011A                     	;# 
  2141  011B                     	;# 
  2142  011B                     	;# 
  2143  011B                     	;# 
  2144  011B                     	;# 
  2145  011B                     	;# 
  2146  011C                     	;# 
  2147  011C                     	;# 
  2148  011C                     	;# 
  2149  011D                     	;# 
  2150  011D                     	;# 
  2151  011D                     	;# 
  2152  011E                     	;# 
  2153  011E                     	;# 
  2154  011E                     	;# 
  2155  011F                     	;# 
  2156  011F                     	;# 
  2157  011F                     	;# 
  2158  011F                     	;# 
  2159  011F                     	;# 
  2160  018C                     	;# 
  2161  018D                     	;# 
  2162  018E                     	;# 
  2163  018F                     	;# 
  2164  0190                     	;# 
  2165  0191                     	;# 
  2166  0192                     	;# 
  2167  0196                     	;# 
  2168  0197                     	;# 
  2169  0198                     	;# 
  2170  0199                     	;# 
  2171  019A                     	;# 
  2172  019B                     	;# 
  2173  019C                     	;# 
  2174  020C                     	;# 
  2175  020D                     	;# 
  2176  020E                     	;# 
  2177  020F                     	;# 
  2178  020F                     	;# 
  2179  0210                     	;# 
  2180  0210                     	;# 
  2181  0211                     	;# 
  2182  0211                     	;# 
  2183  0212                     	;# 
  2184  0213                     	;# 
  2185  0214                     	;# 
  2186  0215                     	;# 
  2187  0215                     	;# 
  2188  0216                     	;# 
  2189  0216                     	;# 
  2190  0217                     	;# 
  2191  0217                     	;# 
  2192  0218                     	;# 
  2193  0219                     	;# 
  2194  021A                     	;# 
  2195  021B                     	;# 
  2196  021B                     	;# 
  2197  021C                     	;# 
  2198  021C                     	;# 
  2199  021D                     	;# 
  2200  021D                     	;# 
  2201  021E                     	;# 
  2202  021F                     	;# 
  2203  028C                     	;# 
  2204  028C                     	;# 
  2205  028D                     	;# 
  2206  028D                     	;# 
  2207  028E                     	;# 
  2208  028F                     	;# 
  2209  0290                     	;# 
  2210  0290                     	;# 
  2211  0291                     	;# 
  2212  0292                     	;# 
  2213  0292                     	;# 
  2214  0293                     	;# 
  2215  0293                     	;# 
  2216  0294                     	;# 
  2217  0295                     	;# 
  2218  0296                     	;# 
  2219  0296                     	;# 
  2220  0297                     	;# 
  2221  0298                     	;# 
  2222  0298                     	;# 
  2223  0299                     	;# 
  2224  0299                     	;# 
  2225  029A                     	;# 
  2226  029B                     	;# 
  2227  029C                     	;# 
  2228  029C                     	;# 
  2229  029D                     	;# 
  2230  030C                     	;# 
  2231  030C                     	;# 
  2232  030D                     	;# 
  2233  030E                     	;# 
  2234  030F                     	;# 
  2235  0310                     	;# 
  2236  0310                     	;# 
  2237  0311                     	;# 
  2238  0312                     	;# 
  2239  0313                     	;# 
  2240  0314                     	;# 
  2241  0314                     	;# 
  2242  0315                     	;# 
  2243  0316                     	;# 
  2244  0317                     	;# 
  2245  0318                     	;# 
  2246  0318                     	;# 
  2247  0319                     	;# 
  2248  031A                     	;# 
  2249  031B                     	;# 
  2250  031C                     	;# 
  2251  031C                     	;# 
  2252  031D                     	;# 
  2253  031E                     	;# 
  2254  031F                     	;# 
  2255  038C                     	;# 
  2256  038D                     	;# 
  2257  038E                     	;# 
  2258  0390                     	;# 
  2259  0391                     	;# 
  2260  0392                     	;# 
  2261  040C                     	;# 
  2262  040D                     	;# 
  2263  040E                     	;# 
  2264  040F                     	;# 
  2265  0410                     	;# 
  2266  0411                     	;# 
  2267  0416                     	;# 
  2268  0416                     	;# 
  2269  0417                     	;# 
  2270  0418                     	;# 
  2271  0418                     	;# 
  2272  0419                     	;# 
  2273  041A                     	;# 
  2274  041A                     	;# 
  2275  041B                     	;# 
  2276  041C                     	;# 
  2277  041C                     	;# 
  2278  041D                     	;# 
  2279  041E                     	;# 
  2280  041F                     	;# 
  2281  048C                     	;# 
  2282  048C                     	;# 
  2283  048D                     	;# 
  2284  048E                     	;# 
  2285  048F                     	;# 
  2286  048F                     	;# 
  2287  0490                     	;# 
  2288  0491                     	;# 
  2289  0492                     	;# 
  2290  0492                     	;# 
  2291  0493                     	;# 
  2292  0494                     	;# 
  2293  0495                     	;# 
  2294  0495                     	;# 
  2295  0496                     	;# 
  2296  0497                     	;# 
  2297  0498                     	;# 
  2298  0499                     	;# 
  2299  049A                     	;# 
  2300  049B                     	;# 
  2301  049C                     	;# 
  2302  049D                     	;# 
  2303  050C                     	;# 
  2304  050C                     	;# 
  2305  050D                     	;# 
  2306  050E                     	;# 
  2307  050F                     	;# 
  2308  050F                     	;# 
  2309  0510                     	;# 
  2310  0511                     	;# 
  2311  0512                     	;# 
  2312  0512                     	;# 
  2313  0513                     	;# 
  2314  0514                     	;# 
  2315  0515                     	;# 
  2316  0515                     	;# 
  2317  0516                     	;# 
  2318  0517                     	;# 
  2319  0518                     	;# 
  2320  0519                     	;# 
  2321  051A                     	;# 
  2322  051B                     	;# 
  2323  051C                     	;# 
  2324  051D                     	;# 
  2325  058C                     	;# 
  2326  058C                     	;# 
  2327  058D                     	;# 
  2328  058E                     	;# 
  2329  058F                     	;# 
  2330  058F                     	;# 
  2331  0590                     	;# 
  2332  0591                     	;# 
  2333  0592                     	;# 
  2334  0593                     	;# 
  2335  060C                     	;# 
  2336  060D                     	;# 
  2337  060E                     	;# 
  2338  060F                     	;# 
  2339  0610                     	;# 
  2340  0611                     	;# 
  2341  0612                     	;# 
  2342  0613                     	;# 
  2343  0614                     	;# 
  2344  0616                     	;# 
  2345  0617                     	;# 
  2346  0618                     	;# 
  2347  0619                     	;# 
  2348  061A                     	;# 
  2349  061B                     	;# 
  2350  061C                     	;# 
  2351  061D                     	;# 
  2352  061E                     	;# 
  2353  068C                     	;# 
  2354  068D                     	;# 
  2355  068E                     	;# 
  2356  068F                     	;# 
  2357  0690                     	;# 
  2358  0691                     	;# 
  2359  0692                     	;# 
  2360  0693                     	;# 
  2361  0694                     	;# 
  2362  070C                     	;# 
  2363  070D                     	;# 
  2364  070E                     	;# 
  2365  070F                     	;# 
  2366  0710                     	;# 
  2367  0711                     	;# 
  2368  0712                     	;# 
  2369  0713                     	;# 
  2370  0714                     	;# 
  2371  0716                     	;# 
  2372  0717                     	;# 
  2373  0718                     	;# 
  2374  0719                     	;# 
  2375  071A                     	;# 
  2376  071B                     	;# 
  2377  071C                     	;# 
  2378  071D                     	;# 
  2379  071E                     	;# 
  2380  0796                     	;# 
  2381  0797                     	;# 
  2382  0798                     	;# 
  2383  0799                     	;# 
  2384  079A                     	;# 
  2385  079B                     	;# 
  2386  080C                     	;# 
  2387  080D                     	;# 
  2388  080E                     	;# 
  2389  080F                     	;# 
  2390  0810                     	;# 
  2391  0811                     	;# 
  2392  0812                     	;# 
  2393  0813                     	;# 
  2394  0814                     	;# 
  2395  081A                     	;# 
  2396  081B                     	;# 
  2397  081C                     	;# 
  2398  081D                     	;# 
  2399  081E                     	;# 
  2400  081F                     	;# 
  2401  088C                     	;# 
  2402  088D                     	;# 
  2403  088E                     	;# 
  2404  088F                     	;# 
  2405  0890                     	;# 
  2406  0891                     	;# 
  2407  0892                     	;# 
  2408  0893                     	;# 
  2409  0895                     	;# 
  2410  0896                     	;# 
  2411  0897                     	;# 
  2412  0898                     	;# 
  2413  0899                     	;# 
  2414  089A                     	;# 
  2415  089B                     	;# 
  2416  090C                     	;# 
  2417  090E                     	;# 
  2418  090F                     	;# 
  2419  091F                     	;# 
  2420  091F                     	;# 
  2421  098F                     	;# 
  2422  098F                     	;# 
  2423  0990                     	;# 
  2424  0991                     	;# 
  2425  0992                     	;# 
  2426  0993                     	;# 
  2427  0994                     	;# 
  2428  0995                     	;# 
  2429  0996                     	;# 
  2430  0997                     	;# 
  2431  0E0F                     	;# 
  2432  0E10                     	;# 
  2433  0E11                     	;# 
  2434  0E12                     	;# 
  2435  0E13                     	;# 
  2436  0E14                     	;# 
  2437  0E15                     	;# 
  2438  0E16                     	;# 
  2439  0E17                     	;# 
  2440  0E18                     	;# 
  2441  0E19                     	;# 
  2442  0E1A                     	;# 
  2443  0E1B                     	;# 
  2444  0E1C                     	;# 
  2445  0E1D                     	;# 
  2446  0E1E                     	;# 
  2447  0E1F                     	;# 
  2448  0E20                     	;# 
  2449  0E21                     	;# 
  2450  0E22                     	;# 
  2451  0E23                     	;# 
  2452  0E24                     	;# 
  2453  0E25                     	;# 
  2454  0E26                     	;# 
  2455  0E27                     	;# 
  2456  0E28                     	;# 
  2457  0E29                     	;# 
  2458  0E2A                     	;# 
  2459  0E2B                     	;# 
  2460  0E2C                     	;# 
  2461  0E2D                     	;# 
  2462  0E2E                     	;# 
  2463  0E2F                     	;# 
  2464  0E30                     	;# 
  2465  0E31                     	;# 
  2466  0E32                     	;# 
  2467  0E33                     	;# 
  2468  0E34                     	;# 
  2469  0E35                     	;# 
  2470  0E36                     	;# 
  2471  0E37                     	;# 
  2472  0E8F                     	;# 
  2473  0E90                     	;# 
  2474  0E91                     	;# 
  2475  0E92                     	;# 
  2476  0E93                     	;# 
  2477  0E94                     	;# 
  2478  0E95                     	;# 
  2479  0E96                     	;# 
  2480  0E97                     	;# 
  2481  0E9C                     	;# 
  2482  0E9D                     	;# 
  2483  0E9E                     	;# 
  2484  0EA1                     	;# 
  2485  0EA2                     	;# 
  2486  0EA3                     	;# 
  2487  0EA4                     	;# 
  2488  0EA5                     	;# 
  2489  0EA9                     	;# 
  2490  0EAA                     	;# 
  2491  0EAB                     	;# 
  2492  0EAC                     	;# 
  2493  0EB1                     	;# 
  2494  0EB2                     	;# 
  2495  0EB3                     	;# 
  2496  0EB8                     	;# 
  2497  0EB9                     	;# 
  2498  0EBA                     	;# 
  2499  0EBB                     	;# 
  2500  0EBC                     	;# 
  2501  0EBD                     	;# 
  2502  0EBE                     	;# 
  2503  0EC3                     	;# 
  2504  0EC5                     	;# 
  2505  0EC6                     	;# 
  2506  0EC7                     	;# 
  2507  0EC8                     	;# 
  2508  0EC9                     	;# 
  2509  0ECA                     	;# 
  2510  0ECB                     	;# 
  2511  0ECC                     	;# 
  2512  0F10                     	;# 
  2513  0F11                     	;# 
  2514  0F12                     	;# 
  2515  0F13                     	;# 
  2516  0F14                     	;# 
  2517  0F15                     	;# 
  2518  0F16                     	;# 
  2519  0F17                     	;# 
  2520  0F18                     	;# 
  2521  0F19                     	;# 
  2522  0F1A                     	;# 
  2523  0F1B                     	;# 
  2524  0F1C                     	;# 
  2525  0F1D                     	;# 
  2526  0F1E                     	;# 
  2527  0F1F                     	;# 
  2528  0F20                     	;# 
  2529  0F21                     	;# 
  2530  0F22                     	;# 
  2531  0F23                     	;# 
  2532  0F24                     	;# 
  2533  0F25                     	;# 
  2534  0F26                     	;# 
  2535  0F27                     	;# 
  2536  0F38                     	;# 
  2537  0F39                     	;# 
  2538  0F3A                     	;# 
  2539  0F3B                     	;# 
  2540  0F3C                     	;# 
  2541  0F3D                     	;# 
  2542  0F3E                     	;# 
  2543  0F3F                     	;# 
  2544  0F40                     	;# 
  2545  0F41                     	;# 
  2546  0F43                     	;# 
  2547  0F44                     	;# 
  2548  0F45                     	;# 
  2549  0F46                     	;# 
  2550  0F47                     	;# 
  2551  0F48                     	;# 
  2552  0F49                     	;# 
  2553  0F4A                     	;# 
  2554  0F4B                     	;# 
  2555  0F4C                     	;# 
  2556  0F4E                     	;# 
  2557  0F4F                     	;# 
  2558  0F50                     	;# 
  2559  0F51                     	;# 
  2560  0F52                     	;# 
  2561  0F53                     	;# 
  2562  0F54                     	;# 
  2563  0F55                     	;# 
  2564  0F56                     	;# 
  2565  0F57                     	;# 
  2566  0F65                     	;# 
  2567  0F68                     	;# 
  2568  0F69                     	;# 
  2569  0F6A                     	;# 
  2570  0F6B                     	;# 
  2571  0FE4                     	;# 
  2572  0FE5                     	;# 
  2573  0FE6                     	;# 
  2574  0FE7                     	;# 
  2575  0FE8                     	;# 
  2576  0FE9                     	;# 
  2577  0FEA                     	;# 
  2578  0FEB                     	;# 
  2579  0FED                     	;# 
  2580  0FEE                     	;# 
  2581  0FEF                     	;# 
  2582  0000                     	;# 
  2583  0001                     	;# 
  2584  0002                     	;# 
  2585  0003                     	;# 
  2586  0004                     	;# 
  2587  0005                     	;# 
  2588  0006                     	;# 
  2589  0007                     	;# 
  2590  0008                     	;# 
  2591  0009                     	;# 
  2592  000A                     	;# 
  2593  000B                     	;# 
  2594  000C                     	;# 
  2595  000D                     	;# 
  2596  000E                     	;# 
  2597  0010                     	;# 
  2598  0011                     	;# 
  2599  0012                     	;# 
  2600  0013                     	;# 
  2601  0016                     	;# 
  2602  0017                     	;# 
  2603  0018                     	;# 
  2604  001C                     	;# 
  2605  001C                     	;# 
  2606  001D                     	;# 
  2607  001D                     	;# 
  2608  001E                     	;# 
  2609  001F                     	;# 
  2610  008C                     	;# 
  2611  008C                     	;# 
  2612  008D                     	;# 
  2613  008E                     	;# 
  2614  008E                     	;# 
  2615  008F                     	;# 
  2616  0090                     	;# 
  2617  0090                     	;# 
  2618  0091                     	;# 
  2619  0093                     	;# 
  2620  0094                     	;# 
  2621  0095                     	;# 
  2622  0096                     	;# 
  2623  0097                     	;# 
  2624  0098                     	;# 
  2625  0099                     	;# 
  2626  009A                     	;# 
  2627  009B                     	;# 
  2628  009C                     	;# 
  2629  009D                     	;# 
  2630  009E                     	;# 
  2631  010C                     	;# 
  2632  010D                     	;# 
  2633  010E                     	;# 
  2634  010E                     	;# 
  2635  010F                     	;# 
  2636  0110                     	;# 
  2637  0110                     	;# 
  2638  0111                     	;# 
  2639  0112                     	;# 
  2640  0112                     	;# 
  2641  0113                     	;# 
  2642  0114                     	;# 
  2643  0114                     	;# 
  2644  0115                     	;# 
  2645  0116                     	;# 
  2646  0116                     	;# 
  2647  0117                     	;# 
  2648  0119                     	;# 
  2649  0119                     	;# 
  2650  0119                     	;# 
  2651  011A                     	;# 
  2652  011A                     	;# 
  2653  011A                     	;# 
  2654  011B                     	;# 
  2655  011B                     	;# 
  2656  011B                     	;# 
  2657  011B                     	;# 
  2658  011B                     	;# 
  2659  011C                     	;# 
  2660  011C                     	;# 
  2661  011C                     	;# 
  2662  011D                     	;# 
  2663  011D                     	;# 
  2664  011D                     	;# 
  2665  011E                     	;# 
  2666  011E                     	;# 
  2667  011E                     	;# 
  2668  011F                     	;# 
  2669  011F                     	;# 
  2670  011F                     	;# 
  2671  011F                     	;# 
  2672  011F                     	;# 
  2673  018C                     	;# 
  2674  018D                     	;# 
  2675  018E                     	;# 
  2676  018F                     	;# 
  2677  0190                     	;# 
  2678  0191                     	;# 
  2679  0192                     	;# 
  2680  0196                     	;# 
  2681  0197                     	;# 
  2682  0198                     	;# 
  2683  0199                     	;# 
  2684  019A                     	;# 
  2685  019B                     	;# 
  2686  019C                     	;# 
  2687  020C                     	;# 
  2688  020D                     	;# 
  2689  020E                     	;# 
  2690  020F                     	;# 
  2691  020F                     	;# 
  2692  0210                     	;# 
  2693  0210                     	;# 
  2694  0211                     	;# 
  2695  0211                     	;# 
  2696  0212                     	;# 
  2697  0213                     	;# 
  2698  0214                     	;# 
  2699  0215                     	;# 
  2700  0215                     	;# 
  2701  0216                     	;# 
  2702  0216                     	;# 
  2703  0217                     	;# 
  2704  0217                     	;# 
  2705  0218                     	;# 
  2706  0219                     	;# 
  2707  021A                     	;# 
  2708  021B                     	;# 
  2709  021B                     	;# 
  2710  021C                     	;# 
  2711  021C                     	;# 
  2712  021D                     	;# 
  2713  021D                     	;# 
  2714  021E                     	;# 
  2715  021F                     	;# 
  2716  028C                     	;# 
  2717  028C                     	;# 
  2718  028D                     	;# 
  2719  028D                     	;# 
  2720  028E                     	;# 
  2721  028F                     	;# 
  2722  0290                     	;# 
  2723  0290                     	;# 
  2724  0291                     	;# 
  2725  0292                     	;# 
  2726  0292                     	;# 
  2727  0293                     	;# 
  2728  0293                     	;# 
  2729  0294                     	;# 
  2730  0295                     	;# 
  2731  0296                     	;# 
  2732  0296                     	;# 
  2733  0297                     	;# 
  2734  0298                     	;# 
  2735  0298                     	;# 
  2736  0299                     	;# 
  2737  0299                     	;# 
  2738  029A                     	;# 
  2739  029B                     	;# 
  2740  029C                     	;# 
  2741  029C                     	;# 
  2742  029D                     	;# 
  2743  030C                     	;# 
  2744  030C                     	;# 
  2745  030D                     	;# 
  2746  030E                     	;# 
  2747  030F                     	;# 
  2748  0310                     	;# 
  2749  0310                     	;# 
  2750  0311                     	;# 
  2751  0312                     	;# 
  2752  0313                     	;# 
  2753  0314                     	;# 
  2754  0314                     	;# 
  2755  0315                     	;# 
  2756  0316                     	;# 
  2757  0317                     	;# 
  2758  0318                     	;# 
  2759  0318                     	;# 
  2760  0319                     	;# 
  2761  031A                     	;# 
  2762  031B                     	;# 
  2763  031C                     	;# 
  2764  031C                     	;# 
  2765  031D                     	;# 
  2766  031E                     	;# 
  2767  031F                     	;# 
  2768  038C                     	;# 
  2769  038D                     	;# 
  2770  038E                     	;# 
  2771  0390                     	;# 
  2772  0391                     	;# 
  2773  0392                     	;# 
  2774  040C                     	;# 
  2775  040D                     	;# 
  2776  040E                     	;# 
  2777  040F                     	;# 
  2778  0410                     	;# 
  2779  0411                     	;# 
  2780  0416                     	;# 
  2781  0416                     	;# 
  2782  0417                     	;# 
  2783  0418                     	;# 
  2784  0418                     	;# 
  2785  0419                     	;# 
  2786  041A                     	;# 
  2787  041A                     	;# 
  2788  041B                     	;# 
  2789  041C                     	;# 
  2790  041C                     	;# 
  2791  041D                     	;# 
  2792  041E                     	;# 
  2793  041F                     	;# 
  2794  048C                     	;# 
  2795  048C                     	;# 
  2796  048D                     	;# 
  2797  048E                     	;# 
  2798  048F                     	;# 
  2799  048F                     	;# 
  2800  0490                     	;# 
  2801  0491                     	;# 
  2802  0492                     	;# 
  2803  0492                     	;# 
  2804  0493                     	;# 
  2805  0494                     	;# 
  2806  0495                     	;# 
  2807  0495                     	;# 
  2808  0496                     	;# 
  2809  0497                     	;# 
  2810  0498                     	;# 
  2811  0499                     	;# 
  2812  049A                     	;# 
  2813  049B                     	;# 
  2814  049C                     	;# 
  2815  049D                     	;# 
  2816  050C                     	;# 
  2817  050C                     	;# 
  2818  050D                     	;# 
  2819  050E                     	;# 
  2820  050F                     	;# 
  2821  050F                     	;# 
  2822  0510                     	;# 
  2823  0511                     	;# 
  2824  0512                     	;# 
  2825  0512                     	;# 
  2826  0513                     	;# 
  2827  0514                     	;# 
  2828  0515                     	;# 
  2829  0515                     	;# 
  2830  0516                     	;# 
  2831  0517                     	;# 
  2832  0518                     	;# 
  2833  0519                     	;# 
  2834  051A                     	;# 
  2835  051B                     	;# 
  2836  051C                     	;# 
  2837  051D                     	;# 
  2838  058C                     	;# 
  2839  058C                     	;# 
  2840  058D                     	;# 
  2841  058E                     	;# 
  2842  058F                     	;# 
  2843  058F                     	;# 
  2844  0590                     	;# 
  2845  0591                     	;# 
  2846  0592                     	;# 
  2847  0593                     	;# 
  2848  060C                     	;# 
  2849  060D                     	;# 
  2850  060E                     	;# 
  2851  060F                     	;# 
  2852  0610                     	;# 
  2853  0611                     	;# 
  2854  0612                     	;# 
  2855  0613                     	;# 
  2856  0614                     	;# 
  2857  0616                     	;# 
  2858  0617                     	;# 
  2859  0618                     	;# 
  2860  0619                     	;# 
  2861  061A                     	;# 
  2862  061B                     	;# 
  2863  061C                     	;# 
  2864  061D                     	;# 
  2865  061E                     	;# 
  2866  068C                     	;# 
  2867  068D                     	;# 
  2868  068E                     	;# 
  2869  068F                     	;# 
  2870  0690                     	;# 
  2871  0691                     	;# 
  2872  0692                     	;# 
  2873  0693                     	;# 
  2874  0694                     	;# 
  2875  070C                     	;# 
  2876  070D                     	;# 
  2877  070E                     	;# 
  2878  070F                     	;# 
  2879  0710                     	;# 
  2880  0711                     	;# 
  2881  0712                     	;# 
  2882  0713                     	;# 
  2883  0714                     	;# 
  2884  0716                     	;# 
  2885  0717                     	;# 
  2886  0718                     	;# 
  2887  0719                     	;# 
  2888  071A                     	;# 
  2889  071B                     	;# 
  2890  071C                     	;# 
  2891  071D                     	;# 
  2892  071E                     	;# 
  2893  0796                     	;# 
  2894  0797                     	;# 
  2895  0798                     	;# 
  2896  0799                     	;# 
  2897  079A                     	;# 
  2898  079B                     	;# 
  2899  080C                     	;# 
  2900  080D                     	;# 
  2901  080E                     	;# 
  2902  080F                     	;# 
  2903  0810                     	;# 
  2904  0811                     	;# 
  2905  0812                     	;# 
  2906  0813                     	;# 
  2907  0814                     	;# 
  2908  081A                     	;# 
  2909  081B                     	;# 
  2910  081C                     	;# 
  2911  081D                     	;# 
  2912  081E                     	;# 
  2913  081F                     	;# 
  2914  088C                     	;# 
  2915  088D                     	;# 
  2916  088E                     	;# 
  2917  088F                     	;# 
  2918  0890                     	;# 
  2919  0891                     	;# 
  2920  0892                     	;# 
  2921  0893                     	;# 
  2922  0895                     	;# 
  2923  0896                     	;# 
  2924  0897                     	;# 
  2925  0898                     	;# 
  2926  0899                     	;# 
  2927  089A                     	;# 
  2928  089B                     	;# 
  2929  090C                     	;# 
  2930  090E                     	;# 
  2931  090F                     	;# 
  2932  091F                     	;# 
  2933  091F                     	;# 
  2934  098F                     	;# 
  2935  098F                     	;# 
  2936  0990                     	;# 
  2937  0991                     	;# 
  2938  0992                     	;# 
  2939  0993                     	;# 
  2940  0994                     	;# 
  2941  0995                     	;# 
  2942  0996                     	;# 
  2943  0997                     	;# 
  2944  0E0F                     	;# 
  2945  0E10                     	;# 
  2946  0E11                     	;# 
  2947  0E12                     	;# 
  2948  0E13                     	;# 
  2949  0E14                     	;# 
  2950  0E15                     	;# 
  2951  0E16                     	;# 
  2952  0E17                     	;# 
  2953  0E18                     	;# 
  2954  0E19                     	;# 
  2955  0E1A                     	;# 
  2956  0E1B                     	;# 
  2957  0E1C                     	;# 
  2958  0E1D                     	;# 
  2959  0E1E                     	;# 
  2960  0E1F                     	;# 
  2961  0E20                     	;# 
  2962  0E21                     	;# 
  2963  0E22                     	;# 
  2964  0E23                     	;# 
  2965  0E24                     	;# 
  2966  0E25                     	;# 
  2967  0E26                     	;# 
  2968  0E27                     	;# 
  2969  0E28                     	;# 
  2970  0E29                     	;# 
  2971  0E2A                     	;# 
  2972  0E2B                     	;# 
  2973  0E2C                     	;# 
  2974  0E2D                     	;# 
  2975  0E2E                     	;# 
  2976  0E2F                     	;# 
  2977  0E30                     	;# 
  2978  0E31                     	;# 
  2979  0E32                     	;# 
  2980  0E33                     	;# 
  2981  0E34                     	;# 
  2982  0E35                     	;# 
  2983  0E36                     	;# 
  2984  0E37                     	;# 
  2985  0E8F                     	;# 
  2986  0E90                     	;# 
  2987  0E91                     	;# 
  2988  0E92                     	;# 
  2989  0E93                     	;# 
  2990  0E94                     	;# 
  2991  0E95                     	;# 
  2992  0E96                     	;# 
  2993  0E97                     	;# 
  2994  0E9C                     	;# 
  2995  0E9D                     	;# 
  2996  0E9E                     	;# 
  2997  0EA1                     	;# 
  2998  0EA2                     	;# 
  2999  0EA3                     	;# 
  3000  0EA4                     	;# 
  3001  0EA5                     	;# 
  3002  0EA9                     	;# 
  3003  0EAA                     	;# 
  3004  0EAB                     	;# 
  3005  0EAC                     	;# 
  3006  0EB1                     	;# 
  3007  0EB2                     	;# 
  3008  0EB3                     	;# 
  3009  0EB8                     	;# 
  3010  0EB9                     	;# 
  3011  0EBA                     	;# 
  3012  0EBB                     	;# 
  3013  0EBC                     	;# 
  3014  0EBD                     	;# 
  3015  0EBE                     	;# 
  3016  0EC3                     	;# 
  3017  0EC5                     	;# 
  3018  0EC6                     	;# 
  3019  0EC7                     	;# 
  3020  0EC8                     	;# 
  3021  0EC9                     	;# 
  3022  0ECA                     	;# 
  3023  0ECB                     	;# 
  3024  0ECC                     	;# 
  3025  0F10                     	;# 
  3026  0F11                     	;# 
  3027  0F12                     	;# 
  3028  0F13                     	;# 
  3029  0F14                     	;# 
  3030  0F15                     	;# 
  3031  0F16                     	;# 
  3032  0F17                     	;# 
  3033  0F18                     	;# 
  3034  0F19                     	;# 
  3035  0F1A                     	;# 
  3036  0F1B                     	;# 
  3037  0F1C                     	;# 
  3038  0F1D                     	;# 
  3039  0F1E                     	;# 
  3040  0F1F                     	;# 
  3041  0F20                     	;# 
  3042  0F21                     	;# 
  3043  0F22                     	;# 
  3044  0F23                     	;# 
  3045  0F24                     	;# 
  3046  0F25                     	;# 
  3047  0F26                     	;# 
  3048  0F27                     	;# 
  3049  0F38                     	;# 
  3050  0F39                     	;# 
  3051  0F3A                     	;# 
  3052  0F3B                     	;# 
  3053  0F3C                     	;# 
  3054  0F3D                     	;# 
  3055  0F3E                     	;# 
  3056  0F3F                     	;# 
  3057  0F40                     	;# 
  3058  0F41                     	;# 
  3059  0F43                     	;# 
  3060  0F44                     	;# 
  3061  0F45                     	;# 
  3062  0F46                     	;# 
  3063  0F47                     	;# 
  3064  0F48                     	;# 
  3065  0F49                     	;# 
  3066  0F4A                     	;# 
  3067  0F4B                     	;# 
  3068  0F4C                     	;# 
  3069  0F4E                     	;# 
  3070  0F4F                     	;# 
  3071  0F50                     	;# 
  3072  0F51                     	;# 
  3073  0F52                     	;# 
  3074  0F53                     	;# 
  3075  0F54                     	;# 
  3076  0F55                     	;# 
  3077  0F56                     	;# 
  3078  0F57                     	;# 
  3079  0F65                     	;# 
  3080  0F68                     	;# 
  3081  0F69                     	;# 
  3082  0F6A                     	;# 
  3083  0F6B                     	;# 
  3084  0FE4                     	;# 
  3085  0FE5                     	;# 
  3086  0FE6                     	;# 
  3087  0FE7                     	;# 
  3088  0FE8                     	;# 
  3089  0FE9                     	;# 
  3090  0FEA                     	;# 
  3091  0FEB                     	;# 
  3092  0FED                     	;# 
  3093  0FEE                     	;# 
  3094  0FEF                     	;# 
  3095  0000                     	;# 
  3096  0001                     	;# 
  3097  0002                     	;# 
  3098  0003                     	;# 
  3099  0004                     	;# 
  3100  0005                     	;# 
  3101  0006                     	;# 
  3102  0007                     	;# 
  3103  0008                     	;# 
  3104  0009                     	;# 
  3105  000A                     	;# 
  3106  000B                     	;# 
  3107  000C                     	;# 
  3108  000D                     	;# 
  3109  000E                     	;# 
  3110  0010                     	;# 
  3111  0011                     	;# 
  3112  0012                     	;# 
  3113  0013                     	;# 
  3114  0016                     	;# 
  3115  0017                     	;# 
  3116  0018                     	;# 
  3117  001C                     	;# 
  3118  001C                     	;# 
  3119  001D                     	;# 
  3120  001D                     	;# 
  3121  001E                     	;# 
  3122  001F                     	;# 
  3123  008C                     	;# 
  3124  008C                     	;# 
  3125  008D                     	;# 
  3126  008E                     	;# 
  3127  008E                     	;# 
  3128  008F                     	;# 
  3129  0090                     	;# 
  3130  0090                     	;# 
  3131  0091                     	;# 
  3132  0093                     	;# 
  3133  0094                     	;# 
  3134  0095                     	;# 
  3135  0096                     	;# 
  3136  0097                     	;# 
  3137  0098                     	;# 
  3138  0099                     	;# 
  3139  009A                     	;# 
  3140  009B                     	;# 
  3141  009C                     	;# 
  3142  009D                     	;# 
  3143  009E                     	;# 
  3144  010C                     	;# 
  3145  010D                     	;# 
  3146  010E                     	;# 
  3147  010E                     	;# 
  3148  010F                     	;# 
  3149  0110                     	;# 
  3150  0110                     	;# 
  3151  0111                     	;# 
  3152  0112                     	;# 
  3153  0112                     	;# 
  3154  0113                     	;# 
  3155  0114                     	;# 
  3156  0114                     	;# 
  3157  0115                     	;# 
  3158  0116                     	;# 
  3159  0116                     	;# 
  3160  0117                     	;# 
  3161  0119                     	;# 
  3162  0119                     	;# 
  3163  0119                     	;# 
  3164  011A                     	;# 
  3165  011A                     	;# 
  3166  011A                     	;# 
  3167  011B                     	;# 
  3168  011B                     	;# 
  3169  011B                     	;# 
  3170  011B                     	;# 
  3171  011B                     	;# 
  3172  011C                     	;# 
  3173  011C                     	;# 
  3174  011C                     	;# 
  3175  011D                     	;# 
  3176  011D                     	;# 
  3177  011D                     	;# 
  3178  011E                     	;# 
  3179  011E                     	;# 
  3180  011E                     	;# 
  3181  011F                     	;# 
  3182  011F                     	;# 
  3183  011F                     	;# 
  3184  011F                     	;# 
  3185  011F                     	;# 
  3186  018C                     	;# 
  3187  018D                     	;# 
  3188  018E                     	;# 
  3189  018F                     	;# 
  3190  0190                     	;# 
  3191  0191                     	;# 
  3192  0192                     	;# 
  3193  0196                     	;# 
  3194  0197                     	;# 
  3195  0198                     	;# 
  3196  0199                     	;# 
  3197  019A                     	;# 
  3198  019B                     	;# 
  3199  019C                     	;# 
  3200  020C                     	;# 
  3201  020D                     	;# 
  3202  020E                     	;# 
  3203  020F                     	;# 
  3204  020F                     	;# 
  3205  0210                     	;# 
  3206  0210                     	;# 
  3207  0211                     	;# 
  3208  0211                     	;# 
  3209  0212                     	;# 
  3210  0213                     	;# 
  3211  0214                     	;# 
  3212  0215                     	;# 
  3213  0215                     	;# 
  3214  0216                     	;# 
  3215  0216                     	;# 
  3216  0217                     	;# 
  3217  0217                     	;# 
  3218  0218                     	;# 
  3219  0219                     	;# 
  3220  021A                     	;# 
  3221  021B                     	;# 
  3222  021B                     	;# 
  3223  021C                     	;# 
  3224  021C                     	;# 
  3225  021D                     	;# 
  3226  021D                     	;# 
  3227  021E                     	;# 
  3228  021F                     	;# 
  3229  028C                     	;# 
  3230  028C                     	;# 
  3231  028D                     	;# 
  3232  028D                     	;# 
  3233  028E                     	;# 
  3234  028F                     	;# 
  3235  0290                     	;# 
  3236  0290                     	;# 
  3237  0291                     	;# 
  3238  0292                     	;# 
  3239  0292                     	;# 
  3240  0293                     	;# 
  3241  0293                     	;# 
  3242  0294                     	;# 
  3243  0295                     	;# 
  3244  0296                     	;# 
  3245  0296                     	;# 
  3246  0297                     	;# 
  3247  0298                     	;# 
  3248  0298                     	;# 
  3249  0299                     	;# 
  3250  0299                     	;# 
  3251  029A                     	;# 
  3252  029B                     	;# 
  3253  029C                     	;# 
  3254  029C                     	;# 
  3255  029D                     	;# 
  3256  030C                     	;# 
  3257  030C                     	;# 
  3258  030D                     	;# 
  3259  030E                     	;# 
  3260  030F                     	;# 
  3261  0310                     	;# 
  3262  0310                     	;# 
  3263  0311                     	;# 
  3264  0312                     	;# 
  3265  0313                     	;# 
  3266  0314                     	;# 
  3267  0314                     	;# 
  3268  0315                     	;# 
  3269  0316                     	;# 
  3270  0317                     	;# 
  3271  0318                     	;# 
  3272  0318                     	;# 
  3273  0319                     	;# 
  3274  031A                     	;# 
  3275  031B                     	;# 
  3276  031C                     	;# 
  3277  031C                     	;# 
  3278  031D                     	;# 
  3279  031E                     	;# 
  3280  031F                     	;# 
  3281  038C                     	;# 
  3282  038D                     	;# 
  3283  038E                     	;# 
  3284  0390                     	;# 
  3285  0391                     	;# 
  3286  0392                     	;# 
  3287  040C                     	;# 
  3288  040D                     	;# 
  3289  040E                     	;# 
  3290  040F                     	;# 
  3291  0410                     	;# 
  3292  0411                     	;# 
  3293  0416                     	;# 
  3294  0416                     	;# 
  3295  0417                     	;# 
  3296  0418                     	;# 
  3297  0418                     	;# 
  3298  0419                     	;# 
  3299  041A                     	;# 
  3300  041A                     	;# 
  3301  041B                     	;# 
  3302  041C                     	;# 
  3303  041C                     	;# 
  3304  041D                     	;# 
  3305  041E                     	;# 
  3306  041F                     	;# 
  3307  048C                     	;# 
  3308  048C                     	;# 
  3309  048D                     	;# 
  3310  048E                     	;# 
  3311  048F                     	;# 
  3312  048F                     	;# 
  3313  0490                     	;# 
  3314  0491                     	;# 
  3315  0492                     	;# 
  3316  0492                     	;# 
  3317  0493                     	;# 
  3318  0494                     	;# 
  3319  0495                     	;# 
  3320  0495                     	;# 
  3321  0496                     	;# 
  3322  0497                     	;# 
  3323  0498                     	;# 
  3324  0499                     	;# 
  3325  049A                     	;# 
  3326  049B                     	;# 
  3327  049C                     	;# 
  3328  049D                     	;# 
  3329  050C                     	;# 
  3330  050C                     	;# 
  3331  050D                     	;# 
  3332  050E                     	;# 
  3333  050F                     	;# 
  3334  050F                     	;# 
  3335  0510                     	;# 
  3336  0511                     	;# 
  3337  0512                     	;# 
  3338  0512                     	;# 
  3339  0513                     	;# 
  3340  0514                     	;# 
  3341  0515                     	;# 
  3342  0515                     	;# 
  3343  0516                     	;# 
  3344  0517                     	;# 
  3345  0518                     	;# 
  3346  0519                     	;# 
  3347  051A                     	;# 
  3348  051B                     	;# 
  3349  051C                     	;# 
  3350  051D                     	;# 
  3351  058C                     	;# 
  3352  058C                     	;# 
  3353  058D                     	;# 
  3354  058E                     	;# 
  3355  058F                     	;# 
  3356  058F                     	;# 
  3357  0590                     	;# 
  3358  0591                     	;# 
  3359  0592                     	;# 
  3360  0593                     	;# 
  3361  060C                     	;# 
  3362  060D                     	;# 
  3363  060E                     	;# 
  3364  060F                     	;# 
  3365  0610                     	;# 
  3366  0611                     	;# 
  3367  0612                     	;# 
  3368  0613                     	;# 
  3369  0614                     	;# 
  3370  0616                     	;# 
  3371  0617                     	;# 
  3372  0618                     	;# 
  3373  0619                     	;# 
  3374  061A                     	;# 
  3375  061B                     	;# 
  3376  061C                     	;# 
  3377  061D                     	;# 
  3378  061E                     	;# 
  3379  068C                     	;# 
  3380  068D                     	;# 
  3381  068E                     	;# 
  3382  068F                     	;# 
  3383  0690                     	;# 
  3384  0691                     	;# 
  3385  0692                     	;# 
  3386  0693                     	;# 
  3387  0694                     	;# 
  3388  070C                     	;# 
  3389  070D                     	;# 
  3390  070E                     	;# 
  3391  070F                     	;# 
  3392  0710                     	;# 
  3393  0711                     	;# 
  3394  0712                     	;# 
  3395  0713                     	;# 
  3396  0714                     	;# 
  3397  0716                     	;# 
  3398  0717                     	;# 
  3399  0718                     	;# 
  3400  0719                     	;# 
  3401  071A                     	;# 
  3402  071B                     	;# 
  3403  071C                     	;# 
  3404  071D                     	;# 
  3405  071E                     	;# 
  3406  0796                     	;# 
  3407  0797                     	;# 
  3408  0798                     	;# 
  3409  0799                     	;# 
  3410  079A                     	;# 
  3411  079B                     	;# 
  3412  080C                     	;# 
  3413  080D                     	;# 
  3414  080E                     	;# 
  3415  080F                     	;# 
  3416  0810                     	;# 
  3417  0811                     	;# 
  3418  0812                     	;# 
  3419  0813                     	;# 
  3420  0814                     	;# 
  3421  081A                     	;# 
  3422  081B                     	;# 
  3423  081C                     	;# 
  3424  081D                     	;# 
  3425  081E                     	;# 
  3426  081F                     	;# 
  3427  088C                     	;# 
  3428  088D                     	;# 
  3429  088E                     	;# 
  3430  088F                     	;# 
  3431  0890                     	;# 
  3432  0891                     	;# 
  3433  0892                     	;# 
  3434  0893                     	;# 
  3435  0895                     	;# 
  3436  0896                     	;# 
  3437  0897                     	;# 
  3438  0898                     	;# 
  3439  0899                     	;# 
  3440  089A                     	;# 
  3441  089B                     	;# 
  3442  090C                     	;# 
  3443  090E                     	;# 
  3444  090F                     	;# 
  3445  091F                     	;# 
  3446  091F                     	;# 
  3447  098F                     	;# 
  3448  098F                     	;# 
  3449  0990                     	;# 
  3450  0991                     	;# 
  3451  0992                     	;# 
  3452  0993                     	;# 
  3453  0994                     	;# 
  3454  0995                     	;# 
  3455  0996                     	;# 
  3456  0997                     	;# 
  3457  0E0F                     	;# 
  3458  0E10                     	;# 
  3459  0E11                     	;# 
  3460  0E12                     	;# 
  3461  0E13                     	;# 
  3462  0E14                     	;# 
  3463  0E15                     	;# 
  3464  0E16                     	;# 
  3465  0E17                     	;# 
  3466  0E18                     	;# 
  3467  0E19                     	;# 
  3468  0E1A                     	;# 
  3469  0E1B                     	;# 
  3470  0E1C                     	;# 
  3471  0E1D                     	;# 
  3472  0E1E                     	;# 
  3473  0E1F                     	;# 
  3474  0E20                     	;# 
  3475  0E21                     	;# 
  3476  0E22                     	;# 
  3477  0E23                     	;# 
  3478  0E24                     	;# 
  3479  0E25                     	;# 
  3480  0E26                     	;# 
  3481  0E27                     	;# 
  3482  0E28                     	;# 
  3483  0E29                     	;# 
  3484  0E2A                     	;# 
  3485  0E2B                     	;# 
  3486  0E2C                     	;# 
  3487  0E2D                     	;# 
  3488  0E2E                     	;# 
  3489  0E2F                     	;# 
  3490  0E30                     	;# 
  3491  0E31                     	;# 
  3492  0E32                     	;# 
  3493  0E33                     	;# 
  3494  0E34                     	;# 
  3495  0E35                     	;# 
  3496  0E36                     	;# 
  3497  0E37                     	;# 
  3498  0E8F                     	;# 
  3499  0E90                     	;# 
  3500  0E91                     	;# 
  3501  0E92                     	;# 
  3502  0E93                     	;# 
  3503  0E94                     	;# 
  3504  0E95                     	;# 
  3505  0E96                     	;# 
  3506  0E97                     	;# 
  3507  0E9C                     	;# 
  3508  0E9D                     	;# 
  3509  0E9E                     	;# 
  3510  0EA1                     	;# 
  3511  0EA2                     	;# 
  3512  0EA3                     	;# 
  3513  0EA4                     	;# 
  3514  0EA5                     	;# 
  3515  0EA9                     	;# 
  3516  0EAA                     	;# 
  3517  0EAB                     	;# 
  3518  0EAC                     	;# 
  3519  0EB1                     	;# 
  3520  0EB2                     	;# 
  3521  0EB3                     	;# 
  3522  0EB8                     	;# 
  3523  0EB9                     	;# 
  3524  0EBA                     	;# 
  3525  0EBB                     	;# 
  3526  0EBC                     	;# 
  3527  0EBD                     	;# 
  3528  0EBE                     	;# 
  3529  0EC3                     	;# 
  3530  0EC5                     	;# 
  3531  0EC6                     	;# 
  3532  0EC7                     	;# 
  3533  0EC8                     	;# 
  3534  0EC9                     	;# 
  3535  0ECA                     	;# 
  3536  0ECB                     	;# 
  3537  0ECC                     	;# 
  3538  0F10                     	;# 
  3539  0F11                     	;# 
  3540  0F12                     	;# 
  3541  0F13                     	;# 
  3542  0F14                     	;# 
  3543  0F15                     	;# 
  3544  0F16                     	;# 
  3545  0F17                     	;# 
  3546  0F18                     	;# 
  3547  0F19                     	;# 
  3548  0F1A                     	;# 
  3549  0F1B                     	;# 
  3550  0F1C                     	;# 
  3551  0F1D                     	;# 
  3552  0F1E                     	;# 
  3553  0F1F                     	;# 
  3554  0F20                     	;# 
  3555  0F21                     	;# 
  3556  0F22                     	;# 
  3557  0F23                     	;# 
  3558  0F24                     	;# 
  3559  0F25                     	;# 
  3560  0F26                     	;# 
  3561  0F27                     	;# 
  3562  0F38                     	;# 
  3563  0F39                     	;# 
  3564  0F3A                     	;# 
  3565  0F3B                     	;# 
  3566  0F3C                     	;# 
  3567  0F3D                     	;# 
  3568  0F3E                     	;# 
  3569  0F3F                     	;# 
  3570  0F40                     	;# 
  3571  0F41                     	;# 
  3572  0F43                     	;# 
  3573  0F44                     	;# 
  3574  0F45                     	;# 
  3575  0F46                     	;# 
  3576  0F47                     	;# 
  3577  0F48                     	;# 
  3578  0F49                     	;# 
  3579  0F4A                     	;# 
  3580  0F4B                     	;# 
  3581  0F4C                     	;# 
  3582  0F4E                     	;# 
  3583  0F4F                     	;# 
  3584  0F50                     	;# 
  3585  0F51                     	;# 
  3586  0F52                     	;# 
  3587  0F53                     	;# 
  3588  0F54                     	;# 
  3589  0F55                     	;# 
  3590  0F56                     	;# 
  3591  0F57                     	;# 
  3592  0F65                     	;# 
  3593  0F68                     	;# 
  3594  0F69                     	;# 
  3595  0F6A                     	;# 
  3596  0F6B                     	;# 
  3597  0FE4                     	;# 
  3598  0FE5                     	;# 
  3599  0FE6                     	;# 
  3600  0FE7                     	;# 
  3601  0FE8                     	;# 
  3602  0FE9                     	;# 
  3603  0FEA                     	;# 
  3604  0FEB                     	;# 
  3605  0FED                     	;# 
  3606  0FEE                     	;# 
  3607  0FEF                     	;# 
  3608  0016                     _LATA	set	22
  3609  0017                     _LATB	set	23
  3610  0018                     _LATC	set	24
  3611  0011                     _TRISA	set	17
  3612  0012                     _TRISB	set	18
  3613  0013                     _TRISC	set	19
  3614  005F                     _GIE	set	95
  3615  021E                     _CCPTMRS0bits	set	542
  3616  028D                     _PR2	set	653
  3617  0290                     _T2CLKCON	set	656
  3618  028E                     _T2CON	set	654
  3619  028E                     _T2CONbits	set	654
  3620  028F                     _T2HLT	set	655
  3621  028F                     _T2HLTbits	set	655
  3622  028D                     _T2PR	set	653
  3623  0291                     _T2RST	set	657
  3624  0291                     _T2RSTbits	set	657
  3625  028C                     _T2TMR	set	652
  3626  028C                     _TMR2	set	652
  3627  030E                     _CCP1CON	set	782
  3628  030E                     _CCP1CONbits	set	782
  3629  0312                     _CCP2CON	set	786
  3630  0312                     _CCP2CONbits	set	786
  3631  0316                     _CCP3CON	set	790
  3632  0316                     _CCP3CONbits	set	790
  3633  030D                     _CCPR1H	set	781
  3634  030C                     _CCPR1L	set	780
  3635  0311                     _CCPR2H	set	785
  3636  0310                     _CCPR2L	set	784
  3637  0315                     _CCPR3H	set	789
  3638  0314                     _CCPR3L	set	788
  3639  0710                     _PIR4bits	set	1808
  3640  088D                     _OSCCON1	set	2189
  3641  088F                     _OSCCON3	set	2191
  3642  0891                     _OSCEN	set	2193
  3643  0893                     _OSCFRQ	set	2195
  3644  0892                     _OSCTUNE	set	2194
  3645  0E8F                     _PPSLOCK	set	3727
  3646  0E8F                     _PPSLOCKbits	set	3727
  3647  0E9C                     _T2AINPPSbits	set	3740
  3648  0F38                     _ANSELA	set	3896
  3649  0F43                     _ANSELB	set	3907
  3650  0F4E                     _ANSELC	set	3918
  3651  0F3A                     _ODCONA	set	3898
  3652  0F45                     _ODCONB	set	3909
  3653  0F50                     _ODCONC	set	3920
  3654  0F24                     _RC4PPS	set	3876
  3655  0F25                     _RC5PPS	set	3877
  3656  0F26                     _RC6PPS	set	3878
  3657  0F39                     _WPUA	set	3897
  3658  0F44                     _WPUB	set	3908
  3659  0F4F                     _WPUC	set	3919
  3660  0F65                     _WPUE	set	3941
  3661                           
  3662                           ; #config settings
  3663  0000                     
  3664                           	psect	cinit
  3665  07FB                     start_initialization:	
  3666  07FB                     __initialization:	
  3667                           
  3668                           ; Clear objects allocated to COMMON
  3669  07FB  01F0               	clrf	__pbssCOMMON& (0+127)
  3670  07FC  01F1               	clrf	(__pbssCOMMON+1)& (0+127)
  3671  07FD                     end_of_initialization:	
  3672                           ;End of C runtime variable initialization code
  3673                           
  3674  07FD                     __end_of__initialization:	
  3675  07FD  0020               	movlb	0
  3676  07FE  3187  2F70         	ljmp	_main	;jump to C main() function
  3677                           
  3678                           	psect	bssCOMMON
  3679  0070                     __pbssCOMMON:	
  3680  0070                     _TMR2_InterruptHandler:	
  3681  0070                     	ds	2
  3682                           
  3683                           	psect	cstackCOMMON
  3684  0072                     __pcstackCOMMON:	
  3685  0072                     ?_TMR2_Start:	
  3686  0072                     ??_TMR2_Start:	
  3687                           ; 1 bytes @ 0x0
  3688                           
  3689  0072                     ?_OSCILLATOR_Initialize:	
  3690                           ; 1 bytes @ 0x0
  3691                           
  3692  0072                     ??_OSCILLATOR_Initialize:	
  3693                           ; 1 bytes @ 0x0
  3694                           
  3695  0072                     ?_PWM3_Initialize:	
  3696                           ; 1 bytes @ 0x0
  3697                           
  3698  0072                     ??_PWM3_Initialize:	
  3699                           ; 1 bytes @ 0x0
  3700                           
  3701  0072                     ?_TMR2_Initialize:	
  3702                           ; 1 bytes @ 0x0
  3703                           
  3704  0072                     ??_TMR2_Initialize:	
  3705                           ; 1 bytes @ 0x0
  3706                           
  3707  0072                     ?_PIN_MANAGER_Initialize:	
  3708                           ; 1 bytes @ 0x0
  3709                           
  3710  0072                     ??_PIN_MANAGER_Initialize:	
  3711                           ; 1 bytes @ 0x0
  3712                           
  3713  0072                     ?_PWM1_Initialize:	
  3714                           ; 1 bytes @ 0x0
  3715                           
  3716  0072                     ??_PWM1_Initialize:	
  3717                           ; 1 bytes @ 0x0
  3718                           
  3719  0072                     ?_PWM2_Initialize:	
  3720                           ; 1 bytes @ 0x0
  3721                           
  3722  0072                     ??_PWM2_Initialize:	
  3723                           ; 1 bytes @ 0x0
  3724                           
  3725  0072                     ?_SYSTEM_Initialize:	
  3726                           ; 1 bytes @ 0x0
  3727                           
  3728  0072                     ?_main:	
  3729                           ; 1 bytes @ 0x0
  3730                           
  3731  0072                     PIN_MANAGER_Initialize@state:	
  3732                           ; 1 bytes @ 0x0
  3733                           
  3734                           
  3735                           ; 1 bytes @ 0x0
  3736  0072                     	ds	1
  3737  0073                     ??_SYSTEM_Initialize:	
  3738  0073                     ??_main:	
  3739                           ; 1 bytes @ 0x1
  3740                           
  3741                           
  3742                           	psect	maintext
  3743  0770                     __pmaintext:	
  3744                           ; 1 bytes @ 0x1
  3745 ;;
  3746 ;;Main: autosize = 0, tempsize = 0, incstack = 0, save=0
  3747 ;;
  3748 ;; *************** function _main *****************
  3749 ;; Defined at:
  3750 ;;		line 51 in file "main.c"
  3751 ;; Parameters:    Size  Location     Type
  3752 ;;		None
  3753 ;; Auto vars:     Size  Location     Type
  3754 ;;		None
  3755 ;; Return value:  Size  Location     Type
  3756 ;;                  1    wreg      void 
  3757 ;; Registers used:
  3758 ;;		wreg, status,2, status,0, pclath, cstack
  3759 ;; Tracked objects:
  3760 ;;		On entry : B1F/0
  3761 ;;		On exit  : 0/0
  3762 ;;		Unchanged: 0/0
  3763 ;; Data sizes:     COMMON   BANK0   BANK1   BANK2   BANK3   BANK4   BANK5   BANK6   BANK7   BANK8   BANK9  BANK10  BANK1
      +1  BANK12
  3764 ;;      Params:         0       0       0       0       0       0       0       0       0       0       0       0       
      +0       0
  3765 ;;      Locals:         0       0       0       0       0       0       0       0       0       0       0       0       
      +0       0
  3766 ;;      Temps:          0       0       0       0       0       0       0       0       0       0       0       0       
      +0       0
  3767 ;;      Totals:         0       0       0       0       0       0       0       0       0       0       0       0       
      +0       0
  3768 ;;Total ram usage:        0 bytes
  3769 ;; Hardware stack levels required when called:    3
  3770 ;; This function calls:
  3771 ;;		_SYSTEM_Initialize
  3772 ;; This function is called by:
  3773 ;;		Startup code after reset
  3774 ;; This function uses a non-reentrant model
  3775 ;;
  3776                           
  3777                           
  3778                           ;psect for function _main
  3779  0770                     _main:	
  3780                           
  3781                           ;main.c: 54: SYSTEM_Initialize();
  3782                           
  3783                           ;incstack = 0
  3784                           ; Regs used in _main: [wreg+status,2+status,0+pclath+cstack]
  3785  0770  3187  27AF  3187   	fcall	_SYSTEM_Initialize
  3786  0773                     l198:	
  3787                           ;main.c: 71: while (1)
  3788                           
  3789                           
  3790                           ;main.c: 72: {
  3791  0773  2F73               	goto	l198
  3792  0774                     __end_of_main:	
  3793                           
  3794                           	psect	text1
  3795  07AF                     __ptext1:	
  3796 ;; *************** function _SYSTEM_Initialize *****************
  3797 ;; Defined at:
  3798 ;;		line 83 in file "mcc_generated_files/mcc.c"
  3799 ;; Parameters:    Size  Location     Type
  3800 ;;		None
  3801 ;; Auto vars:     Size  Location     Type
  3802 ;;		None
  3803 ;; Return value:  Size  Location     Type
  3804 ;;                  1    wreg      void 
  3805 ;; Registers used:
  3806 ;;		wreg, status,2, status,0, pclath, cstack
  3807 ;; Tracked objects:
  3808 ;;		On entry : 0/0
  3809 ;;		On exit  : 0/0
  3810 ;;		Unchanged: 0/0
  3811 ;; Data sizes:     COMMON   BANK0   BANK1   BANK2   BANK3   BANK4   BANK5   BANK6   BANK7   BANK8   BANK9  BANK10  BANK1
      +1  BANK12
  3812 ;;      Params:         0       0       0       0       0       0       0       0       0       0       0       0       
      +0       0
  3813 ;;      Locals:         0       0       0       0       0       0       0       0       0       0       0       0       
      +0       0
  3814 ;;      Temps:          0       0       0       0       0       0       0       0       0       0       0       0       
      +0       0
  3815 ;;      Totals:         0       0       0       0       0       0       0       0       0       0       0       0       
      +0       0
  3816 ;;Total ram usage:        0 bytes
  3817 ;; Hardware stack levels used:    1
  3818 ;; Hardware stack levels required when called:    2
  3819 ;; This function calls:
  3820 ;;		_OSCILLATOR_Initialize
  3821 ;;		_PIN_MANAGER_Initialize
  3822 ;;		_PWM1_Initialize
  3823 ;;		_PWM2_Initialize
  3824 ;;		_PWM3_Initialize
  3825 ;;		_TMR2_Initialize
  3826 ;; This function is called by:
  3827 ;;		_main
  3828 ;; This function uses a non-reentrant model
  3829 ;;
  3830                           
  3831                           
  3832                           ;psect for function _SYSTEM_Initialize
  3833  07AF                     _SYSTEM_Initialize:	
  3834                           
  3835                           ;mcc.c: 86: PIN_MANAGER_Initialize();
  3836                           
  3837                           ;incstack = 0
  3838                           ; Regs used in _SYSTEM_Initialize: [wreg+status,2+status,0+pclath+cstack]
  3839  07AF  3187  27C1  3187   	fcall	_PIN_MANAGER_Initialize
  3840                           
  3841                           ;mcc.c: 87: OSCILLATOR_Initialize();
  3842  07B2  3187  2774  3187   	fcall	_OSCILLATOR_Initialize
  3843                           
  3844                           ;mcc.c: 88: PWM1_Initialize();
  3845  07B5  3187  2787  3187   	fcall	_PWM1_Initialize
  3846                           
  3847                           ;mcc.c: 89: PWM3_Initialize();
  3848  07B8  3187  277C  3187   	fcall	_PWM3_Initialize
  3849                           
  3850                           ;mcc.c: 90: TMR2_Initialize();
  3851  07BB  3187  27A1  3187   	fcall	_TMR2_Initialize
  3852                           
  3853                           ;mcc.c: 91: PWM2_Initialize();
  3854  07BE  3187  2794         	fcall	_PWM2_Initialize
  3855  07C0  0008               	return
  3856  07C1                     __end_of_SYSTEM_Initialize:	
  3857                           
  3858                           	psect	text2
  3859  07A1                     __ptext2:	
  3860 ;; *************** function _TMR2_Initialize *****************
  3861 ;; Defined at:
  3862 ;;		line 63 in file "mcc_generated_files/tmr2.c"
  3863 ;; Parameters:    Size  Location     Type
  3864 ;;		None
  3865 ;; Auto vars:     Size  Location     Type
  3866 ;;		None
  3867 ;; Return value:  Size  Location     Type
  3868 ;;                  1    wreg      void 
  3869 ;; Registers used:
  3870 ;;		wreg, status,2, status,0, pclath, cstack
  3871 ;; Tracked objects:
  3872 ;;		On entry : 0/0
  3873 ;;		On exit  : 0/0
  3874 ;;		Unchanged: 0/0
  3875 ;; Data sizes:     COMMON   BANK0   BANK1   BANK2   BANK3   BANK4   BANK5   BANK6   BANK7   BANK8   BANK9  BANK10  BANK1
      +1  BANK12
  3876 ;;      Params:         0       0       0       0       0       0       0       0       0       0       0       0       
      +0       0
  3877 ;;      Locals:         0       0       0       0       0       0       0       0       0       0       0       0       
      +0       0
  3878 ;;      Temps:          0       0       0       0       0       0       0       0       0       0       0       0       
      +0       0
  3879 ;;      Totals:         0       0       0       0       0       0       0       0       0       0       0       0       
      +0       0
  3880 ;;Total ram usage:        0 bytes
  3881 ;; Hardware stack levels used:    1
  3882 ;; Hardware stack levels required when called:    1
  3883 ;; This function calls:
  3884 ;;		_TMR2_Start
  3885 ;; This function is called by:
  3886 ;;		_SYSTEM_Initialize
  3887 ;; This function uses a non-reentrant model
  3888 ;;
  3889                           
  3890                           
  3891                           ;psect for function _TMR2_Initialize
  3892  07A1                     _TMR2_Initialize:	
  3893                           
  3894                           ;tmr2.c: 68: T2CON = 0x00;
  3895                           
  3896                           ;incstack = 0
  3897                           ; Regs used in _TMR2_Initialize: [wreg+status,2+status,0+pclath+cstack]
  3898  07A1  0025               	movlb	5	; select bank5
  3899  07A2  018E               	clrf	14	;volatile
  3900                           
  3901                           ;tmr2.c: 71: T2CLKCON = 0x01;
  3902  07A3  3001               	movlw	1
  3903  07A4  0090               	movwf	16	;volatile
  3904                           
  3905                           ;tmr2.c: 74: T2HLT = 0x00;
  3906  07A5  018F               	clrf	15	;volatile
  3907                           
  3908                           ;tmr2.c: 77: T2RST = 0x00;
  3909  07A6  0191               	clrf	17	;volatile
  3910                           
  3911                           ;tmr2.c: 80: T2PR = 0xFF;
  3912  07A7  30FF               	movlw	255
  3913  07A8  008D               	movwf	13	;volatile
  3914                           
  3915                           ;tmr2.c: 83: T2TMR = 0x00;
  3916  07A9  018C               	clrf	12	;volatile
  3917                           
  3918                           ;tmr2.c: 86: PIR4bits.TMR2IF = 0;
  3919  07AA  002E               	movlb	14	; select bank14
  3920  07AB  1090               	bcf	16,1	;volatile
  3921                           
  3922                           ;tmr2.c: 89: TMR2_Start();
  3923  07AC  3187  276D         	fcall	_TMR2_Start
  3924  07AE  0008               	return
  3925  07AF                     __end_of_TMR2_Initialize:	
  3926                           
  3927                           	psect	text3
  3928  076D                     __ptext3:	
  3929 ;; *************** function _TMR2_Start *****************
  3930 ;; Defined at:
  3931 ;;		line 104 in file "mcc_generated_files/tmr2.c"
  3932 ;; Parameters:    Size  Location     Type
  3933 ;;		None
  3934 ;; Auto vars:     Size  Location     Type
  3935 ;;		None
  3936 ;; Return value:  Size  Location     Type
  3937 ;;                  1    wreg      void 
  3938 ;; Registers used:
  3939 ;;		None
  3940 ;; Tracked objects:
  3941 ;;		On entry : 0/0
  3942 ;;		On exit  : 0/0
  3943 ;;		Unchanged: 0/0
  3944 ;; Data sizes:     COMMON   BANK0   BANK1   BANK2   BANK3   BANK4   BANK5   BANK6   BANK7   BANK8   BANK9  BANK10  BANK1
      +1  BANK12
  3945 ;;      Params:         0       0       0       0       0       0       0       0       0       0       0       0       
      +0       0
  3946 ;;      Locals:         0       0       0       0       0       0       0       0       0       0       0       0       
      +0       0
  3947 ;;      Temps:          0       0       0       0       0       0       0       0       0       0       0       0       
      +0       0
  3948 ;;      Totals:         0       0       0       0       0       0       0       0       0       0       0       0       
      +0       0
  3949 ;;Total ram usage:        0 bytes
  3950 ;; Hardware stack levels used:    1
  3951 ;; This function calls:
  3952 ;;		Nothing
  3953 ;; This function is called by:
  3954 ;;		_TMR2_Initialize
  3955 ;;		_TMR2_StartTimer
  3956 ;; This function uses a non-reentrant model
  3957 ;;
  3958                           
  3959                           
  3960                           ;psect for function _TMR2_Start
  3961  076D                     _TMR2_Start:	
  3962                           
  3963                           ;tmr2.c: 107: T2CONbits.TMR2ON = 1;
  3964                           
  3965                           ;incstack = 0
  3966                           ; Regs used in _TMR2_Start: []
  3967  076D  0025               	movlb	5	; select bank5
  3968  076E  178E               	bsf	14,7	;volatile
  3969  076F  0008               	return
  3970  0770                     __end_of_TMR2_Start:	
  3971                           
  3972                           	psect	text4
  3973  077C                     __ptext4:	
  3974 ;; *************** function _PWM3_Initialize *****************
  3975 ;; Defined at:
  3976 ;;		line 63 in file "mcc_generated_files/pwm3.c"
  3977 ;; Parameters:    Size  Location     Type
  3978 ;;		None
  3979 ;; Auto vars:     Size  Location     Type
  3980 ;;		None
  3981 ;; Return value:  Size  Location     Type
  3982 ;;                  1    wreg      void 
  3983 ;; Registers used:
  3984 ;;		wreg, status,2, status,0
  3985 ;; Tracked objects:
  3986 ;;		On entry : 0/0
  3987 ;;		On exit  : 0/0
  3988 ;;		Unchanged: 0/0
  3989 ;; Data sizes:     COMMON   BANK0   BANK1   BANK2   BANK3   BANK4   BANK5   BANK6   BANK7   BANK8   BANK9  BANK10  BANK1
      +1  BANK12
  3990 ;;      Params:         0       0       0       0       0       0       0       0       0       0       0       0       
      +0       0
  3991 ;;      Locals:         0       0       0       0       0       0       0       0       0       0       0       0       
      +0       0
  3992 ;;      Temps:          0       0       0       0       0       0       0       0       0       0       0       0       
      +0       0
  3993 ;;      Totals:         0       0       0       0       0       0       0       0       0       0       0       0       
      +0       0
  3994 ;;Total ram usage:        0 bytes
  3995 ;; Hardware stack levels used:    1
  3996 ;; This function calls:
  3997 ;;		Nothing
  3998 ;; This function is called by:
  3999 ;;		_SYSTEM_Initialize
  4000 ;; This function uses a non-reentrant model
  4001 ;;
  4002                           
  4003                           
  4004                           ;psect for function _PWM3_Initialize
  4005  077C                     _PWM3_Initialize:	
  4006                           
  4007                           ;pwm3.c: 68: CCP3CON = 0x8F;
  4008                           
  4009                           ;incstack = 0
  4010                           ; Regs used in _PWM3_Initialize: [wreg+status,2+status,0]
  4011  077C  308F               	movlw	143
  4012  077D  0026               	movlb	6	; select bank6
  4013  077E  0096               	movwf	22	;volatile
  4014                           
  4015                           ;pwm3.c: 71: CCPR3H = 0x00;
  4016  077F  0195               	clrf	21	;volatile
  4017                           
  4018                           ;pwm3.c: 74: CCPR3L = 0x00;
  4019  0780  0194               	clrf	20	;volatile
  4020                           
  4021                           ;pwm3.c: 77: CCPTMRS0bits.C3TSEL = 0x1;
  4022  0781  0024               	movlb	4	; select bank4
  4023  0782  081E               	movf	30,w	;volatile
  4024  0783  39CF               	andlw	-49
  4025  0784  3810               	iorlw	16
  4026  0785  009E               	movwf	30	;volatile
  4027  0786  0008               	return
  4028  0787                     __end_of_PWM3_Initialize:	
  4029                           
  4030                           	psect	text5
  4031  0794                     __ptext5:	
  4032 ;; *************** function _PWM2_Initialize *****************
  4033 ;; Defined at:
  4034 ;;		line 63 in file "mcc_generated_files/pwm2.c"
  4035 ;; Parameters:    Size  Location     Type
  4036 ;;		None
  4037 ;; Auto vars:     Size  Location     Type
  4038 ;;		None
  4039 ;; Return value:  Size  Location     Type
  4040 ;;                  1    wreg      void 
  4041 ;; Registers used:
  4042 ;;		wreg, status,2, status,0
  4043 ;; Tracked objects:
  4044 ;;		On entry : 0/0
  4045 ;;		On exit  : 0/0
  4046 ;;		Unchanged: 0/0
  4047 ;; Data sizes:     COMMON   BANK0   BANK1   BANK2   BANK3   BANK4   BANK5   BANK6   BANK7   BANK8   BANK9  BANK10  BANK1
      +1  BANK12
  4048 ;;      Params:         0       0       0       0       0       0       0       0       0       0       0       0       
      +0       0
  4049 ;;      Locals:         0       0       0       0       0       0       0       0       0       0       0       0       
      +0       0
  4050 ;;      Temps:          0       0       0       0       0       0       0       0       0       0       0       0       
      +0       0
  4051 ;;      Totals:         0       0       0       0       0       0       0       0       0       0       0       0       
      +0       0
  4052 ;;Total ram usage:        0 bytes
  4053 ;; Hardware stack levels used:    1
  4054 ;; This function calls:
  4055 ;;		Nothing
  4056 ;; This function is called by:
  4057 ;;		_SYSTEM_Initialize
  4058 ;; This function uses a non-reentrant model
  4059 ;;
  4060                           
  4061                           
  4062                           ;psect for function _PWM2_Initialize
  4063  0794                     _PWM2_Initialize:	
  4064                           
  4065                           ;pwm2.c: 68: CCP2CON = 0x8F;
  4066                           
  4067                           ;incstack = 0
  4068                           ; Regs used in _PWM2_Initialize: [wreg+status,2+status,0]
  4069  0794  308F               	movlw	143
  4070  0795  0026               	movlb	6	; select bank6
  4071  0796  0092               	movwf	18	;volatile
  4072                           
  4073                           ;pwm2.c: 71: CCPR2H = 0x01;
  4074  0797  3001               	movlw	1
  4075  0798  0091               	movwf	17	;volatile
  4076                           
  4077                           ;pwm2.c: 74: CCPR2L = 0xFF;
  4078  0799  30FF               	movlw	255
  4079  079A  0090               	movwf	16	;volatile
  4080                           
  4081                           ;pwm2.c: 77: CCPTMRS0bits.C2TSEL = 0x1;
  4082  079B  0024               	movlb	4	; select bank4
  4083  079C  081E               	movf	30,w	;volatile
  4084  079D  39F3               	andlw	-13
  4085  079E  3804               	iorlw	4
  4086  079F  009E               	movwf	30	;volatile
  4087  07A0  0008               	return
  4088  07A1                     __end_of_PWM2_Initialize:	
  4089                           
  4090                           	psect	text6
  4091  0787                     __ptext6:	
  4092 ;; *************** function _PWM1_Initialize *****************
  4093 ;; Defined at:
  4094 ;;		line 63 in file "mcc_generated_files/pwm1.c"
  4095 ;; Parameters:    Size  Location     Type
  4096 ;;		None
  4097 ;; Auto vars:     Size  Location     Type
  4098 ;;		None
  4099 ;; Return value:  Size  Location     Type
  4100 ;;                  1    wreg      void 
  4101 ;; Registers used:
  4102 ;;		wreg, status,2, status,0
  4103 ;; Tracked objects:
  4104 ;;		On entry : 0/0
  4105 ;;		On exit  : 0/0
  4106 ;;		Unchanged: 0/0
  4107 ;; Data sizes:     COMMON   BANK0   BANK1   BANK2   BANK3   BANK4   BANK5   BANK6   BANK7   BANK8   BANK9  BANK10  BANK1
      +1  BANK12
  4108 ;;      Params:         0       0       0       0       0       0       0       0       0       0       0       0       
      +0       0
  4109 ;;      Locals:         0       0       0       0       0       0       0       0       0       0       0       0       
      +0       0
  4110 ;;      Temps:          0       0       0       0       0       0       0       0       0       0       0       0       
      +0       0
  4111 ;;      Totals:         0       0       0       0       0       0       0       0       0       0       0       0       
      +0       0
  4112 ;;Total ram usage:        0 bytes
  4113 ;; Hardware stack levels used:    1
  4114 ;; This function calls:
  4115 ;;		Nothing
  4116 ;; This function is called by:
  4117 ;;		_SYSTEM_Initialize
  4118 ;; This function uses a non-reentrant model
  4119 ;;
  4120                           
  4121                           
  4122                           ;psect for function _PWM1_Initialize
  4123  0787                     _PWM1_Initialize:	
  4124                           
  4125                           ;pwm1.c: 68: CCP1CON = 0x8F;
  4126                           
  4127                           ;incstack = 0
  4128                           ; Regs used in _PWM1_Initialize: [wreg+status,2+status,0]
  4129  0787  308F               	movlw	143
  4130  0788  0026               	movlb	6	; select bank6
  4131  0789  008E               	movwf	14	;volatile
  4132                           
  4133                           ;pwm1.c: 71: CCPR1H = 0x01;
  4134  078A  3001               	movlw	1
  4135  078B  008D               	movwf	13	;volatile
  4136                           
  4137                           ;pwm1.c: 74: CCPR1L = 0xFF;
  4138  078C  30FF               	movlw	255
  4139  078D  008C               	movwf	12	;volatile
  4140                           
  4141                           ;pwm1.c: 77: CCPTMRS0bits.C1TSEL = 0x1;
  4142  078E  0024               	movlb	4	; select bank4
  4143  078F  081E               	movf	30,w	;volatile
  4144  0790  39FC               	andlw	-4
  4145  0791  3801               	iorlw	1
  4146  0792  009E               	movwf	30	;volatile
  4147  0793  0008               	return
  4148  0794                     __end_of_PWM1_Initialize:	
  4149                           
  4150                           	psect	text7
  4151  07C1                     __ptext7:	
  4152 ;; *************** function _PIN_MANAGER_Initialize *****************
  4153 ;; Defined at:
  4154 ;;		line 51 in file "mcc_generated_files/pin_manager.c"
  4155 ;; Parameters:    Size  Location     Type
  4156 ;;		None
  4157 ;; Auto vars:     Size  Location     Type
  4158 ;;  state           1    0[COMMON] unsigned char 
  4159 ;; Return value:  Size  Location     Type
  4160 ;;                  1    wreg      void 
  4161 ;; Registers used:
  4162 ;;		wreg, status,2, status,0
  4163 ;; Tracked objects:
  4164 ;;		On entry : 0/0
  4165 ;;		On exit  : 0/0
  4166 ;;		Unchanged: 0/0
  4167 ;; Data sizes:     COMMON   BANK0   BANK1   BANK2   BANK3   BANK4   BANK5   BANK6   BANK7   BANK8   BANK9  BANK10  BANK1
      +1  BANK12
  4168 ;;      Params:         0       0       0       0       0       0       0       0       0       0       0       0       
      +0       0
  4169 ;;      Locals:         1       0       0       0       0       0       0       0       0       0       0       0       
      +0       0
  4170 ;;      Temps:          0       0       0       0       0       0       0       0       0       0       0       0       
      +0       0
  4171 ;;      Totals:         1       0       0       0       0       0       0       0       0       0       0       0       
      +0       0
  4172 ;;Total ram usage:        1 bytes
  4173 ;; Hardware stack levels used:    1
  4174 ;; This function calls:
  4175 ;;		Nothing
  4176 ;; This function is called by:
  4177 ;;		_SYSTEM_Initialize
  4178 ;; This function uses a non-reentrant model
  4179 ;;
  4180                           
  4181                           
  4182                           ;psect for function _PIN_MANAGER_Initialize
  4183  07C1                     _PIN_MANAGER_Initialize:	
  4184                           
  4185                           ;pin_manager.c: 56: LATA = 0x00;
  4186                           
  4187                           ;incstack = 0
  4188                           ; Regs used in _PIN_MANAGER_Initialize: [wreg+status,2+status,0]
  4189  07C1  0020               	movlb	0	; select bank0
  4190  07C2  0196               	clrf	22	;volatile
  4191                           
  4192                           ;pin_manager.c: 57: LATB = 0x00;
  4193  07C3  0197               	clrf	23	;volatile
  4194                           
  4195                           ;pin_manager.c: 58: LATC = 0x00;
  4196  07C4  0198               	clrf	24	;volatile
  4197                           
  4198                           ;pin_manager.c: 63: TRISA = 0xFF;
  4199  07C5  30FF               	movlw	255
  4200  07C6  0091               	movwf	17	;volatile
  4201                           
  4202                           ;pin_manager.c: 64: TRISB = 0xFF;
  4203  07C7  30FF               	movlw	255
  4204  07C8  0092               	movwf	18	;volatile
  4205                           
  4206                           ;pin_manager.c: 65: TRISC = 0x8F;
  4207  07C9  308F               	movlw	143
  4208  07CA  0093               	movwf	19	;volatile
  4209                           
  4210                           ;pin_manager.c: 70: ANSELC = 0xF7;
  4211  07CB  30F7               	movlw	247
  4212  07CC  003E               	movlb	30	; select bank30
  4213  07CD  00CE               	movwf	78	;volatile
  4214                           
  4215                           ;pin_manager.c: 71: ANSELB = 0xFF;
  4216  07CE  30FF               	movlw	255
  4217  07CF  00C3               	movwf	67	;volatile
  4218                           
  4219                           ;pin_manager.c: 72: ANSELA = 0xFF;
  4220  07D0  30FF               	movlw	255
  4221  07D1  00B8               	movwf	56	;volatile
  4222                           
  4223                           ;pin_manager.c: 77: WPUE = 0x00;
  4224  07D2  01E5               	clrf	101	;volatile
  4225                           
  4226                           ;pin_manager.c: 78: WPUB = 0x00;
  4227  07D3  01C4               	clrf	68	;volatile
  4228                           
  4229                           ;pin_manager.c: 79: WPUA = 0x00;
  4230  07D4  01B9               	clrf	57	;volatile
  4231                           
  4232                           ;pin_manager.c: 80: WPUC = 0x00;
  4233  07D5  01CF               	clrf	79	;volatile
  4234                           
  4235                           ;pin_manager.c: 85: ODCONA = 0x00;
  4236  07D6  01BA               	clrf	58	;volatile
  4237                           
  4238                           ;pin_manager.c: 86: ODCONB = 0x00;
  4239  07D7  01C5               	clrf	69	;volatile
  4240                           
  4241                           ;pin_manager.c: 87: ODCONC = 0x00;
  4242  07D8  01D0               	clrf	80	;volatile
  4243                           
  4244                           ;pin_manager.c: 94: bool state = GIE;
  4245  07D9  3000               	movlw	0
  4246  07DA  1B8B               	btfsc	11,7	;volatile
  4247  07DB  3001               	movlw	1
  4248  07DC  00F2               	movwf	PIN_MANAGER_Initialize@state
  4249                           
  4250                           ;pin_manager.c: 95: GIE = 0;
  4251  07DD  138B               	bcf	11,7	;volatile
  4252                           
  4253                           ;pin_manager.c: 96: PPSLOCK = 0x55;
  4254  07DE  3055               	movlw	85
  4255  07DF  003D               	movlb	29	; select bank29
  4256  07E0  008F               	movwf	15	;volatile
  4257                           
  4258                           ;pin_manager.c: 97: PPSLOCK = 0xAA;
  4259  07E1  30AA               	movlw	170
  4260  07E2  008F               	movwf	15	;volatile
  4261                           
  4262                           ;pin_manager.c: 98: PPSLOCKbits.PPSLOCKED = 0x00;
  4263  07E3  100F               	bcf	15,0	;volatile
  4264                           
  4265                           ;pin_manager.c: 100: T2AINPPSbits.T2AINPPS = 0x13;
  4266  07E4  081C               	movf	28,w	;volatile
  4267  07E5  39E0               	andlw	-32
  4268  07E6  3813               	iorlw	19
  4269  07E7  009C               	movwf	28	;volatile
  4270                           
  4271                           ;pin_manager.c: 101: RC5PPS = 0x0A;
  4272  07E8  300A               	movlw	10
  4273  07E9  003E               	movlb	30	; select bank30
  4274  07EA  00A5               	movwf	37	;volatile
  4275                           
  4276                           ;pin_manager.c: 102: RC6PPS = 0x0B;
  4277  07EB  300B               	movlw	11
  4278  07EC  00A6               	movwf	38	;volatile
  4279                           
  4280                           ;pin_manager.c: 103: RC4PPS = 0x09;
  4281  07ED  3009               	movlw	9
  4282  07EE  00A4               	movwf	36	;volatile
  4283                           
  4284                           ;pin_manager.c: 105: PPSLOCK = 0x55;
  4285  07EF  3055               	movlw	85
  4286  07F0  003D               	movlb	29	; select bank29
  4287  07F1  008F               	movwf	15	;volatile
  4288                           
  4289                           ;pin_manager.c: 106: PPSLOCK = 0xAA;
  4290  07F2  30AA               	movlw	170
  4291  07F3  008F               	movwf	15	;volatile
  4292                           
  4293                           ;pin_manager.c: 107: PPSLOCKbits.PPSLOCKED = 0x01;
  4294  07F4  140F               	bsf	15,0	;volatile
  4295                           
  4296                           ;pin_manager.c: 109: GIE = state;
  4297  07F5  1C72               	btfss	PIN_MANAGER_Initialize@state,0
  4298  07F6  2FF9               	goto	u10
  4299  07F7  178B               	bsf	11,7	;volatile
  4300  07F8  0008               	return
  4301  07F9                     u10:	
  4302  07F9  138B               	bcf	11,7	;volatile
  4303  07FA  0008               	return
  4304  07FB                     __end_of_PIN_MANAGER_Initialize:	
  4305                           
  4306                           	psect	text8
  4307  0774                     __ptext8:	
  4308 ;; *************** function _OSCILLATOR_Initialize *****************
  4309 ;; Defined at:
  4310 ;;		line 94 in file "mcc_generated_files/mcc.c"
  4311 ;; Parameters:    Size  Location     Type
  4312 ;;		None
  4313 ;; Auto vars:     Size  Location     Type
  4314 ;;		None
  4315 ;; Return value:  Size  Location     Type
  4316 ;;                  1    wreg      void 
  4317 ;; Registers used:
  4318 ;;		wreg, status,2
  4319 ;; Tracked objects:
  4320 ;;		On entry : 0/0
  4321 ;;		On exit  : 0/0
  4322 ;;		Unchanged: 0/0
  4323 ;; Data sizes:     COMMON   BANK0   BANK1   BANK2   BANK3   BANK4   BANK5   BANK6   BANK7   BANK8   BANK9  BANK10  BANK1
      +1  BANK12
  4324 ;;      Params:         0       0       0       0       0       0       0       0       0       0       0       0       
      +0       0
  4325 ;;      Locals:         0       0       0       0       0       0       0       0       0       0       0       0       
      +0       0
  4326 ;;      Temps:          0       0       0       0       0       0       0       0       0       0       0       0       
      +0       0
  4327 ;;      Totals:         0       0       0       0       0       0       0       0       0       0       0       0       
      +0       0
  4328 ;;Total ram usage:        0 bytes
  4329 ;; Hardware stack levels used:    1
  4330 ;; This function calls:
  4331 ;;		Nothing
  4332 ;; This function is called by:
  4333 ;;		_SYSTEM_Initialize
  4334 ;; This function uses a non-reentrant model
  4335 ;;
  4336                           
  4337                           
  4338                           ;psect for function _OSCILLATOR_Initialize
  4339  0774                     _OSCILLATOR_Initialize:	
  4340                           
  4341                           ;mcc.c: 97: OSCCON1 = 0x62;
  4342                           
  4343                           ;incstack = 0
  4344                           ; Regs used in _OSCILLATOR_Initialize: [wreg+status,2]
  4345  0774  3062               	movlw	98
  4346  0775  0031               	movlb	17	; select bank17
  4347  0776  008D               	movwf	13	;volatile
  4348                           
  4349                           ;mcc.c: 99: OSCCON3 = 0x00;
  4350  0777  018F               	clrf	15	;volatile
  4351                           
  4352                           ;mcc.c: 101: OSCEN = 0x00;
  4353  0778  0191               	clrf	17	;volatile
  4354                           
  4355                           ;mcc.c: 103: OSCFRQ = 0x00;
  4356  0779  0193               	clrf	19	;volatile
  4357                           
  4358                           ;mcc.c: 105: OSCTUNE = 0x00;
  4359  077A  0192               	clrf	18	;volatile
  4360  077B  0008               	return
  4361  077C                     __end_of_OSCILLATOR_Initialize:	
  4362  007E                     btemp	set	126	;btemp
  4363  007E                     wtemp	set	126
  4364  007E                     wtemp0	set	126
  4365  0080                     wtemp1	set	128
  4366  0082                     wtemp2	set	130
  4367  0084                     wtemp3	set	132
  4368  0086                     wtemp4	set	134
  4369  0088                     wtemp5	set	136
  4370  007F                     wtemp6	set	127
  4371  007E                     ttemp	set	126
  4372  007E                     ttemp0	set	126
  4373  0081                     ttemp1	set	129
  4374  0084                     ttemp2	set	132
  4375  0087                     ttemp3	set	135
  4376  007F                     ttemp4	set	127
  4377  007E                     ltemp	set	126
  4378  007E                     ltemp0	set	126
  4379  0082                     ltemp1	set	130
  4380  0086                     ltemp2	set	134
  4381  0080                     ltemp3	set	128


Data Sizes:
    Strings     0
    Constant    0
    Data        0
    BSS         2
    Persistent  0
    Stack       0

Auto Spaces:
    Space          Size  Autos    Used
    COMMON           14      1       3
    BANK0            80      0       0
    BANK1            80      0       0
    BANK2            80      0       0
    BANK3            80      0       0
    BANK4            80      0       0
    BANK5            80      0       0
    BANK6            80      0       0
    BANK7            80      0       0
    BANK8            80      0       0
    BANK9            80      0       0
    BANK10           80      0       0
    BANK11           80      0       0
    BANK12           48      0       0

Pointer List with Targets:

    TMR2_InterruptHandler	PTR FTN()void  size(2) Largest target is 1
		 -> Absolute function(), 


Critical Paths under _main in COMMON

    _SYSTEM_Initialize->_PIN_MANAGER_Initialize

Critical Paths under _main in BANK0

    None.

Critical Paths under _main in BANK1

    None.

Critical Paths under _main in BANK2

    None.

Critical Paths under _main in BANK3

    None.

Critical Paths under _main in BANK4

    None.

Critical Paths under _main in BANK5

    None.

Critical Paths under _main in BANK6

    None.

Critical Paths under _main in BANK7

    None.

Critical Paths under _main in BANK8

    None.

Critical Paths under _main in BANK9

    None.

Critical Paths under _main in BANK10

    None.

Critical Paths under _main in BANK11

    None.

Critical Paths under _main in BANK12

    None.

Call Graph Tables:

 ---------------------------------------------------------------------------------
 (Depth) Function   	        Calls       Base Space   Used Autos Params    Refs
 ---------------------------------------------------------------------------------
 (0) _main                                                 0     0      0      15
                  _SYSTEM_Initialize
 ---------------------------------------------------------------------------------
 (1) _SYSTEM_Initialize                                    0     0      0      15
              _OSCILLATOR_Initialize
             _PIN_MANAGER_Initialize
                    _PWM1_Initialize
                    _PWM2_Initialize
                    _PWM3_Initialize
                    _TMR2_Initialize
 ---------------------------------------------------------------------------------
 (2) _TMR2_Initialize                                      0     0      0       0
                         _TMR2_Start
 ---------------------------------------------------------------------------------
 (3) _TMR2_Start                                           0     0      0       0
 ---------------------------------------------------------------------------------
 (2) _PWM3_Initialize                                      0     0      0       0
 ---------------------------------------------------------------------------------
 (2) _PWM2_Initialize                                      0     0      0       0
 ---------------------------------------------------------------------------------
 (2) _PWM1_Initialize                                      0     0      0       0
 ---------------------------------------------------------------------------------
 (2) _PIN_MANAGER_Initialize                               1     1      0      15
                                              0 COMMON     1     1      0
 ---------------------------------------------------------------------------------
 (2) _OSCILLATOR_Initialize                                0     0      0       0
 ---------------------------------------------------------------------------------
 Estimated maximum stack depth 3
 ---------------------------------------------------------------------------------

 Call Graph Graphs:

 _main (ROOT)
   _SYSTEM_Initialize
     _OSCILLATOR_Initialize
     _PIN_MANAGER_Initialize
     _PWM1_Initialize
     _PWM2_Initialize
     _PWM3_Initialize
     _TMR2_Initialize
       _TMR2_Start

 Address spaces:
Name               Size   Autos  Total    Cost      Usage
BIGRAM             3F0      0       0       0        0.0%
EEDATA             100      0       0       0        0.0%
NULL                 0      0       0       0        0.0%
CODE                 0      0       0       0        0.0%
BITCOMMON            E      0       0       1        0.0%
BITSFR0              0      0       0       1        0.0%
SFR0                 0      0       0       1        0.0%
COMMON               E      1       3       2       21.4%
BITSFR1              0      0       0       2        0.0%
SFR1                 0      0       0       2        0.0%
BITSFR2              0      0       0       3        0.0%
SFR2                 0      0       0       3        0.0%
STACK                0      0       0       3        0.0%
BITBANK0            50      0       0       4        0.0%
BITSFR3              0      0       0       4        0.0%
SFR3                 0      0       0       4        0.0%
BANK0               50      0       0       5        0.0%
BITSFR4              0      0       0       5        0.0%
SFR4                 0      0       0       5        0.0%
BITBANK1            50      0       0       6        0.0%
BITSFR5              0      0       0       6        0.0%
SFR5                 0      0       0       6        0.0%
BANK1               50      0       0       7        0.0%
BITSFR6              0      0       0       7        0.0%
SFR6                 0      0       0       7        0.0%
BITBANK2            50      0       0       8        0.0%
BITSFR7              0      0       0       8        0.0%
SFR7                 0      0       0       8        0.0%
BANK2               50      0       0       9        0.0%
BITSFR8              0      0       0       9        0.0%
SFR8                 0      0       0       9        0.0%
BITBANK3            50      0       0      10        0.0%
BITSFR9              0      0       0      10        0.0%
SFR9                 0      0       0      10        0.0%
BANK3               50      0       0      11        0.0%
BITSFR10             0      0       0      11        0.0%
SFR10                0      0       0      11        0.0%
BITBANK4            50      0       0      12        0.0%
BITSFR11             0      0       0      12        0.0%
SFR11                0      0       0      12        0.0%
BANK4               50      0       0      13        0.0%
BITSFR12             0      0       0      13        0.0%
SFR12                0      0       0      13        0.0%
BITBANK5            50      0       0      14        0.0%
BITSFR13             0      0       0      14        0.0%
SFR13                0      0       0      14        0.0%
BANK5               50      0       0      15        0.0%
BITSFR14             0      0       0      15        0.0%
SFR14                0      0       0      15        0.0%
BITBANK6            50      0       0      16        0.0%
BITSFR15             0      0       0      16        0.0%
SFR15                0      0       0      16        0.0%
BANK6               50      0       0      17        0.0%
BITSFR16             0      0       0      17        0.0%
SFR16                0      0       0      17        0.0%
BITBANK7            50      0       0      18        0.0%
BITSFR17             0      0       0      18        0.0%
SFR17                0      0       0      18        0.0%
BANK7               50      0       0      19        0.0%
BITSFR18             0      0       0      19        0.0%
SFR18                0      0       0      19        0.0%
BITSFR19             0      0       0      20        0.0%
SFR19                0      0       0      20        0.0%
ABS                  0      0       3      20        0.0%
BITBANK8            50      0       0      21        0.0%
BITSFR20             0      0       0      21        0.0%
SFR20                0      0       0      21        0.0%
BANK8               50      0       0      22        0.0%
BITSFR21             0      0       0      22        0.0%
SFR21                0      0       0      22        0.0%
BITBANK9            50      0       0      23        0.0%
BITSFR22             0      0       0      23        0.0%
SFR22                0      0       0      23        0.0%
BANK9               50      0       0      24        0.0%
BITSFR23             0      0       0      24        0.0%
SFR23                0      0       0      24        0.0%
BITBANK10           50      0       0      25        0.0%
BITSFR24             0      0       0      25        0.0%
SFR24                0      0       0      25        0.0%
BANK10              50      0       0      26        0.0%
BITSFR25             0      0       0      26        0.0%
SFR25                0      0       0      26        0.0%
BITBANK11           50      0       0      27        0.0%
BITSFR26             0      0       0      27        0.0%
SFR26                0      0       0      27        0.0%
BANK11              50      0       0      28        0.0%
BITSFR27             0      0       0      28        0.0%
SFR27                0      0       0      28        0.0%
BITBANK12           30      0       0      29        0.0%
BITSFR28             0      0       0      29        0.0%
SFR28                0      0       0      29        0.0%
BANK12              30      0       0      30        0.0%
BITSFR29             0      0       0      30        0.0%
SFR29                0      0       0      30        0.0%
BITSFR30             0      0       0      31        0.0%
SFR30                0      0       0      31        0.0%
DATA                 0      0       3      31        0.0%
BITSFR31             0      0       0      32        0.0%
SFR31                0      0       0      32        0.0%


Microchip Technology PIC Macro Assembler V1.38 build -256452561 
Symbol Table                                                                                   Sun Jul 02 13:19:50 2017

                    __CFG_CP$OFF 0000                               u10 07F9                      __CFG_LVP$ON 0000  
                            l198 0773                              _GIE 005F                              _PR2 028D  
                   __CFG_CPD$OFF 0000                  _TMR2_Initialize 07A1                     __CFG_BORV$LO 0000  
                   __CFG_ZCD$OFF 0000          __end_of_PWM1_Initialize 0794                             _LATA 0016  
                           _LATB 0017                             _LATC 0018                             _T2PR 028D  
                           _TMR2 028C                             _WPUA 0F39                             _WPUB 0F44  
                           _WPUC 0F4F                             _WPUE 0F65                     __CFG_WRT$OFF 0000  
                  __CFG_FCMEN$ON 0000                             _main 0770                             btemp 007E  
                  __CFG_BOREN$ON 0000                             ltemp 007E                             start 0002  
                           ttemp 007E                             wtemp 007E                    __CFG_CSWEN$ON 0000  
                  __CFG_MCLRE$ON 0000          __end_of_PWM2_Initialize 07A1   __size_of_OSCILLATOR_Initialize 0008  
  __end_of_OSCILLATOR_Initialize 077C                            ?_main 0072                    __CFG_WDTE$OFF 0000  
                          _T2CON 028E                            _T2HLT 028F                            _T2TMR 028C  
                          _T2RST 0291                            _OSCEN 0891                            _TRISA 0011  
                          _TRISB 0012                            _TRISC 0013                      ?_TMR2_Start 0072  
        __end_of_PWM3_Initialize 0787                            ltemp0 007E                            ltemp1 0082  
                          ltemp2 0086                            ltemp3 0080                            ttemp0 007E  
                          ttemp1 0081                            ttemp2 0084                            ttemp3 0087  
                          ttemp4 007F                            wtemp0 007E                            wtemp1 0080  
                          wtemp2 0082                            wtemp3 0084                            wtemp4 0086  
                          wtemp5 0088                            wtemp6 007F                  __initialization 07FB  
                   __end_of_main 0774          __end_of_TMR2_Initialize 07AF                           ??_main 0073  
                         _CCPR1H 030D                           _CCPR2H 0311                           _CCPR3H 0315  
                         _CCPR1L 030C                           _CCPR2L 0310                           _CCPR3L 0314  
                         _ANSELA 0F38                           _ANSELB 0F43                           _ANSELC 0F4E  
             __CFG_RSTOSC$HFINT1 0000                           _RC4PPS 0F24                 ?_PWM1_Initialize 0072  
                         _RC5PPS 0F25                           _ODCONA 0F3A                           _ODCONB 0F45  
                         _RC6PPS 0F26                           _ODCONC 0F50                   __CFG_WDTCCS$SC 0000  
                         _OSCFRQ 0893                   __CFG_PWRTE$OFF 0000                     _CCPTMRS0bits 021E  
                 __CFG_STVREN$ON 0000              __size_of_TMR2_Start 0003                 ?_PWM2_Initialize 0072  
               ?_PWM3_Initialize 0072                _SYSTEM_Initialize 07AF          __end_of__initialization 07FD  
             ?_SYSTEM_Initialize 0072                   __pcstackCOMMON 0072              ??_SYSTEM_Initialize 0073  
               ?_TMR2_Initialize 0072        __end_of_SYSTEM_Initialize 07C1                     _T2AINPPSbits 0E9C  
                     __pmaintext 0770                  __CFG_PPS1WAY$ON 0000                          _CCP1CON 030E  
                        _CCP2CON 0312                          _CCP3CON 0316                          _OSCCON1 088D  
                        _OSCCON3 088F                          _OSCTUNE 0892                          _PPSLOCK 0E8F  
                   ??_TMR2_Start 0072             __CFG_SCANE$available 0000               __end_of_TMR2_Start 0770  
                        __ptext1 07AF                          __ptext2 07A1                          __ptext3 076D  
                        __ptext4 077C                          __ptext5 0794                          __ptext6 0787  
                        __ptext7 07C1                          __ptext8 0774            _OSCILLATOR_Initialize 0774  
                      _T2CONbits 028E         ??_PIN_MANAGER_Initialize 0072                        _T2HLTbits 028F  
     __size_of_SYSTEM_Initialize 0012             end_of_initialization 07FD                        _T2RSTbits 0291  
          __CFG_WDTCPS$WDTCPS_31 0000                 __CFG_FEXTOSC$ECH 0000                      _CCP1CONbits 030E  
                    _CCP2CONbits 0312                      _CCP3CONbits 0316         __size_of_PWM1_Initialize 000D  
         ?_OSCILLATOR_Initialize 0072              start_initialization 07FB         __size_of_PWM2_Initialize 000D  
__size_of_PIN_MANAGER_Initialize 003A                 __CFG_LPBOREN$OFF 0000         __size_of_PWM3_Initialize 000B  
                    __pbssCOMMON 0070                        ___latbits 0002         __size_of_TMR2_Initialize 000E  
         _PIN_MANAGER_Initialize 07C1                ??_PWM1_Initialize 0072                         _T2CLKCON 0290  
              ??_PWM2_Initialize 0072                         _PIR4bits 0710                ??_PWM3_Initialize 0072  
              ??_TMR2_Initialize 0072          ??_OSCILLATOR_Initialize 0072                    __size_of_main 0004  
           __CFG_WDTCWS$WDTCWS_7 0000      PIN_MANAGER_Initialize@state 0072          ?_PIN_MANAGER_Initialize 0072  
              __CFG_CLKOUTEN$OFF 0000                      _PPSLOCKbits 0E8F                  _PWM1_Initialize 0787  
                _PWM2_Initialize 0794                       _TMR2_Start 076D   __end_of_PIN_MANAGER_Initialize 07FB  
          _TMR2_InterruptHandler 0070                  _PWM3_Initialize 077C  
