

Microchip Technology PIC LITE Macro Assembler V1.45 build -152302408 
                                                                                               Thu May 10 19:56:04 2018

Microchip Technology Omniscient Code Generator v1.45 (Free mode) build 201711160504
     1                           	processor	16F18855
     2                           	opt	pw 120
     3                           	opt	lm
     4                           	psect	idataBANK0,global,class=CODE,delta=2
     5                           	psect	stringtext1,global,class=STRCODE,delta=2
     6                           	psect	cinit,global,class=CODE,merge=1,delta=2
     7                           	psect	bssBANK0,global,class=BANK0,space=1,delta=1
     8                           	psect	dataBANK0,global,class=BANK0,space=1,delta=1
     9                           	psect	bssBANK1,global,class=BANK1,space=1,delta=1
    10                           	psect	clrtext,global,class=CODE,delta=2
    11                           	psect	cstackCOMMON,global,class=COMMON,space=1,delta=1
    12                           	psect	cstackBANK0,global,class=BANK0,space=1,delta=1
    13                           	psect	maintext,global,class=CODE,merge=1,split=1,delta=2
    14                           	psect	text1,local,class=CODE,merge=1,delta=2
    15                           	psect	text2,local,class=CODE,merge=1,delta=2,group=2
    16                           	psect	text3,local,class=CODE,merge=1,delta=2
    17                           	psect	text4,local,class=CODE,merge=1,delta=2
    18                           	psect	text5,local,class=CODE,merge=1,delta=2
    19                           	psect	text6,local,class=CODE,merge=1,delta=2
    20                           	psect	text7,local,class=CODE,merge=1,delta=2
    21                           	psect	text8,local,class=CODE,merge=1,delta=2
    22                           	psect	text9,local,class=CODE,merge=1,delta=2
    23                           	psect	text10,local,class=CODE,merge=1,delta=2
    24                           	psect	text11,local,class=CODE,merge=1,delta=2
    25                           	psect	text12,local,class=CODE,merge=1,delta=2
    26                           	psect	text13,local,class=CODE,merge=1,delta=2
    27                           	psect	text14,local,class=CODE,merge=1,delta=2
    28                           	psect	text15,local,class=CODE,merge=1,delta=2,group=2
    29                           	psect	text16,local,class=CODE,merge=1,delta=2,group=2
    30                           	psect	text17,local,class=CODE,merge=1,delta=2
    31                           	psect	text18,local,class=CODE,merge=1,delta=2,group=2
    32                           	psect	text19,local,class=CODE,merge=1,delta=2
    33                           	dabs	1,0x620,48
    34                           	dabs	1,0x5A0,80
    35                           	dabs	1,0x520,80
    36                           	dabs	1,0x4A0,80
    37                           	dabs	1,0x420,80
    38                           	dabs	1,0x3D0,32
    39                           	dabs	1,0x2260,0,_samples
    40                           	dabs	1,0x7E,2
    41  0000                     
    42                           ; Version 1.45
    43                           ; Generated 16/11/2017 GMT
    44                           ; 
    45                           ; Copyright © 2017, Microchip Technology Inc. and its subsidiaries ("Microchip")
    46                           ; All rights reserved.
    47                           ; 
    48                           ; This software is developed by Microchip Technology Inc. and its subsidiaries ("Microch
      +                          ip").
    49                           ; 
    50                           ; Redistribution and use in source and binary forms, with or without modification, are
    51                           ; permitted provided that the following conditions are met:
    52                           ; 
    53                           ;     1. Redistributions of source code must retain the above copyright notice, this lis
      +                          t of
    54                           ;        conditions and the following disclaimer.
    55                           ; 
    56                           ;     2. Redistributions in binary form must reproduce the above copyright notice, this 
      +                          list
    57                           ;        of conditions and the following disclaimer in the documentation and/or other
    58                           ;        materials provided with the distribution.
    59                           ; 
    60                           ;     3. Microchip's name may not be used to endorse or promote products derived from th
      +                          is
    61                           ;        software without specific prior written permission.
    62                           ; 
    63                           ; THIS SOFTWARE IS PROVIDED BY MICROCHIP "AS IS" AND ANY EXPRESS OR IMPLIED WARRANTIES,
    64                           ; INCLUDING, BUT NOT LIMITED TO, THE IMPLIED WARRANTIES OF MERCHANTABILITY AND FITNESS F
      +                          OR
    65                           ; PURPOSE ARE DISCLAIMED.  IN NO EVENT SHALL MICROCHIP BE LIABLE FOR ANY DIRECT, INDIREC
      +                          T,
    66                           ; INCIDENTAL, SPECIAL, EXEMPLARY, OR CONSEQUENTIAL DAMAGES (INCLUDING BUT NOT LIMITED TO
    67                           ; PROCUREMENT OF SUBSTITUTE GOODS OR SERVICES; LOSS OF USE, DATA OR PROFITS; OR BUSINESS
    68                           ; INTERRUPTION) HOWSOEVER CAUSED AND ON ANY THEORY OF LIABILITY, WHETHER IN CONTRACT, ST
      +                          RICT
    69                           ; LIABILITY, OR TORT (INCLUDING NEGLIGENCE OR OTHERWISE) ARISING IN ANY WAY OUT OF THE U
      +                          SE OF
    70                           ; THIS SOFTWARE, EVEN IF ADVISED OF THE POSSIBILITY OF SUCH DAMAGE.
    71                           ; 
    72                           ; 
    73                           ; Code-generator required, PIC16F18855 Definitions
    74                           ; 
    75                           ; SFR Addresses
    76  0000                     	;# 
    77  0001                     	;# 
    78  0002                     	;# 
    79  0003                     	;# 
    80  0004                     	;# 
    81  0005                     	;# 
    82  0006                     	;# 
    83  0007                     	;# 
    84  0008                     	;# 
    85  0009                     	;# 
    86  000A                     	;# 
    87  000B                     	;# 
    88  000C                     	;# 
    89  000D                     	;# 
    90  000E                     	;# 
    91  0010                     	;# 
    92  0011                     	;# 
    93  0012                     	;# 
    94  0013                     	;# 
    95  0016                     	;# 
    96  0017                     	;# 
    97  0018                     	;# 
    98  001C                     	;# 
    99  001C                     	;# 
   100  001D                     	;# 
   101  001D                     	;# 
   102  001E                     	;# 
   103  001F                     	;# 
   104  008C                     	;# 
   105  008C                     	;# 
   106  008D                     	;# 
   107  008E                     	;# 
   108  008E                     	;# 
   109  008F                     	;# 
   110  0090                     	;# 
   111  0090                     	;# 
   112  0091                     	;# 
   113  0093                     	;# 
   114  0094                     	;# 
   115  0095                     	;# 
   116  0096                     	;# 
   117  0097                     	;# 
   118  0098                     	;# 
   119  0099                     	;# 
   120  009A                     	;# 
   121  009B                     	;# 
   122  009C                     	;# 
   123  009D                     	;# 
   124  009E                     	;# 
   125  010C                     	;# 
   126  010D                     	;# 
   127  010E                     	;# 
   128  010E                     	;# 
   129  010F                     	;# 
   130  0110                     	;# 
   131  0110                     	;# 
   132  0111                     	;# 
   133  0112                     	;# 
   134  0112                     	;# 
   135  0113                     	;# 
   136  0114                     	;# 
   137  0114                     	;# 
   138  0115                     	;# 
   139  0116                     	;# 
   140  0116                     	;# 
   141  0117                     	;# 
   142  0119                     	;# 
   143  0119                     	;# 
   144  0119                     	;# 
   145  011A                     	;# 
   146  011A                     	;# 
   147  011A                     	;# 
   148  011B                     	;# 
   149  011B                     	;# 
   150  011B                     	;# 
   151  011B                     	;# 
   152  011B                     	;# 
   153  011C                     	;# 
   154  011C                     	;# 
   155  011C                     	;# 
   156  011D                     	;# 
   157  011D                     	;# 
   158  011D                     	;# 
   159  011E                     	;# 
   160  011E                     	;# 
   161  011E                     	;# 
   162  011F                     	;# 
   163  011F                     	;# 
   164  011F                     	;# 
   165  011F                     	;# 
   166  011F                     	;# 
   167  018C                     	;# 
   168  018D                     	;# 
   169  018E                     	;# 
   170  018F                     	;# 
   171  0190                     	;# 
   172  0191                     	;# 
   173  0192                     	;# 
   174  0196                     	;# 
   175  0197                     	;# 
   176  0198                     	;# 
   177  0199                     	;# 
   178  019A                     	;# 
   179  019B                     	;# 
   180  019C                     	;# 
   181  020C                     	;# 
   182  020C                     	;# 
   183  020D                     	;# 
   184  020E                     	;# 
   185  020F                     	;# 
   186  020F                     	;# 
   187  0210                     	;# 
   188  0210                     	;# 
   189  0211                     	;# 
   190  0211                     	;# 
   191  0212                     	;# 
   192  0212                     	;# 
   193  0213                     	;# 
   194  0214                     	;# 
   195  0215                     	;# 
   196  0215                     	;# 
   197  0216                     	;# 
   198  0216                     	;# 
   199  0217                     	;# 
   200  0217                     	;# 
   201  0218                     	;# 
   202  0218                     	;# 
   203  0219                     	;# 
   204  021A                     	;# 
   205  021B                     	;# 
   206  021B                     	;# 
   207  021C                     	;# 
   208  021C                     	;# 
   209  021D                     	;# 
   210  021D                     	;# 
   211  021E                     	;# 
   212  021F                     	;# 
   213  028C                     	;# 
   214  028C                     	;# 
   215  028D                     	;# 
   216  028D                     	;# 
   217  028E                     	;# 
   218  028F                     	;# 
   219  0290                     	;# 
   220  0290                     	;# 
   221  0291                     	;# 
   222  0292                     	;# 
   223  0292                     	;# 
   224  0293                     	;# 
   225  0293                     	;# 
   226  0294                     	;# 
   227  0295                     	;# 
   228  0296                     	;# 
   229  0296                     	;# 
   230  0297                     	;# 
   231  0298                     	;# 
   232  0298                     	;# 
   233  0299                     	;# 
   234  0299                     	;# 
   235  029A                     	;# 
   236  029B                     	;# 
   237  029C                     	;# 
   238  029C                     	;# 
   239  029D                     	;# 
   240  030C                     	;# 
   241  030C                     	;# 
   242  030D                     	;# 
   243  030E                     	;# 
   244  030F                     	;# 
   245  0310                     	;# 
   246  0310                     	;# 
   247  0311                     	;# 
   248  0312                     	;# 
   249  0313                     	;# 
   250  0314                     	;# 
   251  0314                     	;# 
   252  0315                     	;# 
   253  0316                     	;# 
   254  0317                     	;# 
   255  0318                     	;# 
   256  0318                     	;# 
   257  0319                     	;# 
   258  031A                     	;# 
   259  031B                     	;# 
   260  031C                     	;# 
   261  031C                     	;# 
   262  031D                     	;# 
   263  031E                     	;# 
   264  031F                     	;# 
   265  038C                     	;# 
   266  038D                     	;# 
   267  038E                     	;# 
   268  0390                     	;# 
   269  0391                     	;# 
   270  0392                     	;# 
   271  040C                     	;# 
   272  040D                     	;# 
   273  040E                     	;# 
   274  040F                     	;# 
   275  0410                     	;# 
   276  0411                     	;# 
   277  0416                     	;# 
   278  0416                     	;# 
   279  0417                     	;# 
   280  0418                     	;# 
   281  0418                     	;# 
   282  0419                     	;# 
   283  041A                     	;# 
   284  041A                     	;# 
   285  041B                     	;# 
   286  041C                     	;# 
   287  041C                     	;# 
   288  041D                     	;# 
   289  041E                     	;# 
   290  041F                     	;# 
   291  048C                     	;# 
   292  048C                     	;# 
   293  048D                     	;# 
   294  048E                     	;# 
   295  048F                     	;# 
   296  048F                     	;# 
   297  0490                     	;# 
   298  0491                     	;# 
   299  0492                     	;# 
   300  0492                     	;# 
   301  0493                     	;# 
   302  0494                     	;# 
   303  0495                     	;# 
   304  0495                     	;# 
   305  0496                     	;# 
   306  0497                     	;# 
   307  0498                     	;# 
   308  0499                     	;# 
   309  049A                     	;# 
   310  049B                     	;# 
   311  049C                     	;# 
   312  049D                     	;# 
   313  050C                     	;# 
   314  050C                     	;# 
   315  050D                     	;# 
   316  050E                     	;# 
   317  050F                     	;# 
   318  050F                     	;# 
   319  0510                     	;# 
   320  0511                     	;# 
   321  0512                     	;# 
   322  0512                     	;# 
   323  0513                     	;# 
   324  0514                     	;# 
   325  0515                     	;# 
   326  0515                     	;# 
   327  0516                     	;# 
   328  0517                     	;# 
   329  0518                     	;# 
   330  0519                     	;# 
   331  051A                     	;# 
   332  051B                     	;# 
   333  051C                     	;# 
   334  051D                     	;# 
   335  058C                     	;# 
   336  058C                     	;# 
   337  058D                     	;# 
   338  058E                     	;# 
   339  058F                     	;# 
   340  058F                     	;# 
   341  0590                     	;# 
   342  0591                     	;# 
   343  0592                     	;# 
   344  0593                     	;# 
   345  060C                     	;# 
   346  060D                     	;# 
   347  060E                     	;# 
   348  060F                     	;# 
   349  0610                     	;# 
   350  0611                     	;# 
   351  0612                     	;# 
   352  0613                     	;# 
   353  0614                     	;# 
   354  0616                     	;# 
   355  0617                     	;# 
   356  0618                     	;# 
   357  0619                     	;# 
   358  061A                     	;# 
   359  061B                     	;# 
   360  061C                     	;# 
   361  061D                     	;# 
   362  061E                     	;# 
   363  068C                     	;# 
   364  068D                     	;# 
   365  068E                     	;# 
   366  068F                     	;# 
   367  0690                     	;# 
   368  0691                     	;# 
   369  0692                     	;# 
   370  0693                     	;# 
   371  0694                     	;# 
   372  070C                     	;# 
   373  070D                     	;# 
   374  070E                     	;# 
   375  070F                     	;# 
   376  0710                     	;# 
   377  0711                     	;# 
   378  0712                     	;# 
   379  0713                     	;# 
   380  0714                     	;# 
   381  0716                     	;# 
   382  0717                     	;# 
   383  0718                     	;# 
   384  0719                     	;# 
   385  071A                     	;# 
   386  071B                     	;# 
   387  071C                     	;# 
   388  071D                     	;# 
   389  071E                     	;# 
   390  0796                     	;# 
   391  0797                     	;# 
   392  0798                     	;# 
   393  0799                     	;# 
   394  079A                     	;# 
   395  079B                     	;# 
   396  080C                     	;# 
   397  080D                     	;# 
   398  080E                     	;# 
   399  080F                     	;# 
   400  0810                     	;# 
   401  0811                     	;# 
   402  0812                     	;# 
   403  0813                     	;# 
   404  0814                     	;# 
   405  081A                     	;# 
   406  081B                     	;# 
   407  081C                     	;# 
   408  081D                     	;# 
   409  081E                     	;# 
   410  081F                     	;# 
   411  088C                     	;# 
   412  088D                     	;# 
   413  088E                     	;# 
   414  088F                     	;# 
   415  0890                     	;# 
   416  0891                     	;# 
   417  0892                     	;# 
   418  0893                     	;# 
   419  0895                     	;# 
   420  0896                     	;# 
   421  0897                     	;# 
   422  0898                     	;# 
   423  0899                     	;# 
   424  089A                     	;# 
   425  089B                     	;# 
   426  090C                     	;# 
   427  090E                     	;# 
   428  090F                     	;# 
   429  091F                     	;# 
   430  091F                     	;# 
   431  098F                     	;# 
   432  098F                     	;# 
   433  0990                     	;# 
   434  0991                     	;# 
   435  0992                     	;# 
   436  0993                     	;# 
   437  0994                     	;# 
   438  0995                     	;# 
   439  0996                     	;# 
   440  0997                     	;# 
   441  0E0F                     	;# 
   442  0E10                     	;# 
   443  0E11                     	;# 
   444  0E12                     	;# 
   445  0E13                     	;# 
   446  0E14                     	;# 
   447  0E15                     	;# 
   448  0E16                     	;# 
   449  0E17                     	;# 
   450  0E18                     	;# 
   451  0E19                     	;# 
   452  0E1A                     	;# 
   453  0E1B                     	;# 
   454  0E1C                     	;# 
   455  0E1D                     	;# 
   456  0E1E                     	;# 
   457  0E1F                     	;# 
   458  0E20                     	;# 
   459  0E21                     	;# 
   460  0E22                     	;# 
   461  0E23                     	;# 
   462  0E24                     	;# 
   463  0E25                     	;# 
   464  0E26                     	;# 
   465  0E27                     	;# 
   466  0E28                     	;# 
   467  0E29                     	;# 
   468  0E2A                     	;# 
   469  0E2B                     	;# 
   470  0E2C                     	;# 
   471  0E2D                     	;# 
   472  0E2E                     	;# 
   473  0E2F                     	;# 
   474  0E30                     	;# 
   475  0E31                     	;# 
   476  0E32                     	;# 
   477  0E33                     	;# 
   478  0E34                     	;# 
   479  0E35                     	;# 
   480  0E36                     	;# 
   481  0E37                     	;# 
   482  0E8F                     	;# 
   483  0E90                     	;# 
   484  0E91                     	;# 
   485  0E92                     	;# 
   486  0E93                     	;# 
   487  0E94                     	;# 
   488  0E95                     	;# 
   489  0E96                     	;# 
   490  0E97                     	;# 
   491  0E9C                     	;# 
   492  0E9D                     	;# 
   493  0E9E                     	;# 
   494  0EA1                     	;# 
   495  0EA2                     	;# 
   496  0EA3                     	;# 
   497  0EA4                     	;# 
   498  0EA5                     	;# 
   499  0EA9                     	;# 
   500  0EAA                     	;# 
   501  0EAB                     	;# 
   502  0EAC                     	;# 
   503  0EB1                     	;# 
   504  0EB2                     	;# 
   505  0EB3                     	;# 
   506  0EB8                     	;# 
   507  0EB9                     	;# 
   508  0EBA                     	;# 
   509  0EBB                     	;# 
   510  0EBC                     	;# 
   511  0EBD                     	;# 
   512  0EBE                     	;# 
   513  0EC3                     	;# 
   514  0EC5                     	;# 
   515  0EC6                     	;# 
   516  0EC7                     	;# 
   517  0EC8                     	;# 
   518  0EC9                     	;# 
   519  0ECA                     	;# 
   520  0ECB                     	;# 
   521  0ECC                     	;# 
   522  0F10                     	;# 
   523  0F11                     	;# 
   524  0F12                     	;# 
   525  0F13                     	;# 
   526  0F14                     	;# 
   527  0F15                     	;# 
   528  0F16                     	;# 
   529  0F17                     	;# 
   530  0F18                     	;# 
   531  0F19                     	;# 
   532  0F1A                     	;# 
   533  0F1B                     	;# 
   534  0F1C                     	;# 
   535  0F1D                     	;# 
   536  0F1E                     	;# 
   537  0F1F                     	;# 
   538  0F20                     	;# 
   539  0F21                     	;# 
   540  0F22                     	;# 
   541  0F23                     	;# 
   542  0F24                     	;# 
   543  0F25                     	;# 
   544  0F26                     	;# 
   545  0F27                     	;# 
   546  0F38                     	;# 
   547  0F39                     	;# 
   548  0F3A                     	;# 
   549  0F3B                     	;# 
   550  0F3C                     	;# 
   551  0F3D                     	;# 
   552  0F3E                     	;# 
   553  0F3F                     	;# 
   554  0F40                     	;# 
   555  0F41                     	;# 
   556  0F43                     	;# 
   557  0F44                     	;# 
   558  0F45                     	;# 
   559  0F46                     	;# 
   560  0F47                     	;# 
   561  0F48                     	;# 
   562  0F49                     	;# 
   563  0F4A                     	;# 
   564  0F4B                     	;# 
   565  0F4C                     	;# 
   566  0F4E                     	;# 
   567  0F4F                     	;# 
   568  0F50                     	;# 
   569  0F51                     	;# 
   570  0F52                     	;# 
   571  0F53                     	;# 
   572  0F54                     	;# 
   573  0F55                     	;# 
   574  0F56                     	;# 
   575  0F57                     	;# 
   576  0F65                     	;# 
   577  0F68                     	;# 
   578  0F69                     	;# 
   579  0F6A                     	;# 
   580  0F6B                     	;# 
   581  0FE4                     	;# 
   582  0FE5                     	;# 
   583  0FE6                     	;# 
   584  0FE7                     	;# 
   585  0FE8                     	;# 
   586  0FE9                     	;# 
   587  0FEA                     	;# 
   588  0FEB                     	;# 
   589  0FED                     	;# 
   590  0FEE                     	;# 
   591  0FEF                     	;# 
   592  0000                     	;# 
   593  0001                     	;# 
   594  0002                     	;# 
   595  0003                     	;# 
   596  0004                     	;# 
   597  0005                     	;# 
   598  0006                     	;# 
   599  0007                     	;# 
   600  0008                     	;# 
   601  0009                     	;# 
   602  000A                     	;# 
   603  000B                     	;# 
   604  000C                     	;# 
   605  000D                     	;# 
   606  000E                     	;# 
   607  0010                     	;# 
   608  0011                     	;# 
   609  0012                     	;# 
   610  0013                     	;# 
   611  0016                     	;# 
   612  0017                     	;# 
   613  0018                     	;# 
   614  001C                     	;# 
   615  001C                     	;# 
   616  001D                     	;# 
   617  001D                     	;# 
   618  001E                     	;# 
   619  001F                     	;# 
   620  008C                     	;# 
   621  008C                     	;# 
   622  008D                     	;# 
   623  008E                     	;# 
   624  008E                     	;# 
   625  008F                     	;# 
   626  0090                     	;# 
   627  0090                     	;# 
   628  0091                     	;# 
   629  0093                     	;# 
   630  0094                     	;# 
   631  0095                     	;# 
   632  0096                     	;# 
   633  0097                     	;# 
   634  0098                     	;# 
   635  0099                     	;# 
   636  009A                     	;# 
   637  009B                     	;# 
   638  009C                     	;# 
   639  009D                     	;# 
   640  009E                     	;# 
   641  010C                     	;# 
   642  010D                     	;# 
   643  010E                     	;# 
   644  010E                     	;# 
   645  010F                     	;# 
   646  0110                     	;# 
   647  0110                     	;# 
   648  0111                     	;# 
   649  0112                     	;# 
   650  0112                     	;# 
   651  0113                     	;# 
   652  0114                     	;# 
   653  0114                     	;# 
   654  0115                     	;# 
   655  0116                     	;# 
   656  0116                     	;# 
   657  0117                     	;# 
   658  0119                     	;# 
   659  0119                     	;# 
   660  0119                     	;# 
   661  011A                     	;# 
   662  011A                     	;# 
   663  011A                     	;# 
   664  011B                     	;# 
   665  011B                     	;# 
   666  011B                     	;# 
   667  011B                     	;# 
   668  011B                     	;# 
   669  011C                     	;# 
   670  011C                     	;# 
   671  011C                     	;# 
   672  011D                     	;# 
   673  011D                     	;# 
   674  011D                     	;# 
   675  011E                     	;# 
   676  011E                     	;# 
   677  011E                     	;# 
   678  011F                     	;# 
   679  011F                     	;# 
   680  011F                     	;# 
   681  011F                     	;# 
   682  011F                     	;# 
   683  018C                     	;# 
   684  018D                     	;# 
   685  018E                     	;# 
   686  018F                     	;# 
   687  0190                     	;# 
   688  0191                     	;# 
   689  0192                     	;# 
   690  0196                     	;# 
   691  0197                     	;# 
   692  0198                     	;# 
   693  0199                     	;# 
   694  019A                     	;# 
   695  019B                     	;# 
   696  019C                     	;# 
   697  020C                     	;# 
   698  020C                     	;# 
   699  020D                     	;# 
   700  020E                     	;# 
   701  020F                     	;# 
   702  020F                     	;# 
   703  0210                     	;# 
   704  0210                     	;# 
   705  0211                     	;# 
   706  0211                     	;# 
   707  0212                     	;# 
   708  0212                     	;# 
   709  0213                     	;# 
   710  0214                     	;# 
   711  0215                     	;# 
   712  0215                     	;# 
   713  0216                     	;# 
   714  0216                     	;# 
   715  0217                     	;# 
   716  0217                     	;# 
   717  0218                     	;# 
   718  0218                     	;# 
   719  0219                     	;# 
   720  021A                     	;# 
   721  021B                     	;# 
   722  021B                     	;# 
   723  021C                     	;# 
   724  021C                     	;# 
   725  021D                     	;# 
   726  021D                     	;# 
   727  021E                     	;# 
   728  021F                     	;# 
   729  028C                     	;# 
   730  028C                     	;# 
   731  028D                     	;# 
   732  028D                     	;# 
   733  028E                     	;# 
   734  028F                     	;# 
   735  0290                     	;# 
   736  0290                     	;# 
   737  0291                     	;# 
   738  0292                     	;# 
   739  0292                     	;# 
   740  0293                     	;# 
   741  0293                     	;# 
   742  0294                     	;# 
   743  0295                     	;# 
   744  0296                     	;# 
   745  0296                     	;# 
   746  0297                     	;# 
   747  0298                     	;# 
   748  0298                     	;# 
   749  0299                     	;# 
   750  0299                     	;# 
   751  029A                     	;# 
   752  029B                     	;# 
   753  029C                     	;# 
   754  029C                     	;# 
   755  029D                     	;# 
   756  030C                     	;# 
   757  030C                     	;# 
   758  030D                     	;# 
   759  030E                     	;# 
   760  030F                     	;# 
   761  0310                     	;# 
   762  0310                     	;# 
   763  0311                     	;# 
   764  0312                     	;# 
   765  0313                     	;# 
   766  0314                     	;# 
   767  0314                     	;# 
   768  0315                     	;# 
   769  0316                     	;# 
   770  0317                     	;# 
   771  0318                     	;# 
   772  0318                     	;# 
   773  0319                     	;# 
   774  031A                     	;# 
   775  031B                     	;# 
   776  031C                     	;# 
   777  031C                     	;# 
   778  031D                     	;# 
   779  031E                     	;# 
   780  031F                     	;# 
   781  038C                     	;# 
   782  038D                     	;# 
   783  038E                     	;# 
   784  0390                     	;# 
   785  0391                     	;# 
   786  0392                     	;# 
   787  040C                     	;# 
   788  040D                     	;# 
   789  040E                     	;# 
   790  040F                     	;# 
   791  0410                     	;# 
   792  0411                     	;# 
   793  0416                     	;# 
   794  0416                     	;# 
   795  0417                     	;# 
   796  0418                     	;# 
   797  0418                     	;# 
   798  0419                     	;# 
   799  041A                     	;# 
   800  041A                     	;# 
   801  041B                     	;# 
   802  041C                     	;# 
   803  041C                     	;# 
   804  041D                     	;# 
   805  041E                     	;# 
   806  041F                     	;# 
   807  048C                     	;# 
   808  048C                     	;# 
   809  048D                     	;# 
   810  048E                     	;# 
   811  048F                     	;# 
   812  048F                     	;# 
   813  0490                     	;# 
   814  0491                     	;# 
   815  0492                     	;# 
   816  0492                     	;# 
   817  0493                     	;# 
   818  0494                     	;# 
   819  0495                     	;# 
   820  0495                     	;# 
   821  0496                     	;# 
   822  0497                     	;# 
   823  0498                     	;# 
   824  0499                     	;# 
   825  049A                     	;# 
   826  049B                     	;# 
   827  049C                     	;# 
   828  049D                     	;# 
   829  050C                     	;# 
   830  050C                     	;# 
   831  050D                     	;# 
   832  050E                     	;# 
   833  050F                     	;# 
   834  050F                     	;# 
   835  0510                     	;# 
   836  0511                     	;# 
   837  0512                     	;# 
   838  0512                     	;# 
   839  0513                     	;# 
   840  0514                     	;# 
   841  0515                     	;# 
   842  0515                     	;# 
   843  0516                     	;# 
   844  0517                     	;# 
   845  0518                     	;# 
   846  0519                     	;# 
   847  051A                     	;# 
   848  051B                     	;# 
   849  051C                     	;# 
   850  051D                     	;# 
   851  058C                     	;# 
   852  058C                     	;# 
   853  058D                     	;# 
   854  058E                     	;# 
   855  058F                     	;# 
   856  058F                     	;# 
   857  0590                     	;# 
   858  0591                     	;# 
   859  0592                     	;# 
   860  0593                     	;# 
   861  060C                     	;# 
   862  060D                     	;# 
   863  060E                     	;# 
   864  060F                     	;# 
   865  0610                     	;# 
   866  0611                     	;# 
   867  0612                     	;# 
   868  0613                     	;# 
   869  0614                     	;# 
   870  0616                     	;# 
   871  0617                     	;# 
   872  0618                     	;# 
   873  0619                     	;# 
   874  061A                     	;# 
   875  061B                     	;# 
   876  061C                     	;# 
   877  061D                     	;# 
   878  061E                     	;# 
   879  068C                     	;# 
   880  068D                     	;# 
   881  068E                     	;# 
   882  068F                     	;# 
   883  0690                     	;# 
   884  0691                     	;# 
   885  0692                     	;# 
   886  0693                     	;# 
   887  0694                     	;# 
   888  070C                     	;# 
   889  070D                     	;# 
   890  070E                     	;# 
   891  070F                     	;# 
   892  0710                     	;# 
   893  0711                     	;# 
   894  0712                     	;# 
   895  0713                     	;# 
   896  0714                     	;# 
   897  0716                     	;# 
   898  0717                     	;# 
   899  0718                     	;# 
   900  0719                     	;# 
   901  071A                     	;# 
   902  071B                     	;# 
   903  071C                     	;# 
   904  071D                     	;# 
   905  071E                     	;# 
   906  0796                     	;# 
   907  0797                     	;# 
   908  0798                     	;# 
   909  0799                     	;# 
   910  079A                     	;# 
   911  079B                     	;# 
   912  080C                     	;# 
   913  080D                     	;# 
   914  080E                     	;# 
   915  080F                     	;# 
   916  0810                     	;# 
   917  0811                     	;# 
   918  0812                     	;# 
   919  0813                     	;# 
   920  0814                     	;# 
   921  081A                     	;# 
   922  081B                     	;# 
   923  081C                     	;# 
   924  081D                     	;# 
   925  081E                     	;# 
   926  081F                     	;# 
   927  088C                     	;# 
   928  088D                     	;# 
   929  088E                     	;# 
   930  088F                     	;# 
   931  0890                     	;# 
   932  0891                     	;# 
   933  0892                     	;# 
   934  0893                     	;# 
   935  0895                     	;# 
   936  0896                     	;# 
   937  0897                     	;# 
   938  0898                     	;# 
   939  0899                     	;# 
   940  089A                     	;# 
   941  089B                     	;# 
   942  090C                     	;# 
   943  090E                     	;# 
   944  090F                     	;# 
   945  091F                     	;# 
   946  091F                     	;# 
   947  098F                     	;# 
   948  098F                     	;# 
   949  0990                     	;# 
   950  0991                     	;# 
   951  0992                     	;# 
   952  0993                     	;# 
   953  0994                     	;# 
   954  0995                     	;# 
   955  0996                     	;# 
   956  0997                     	;# 
   957  0E0F                     	;# 
   958  0E10                     	;# 
   959  0E11                     	;# 
   960  0E12                     	;# 
   961  0E13                     	;# 
   962  0E14                     	;# 
   963  0E15                     	;# 
   964  0E16                     	;# 
   965  0E17                     	;# 
   966  0E18                     	;# 
   967  0E19                     	;# 
   968  0E1A                     	;# 
   969  0E1B                     	;# 
   970  0E1C                     	;# 
   971  0E1D                     	;# 
   972  0E1E                     	;# 
   973  0E1F                     	;# 
   974  0E20                     	;# 
   975  0E21                     	;# 
   976  0E22                     	;# 
   977  0E23                     	;# 
   978  0E24                     	;# 
   979  0E25                     	;# 
   980  0E26                     	;# 
   981  0E27                     	;# 
   982  0E28                     	;# 
   983  0E29                     	;# 
   984  0E2A                     	;# 
   985  0E2B                     	;# 
   986  0E2C                     	;# 
   987  0E2D                     	;# 
   988  0E2E                     	;# 
   989  0E2F                     	;# 
   990  0E30                     	;# 
   991  0E31                     	;# 
   992  0E32                     	;# 
   993  0E33                     	;# 
   994  0E34                     	;# 
   995  0E35                     	;# 
   996  0E36                     	;# 
   997  0E37                     	;# 
   998  0E8F                     	;# 
   999  0E90                     	;# 
  1000  0E91                     	;# 
  1001  0E92                     	;# 
  1002  0E93                     	;# 
  1003  0E94                     	;# 
  1004  0E95                     	;# 
  1005  0E96                     	;# 
  1006  0E97                     	;# 
  1007  0E9C                     	;# 
  1008  0E9D                     	;# 
  1009  0E9E                     	;# 
  1010  0EA1                     	;# 
  1011  0EA2                     	;# 
  1012  0EA3                     	;# 
  1013  0EA4                     	;# 
  1014  0EA5                     	;# 
  1015  0EA9                     	;# 
  1016  0EAA                     	;# 
  1017  0EAB                     	;# 
  1018  0EAC                     	;# 
  1019  0EB1                     	;# 
  1020  0EB2                     	;# 
  1021  0EB3                     	;# 
  1022  0EB8                     	;# 
  1023  0EB9                     	;# 
  1024  0EBA                     	;# 
  1025  0EBB                     	;# 
  1026  0EBC                     	;# 
  1027  0EBD                     	;# 
  1028  0EBE                     	;# 
  1029  0EC3                     	;# 
  1030  0EC5                     	;# 
  1031  0EC6                     	;# 
  1032  0EC7                     	;# 
  1033  0EC8                     	;# 
  1034  0EC9                     	;# 
  1035  0ECA                     	;# 
  1036  0ECB                     	;# 
  1037  0ECC                     	;# 
  1038  0F10                     	;# 
  1039  0F11                     	;# 
  1040  0F12                     	;# 
  1041  0F13                     	;# 
  1042  0F14                     	;# 
  1043  0F15                     	;# 
  1044  0F16                     	;# 
  1045  0F17                     	;# 
  1046  0F18                     	;# 
  1047  0F19                     	;# 
  1048  0F1A                     	;# 
  1049  0F1B                     	;# 
  1050  0F1C                     	;# 
  1051  0F1D                     	;# 
  1052  0F1E                     	;# 
  1053  0F1F                     	;# 
  1054  0F20                     	;# 
  1055  0F21                     	;# 
  1056  0F22                     	;# 
  1057  0F23                     	;# 
  1058  0F24                     	;# 
  1059  0F25                     	;# 
  1060  0F26                     	;# 
  1061  0F27                     	;# 
  1062  0F38                     	;# 
  1063  0F39                     	;# 
  1064  0F3A                     	;# 
  1065  0F3B                     	;# 
  1066  0F3C                     	;# 
  1067  0F3D                     	;# 
  1068  0F3E                     	;# 
  1069  0F3F                     	;# 
  1070  0F40                     	;# 
  1071  0F41                     	;# 
  1072  0F43                     	;# 
  1073  0F44                     	;# 
  1074  0F45                     	;# 
  1075  0F46                     	;# 
  1076  0F47                     	;# 
  1077  0F48                     	;# 
  1078  0F49                     	;# 
  1079  0F4A                     	;# 
  1080  0F4B                     	;# 
  1081  0F4C                     	;# 
  1082  0F4E                     	;# 
  1083  0F4F                     	;# 
  1084  0F50                     	;# 
  1085  0F51                     	;# 
  1086  0F52                     	;# 
  1087  0F53                     	;# 
  1088  0F54                     	;# 
  1089  0F55                     	;# 
  1090  0F56                     	;# 
  1091  0F57                     	;# 
  1092  0F65                     	;# 
  1093  0F68                     	;# 
  1094  0F69                     	;# 
  1095  0F6A                     	;# 
  1096  0F6B                     	;# 
  1097  0FE4                     	;# 
  1098  0FE5                     	;# 
  1099  0FE6                     	;# 
  1100  0FE7                     	;# 
  1101  0FE8                     	;# 
  1102  0FE9                     	;# 
  1103  0FEA                     	;# 
  1104  0FEB                     	;# 
  1105  0FED                     	;# 
  1106  0FEE                     	;# 
  1107  0FEF                     	;# 
  1108  0000                     	;# 
  1109  0001                     	;# 
  1110  0002                     	;# 
  1111  0003                     	;# 
  1112  0004                     	;# 
  1113  0005                     	;# 
  1114  0006                     	;# 
  1115  0007                     	;# 
  1116  0008                     	;# 
  1117  0009                     	;# 
  1118  000A                     	;# 
  1119  000B                     	;# 
  1120  000C                     	;# 
  1121  000D                     	;# 
  1122  000E                     	;# 
  1123  0010                     	;# 
  1124  0011                     	;# 
  1125  0012                     	;# 
  1126  0013                     	;# 
  1127  0016                     	;# 
  1128  0017                     	;# 
  1129  0018                     	;# 
  1130  001C                     	;# 
  1131  001C                     	;# 
  1132  001D                     	;# 
  1133  001D                     	;# 
  1134  001E                     	;# 
  1135  001F                     	;# 
  1136  008C                     	;# 
  1137  008C                     	;# 
  1138  008D                     	;# 
  1139  008E                     	;# 
  1140  008E                     	;# 
  1141  008F                     	;# 
  1142  0090                     	;# 
  1143  0090                     	;# 
  1144  0091                     	;# 
  1145  0093                     	;# 
  1146  0094                     	;# 
  1147  0095                     	;# 
  1148  0096                     	;# 
  1149  0097                     	;# 
  1150  0098                     	;# 
  1151  0099                     	;# 
  1152  009A                     	;# 
  1153  009B                     	;# 
  1154  009C                     	;# 
  1155  009D                     	;# 
  1156  009E                     	;# 
  1157  010C                     	;# 
  1158  010D                     	;# 
  1159  010E                     	;# 
  1160  010E                     	;# 
  1161  010F                     	;# 
  1162  0110                     	;# 
  1163  0110                     	;# 
  1164  0111                     	;# 
  1165  0112                     	;# 
  1166  0112                     	;# 
  1167  0113                     	;# 
  1168  0114                     	;# 
  1169  0114                     	;# 
  1170  0115                     	;# 
  1171  0116                     	;# 
  1172  0116                     	;# 
  1173  0117                     	;# 
  1174  0119                     	;# 
  1175  0119                     	;# 
  1176  0119                     	;# 
  1177  011A                     	;# 
  1178  011A                     	;# 
  1179  011A                     	;# 
  1180  011B                     	;# 
  1181  011B                     	;# 
  1182  011B                     	;# 
  1183  011B                     	;# 
  1184  011B                     	;# 
  1185  011C                     	;# 
  1186  011C                     	;# 
  1187  011C                     	;# 
  1188  011D                     	;# 
  1189  011D                     	;# 
  1190  011D                     	;# 
  1191  011E                     	;# 
  1192  011E                     	;# 
  1193  011E                     	;# 
  1194  011F                     	;# 
  1195  011F                     	;# 
  1196  011F                     	;# 
  1197  011F                     	;# 
  1198  011F                     	;# 
  1199  018C                     	;# 
  1200  018D                     	;# 
  1201  018E                     	;# 
  1202  018F                     	;# 
  1203  0190                     	;# 
  1204  0191                     	;# 
  1205  0192                     	;# 
  1206  0196                     	;# 
  1207  0197                     	;# 
  1208  0198                     	;# 
  1209  0199                     	;# 
  1210  019A                     	;# 
  1211  019B                     	;# 
  1212  019C                     	;# 
  1213  020C                     	;# 
  1214  020C                     	;# 
  1215  020D                     	;# 
  1216  020E                     	;# 
  1217  020F                     	;# 
  1218  020F                     	;# 
  1219  0210                     	;# 
  1220  0210                     	;# 
  1221  0211                     	;# 
  1222  0211                     	;# 
  1223  0212                     	;# 
  1224  0212                     	;# 
  1225  0213                     	;# 
  1226  0214                     	;# 
  1227  0215                     	;# 
  1228  0215                     	;# 
  1229  0216                     	;# 
  1230  0216                     	;# 
  1231  0217                     	;# 
  1232  0217                     	;# 
  1233  0218                     	;# 
  1234  0218                     	;# 
  1235  0219                     	;# 
  1236  021A                     	;# 
  1237  021B                     	;# 
  1238  021B                     	;# 
  1239  021C                     	;# 
  1240  021C                     	;# 
  1241  021D                     	;# 
  1242  021D                     	;# 
  1243  021E                     	;# 
  1244  021F                     	;# 
  1245  028C                     	;# 
  1246  028C                     	;# 
  1247  028D                     	;# 
  1248  028D                     	;# 
  1249  028E                     	;# 
  1250  028F                     	;# 
  1251  0290                     	;# 
  1252  0290                     	;# 
  1253  0291                     	;# 
  1254  0292                     	;# 
  1255  0292                     	;# 
  1256  0293                     	;# 
  1257  0293                     	;# 
  1258  0294                     	;# 
  1259  0295                     	;# 
  1260  0296                     	;# 
  1261  0296                     	;# 
  1262  0297                     	;# 
  1263  0298                     	;# 
  1264  0298                     	;# 
  1265  0299                     	;# 
  1266  0299                     	;# 
  1267  029A                     	;# 
  1268  029B                     	;# 
  1269  029C                     	;# 
  1270  029C                     	;# 
  1271  029D                     	;# 
  1272  030C                     	;# 
  1273  030C                     	;# 
  1274  030D                     	;# 
  1275  030E                     	;# 
  1276  030F                     	;# 
  1277  0310                     	;# 
  1278  0310                     	;# 
  1279  0311                     	;# 
  1280  0312                     	;# 
  1281  0313                     	;# 
  1282  0314                     	;# 
  1283  0314                     	;# 
  1284  0315                     	;# 
  1285  0316                     	;# 
  1286  0317                     	;# 
  1287  0318                     	;# 
  1288  0318                     	;# 
  1289  0319                     	;# 
  1290  031A                     	;# 
  1291  031B                     	;# 
  1292  031C                     	;# 
  1293  031C                     	;# 
  1294  031D                     	;# 
  1295  031E                     	;# 
  1296  031F                     	;# 
  1297  038C                     	;# 
  1298  038D                     	;# 
  1299  038E                     	;# 
  1300  0390                     	;# 
  1301  0391                     	;# 
  1302  0392                     	;# 
  1303  040C                     	;# 
  1304  040D                     	;# 
  1305  040E                     	;# 
  1306  040F                     	;# 
  1307  0410                     	;# 
  1308  0411                     	;# 
  1309  0416                     	;# 
  1310  0416                     	;# 
  1311  0417                     	;# 
  1312  0418                     	;# 
  1313  0418                     	;# 
  1314  0419                     	;# 
  1315  041A                     	;# 
  1316  041A                     	;# 
  1317  041B                     	;# 
  1318  041C                     	;# 
  1319  041C                     	;# 
  1320  041D                     	;# 
  1321  041E                     	;# 
  1322  041F                     	;# 
  1323  048C                     	;# 
  1324  048C                     	;# 
  1325  048D                     	;# 
  1326  048E                     	;# 
  1327  048F                     	;# 
  1328  048F                     	;# 
  1329  0490                     	;# 
  1330  0491                     	;# 
  1331  0492                     	;# 
  1332  0492                     	;# 
  1333  0493                     	;# 
  1334  0494                     	;# 
  1335  0495                     	;# 
  1336  0495                     	;# 
  1337  0496                     	;# 
  1338  0497                     	;# 
  1339  0498                     	;# 
  1340  0499                     	;# 
  1341  049A                     	;# 
  1342  049B                     	;# 
  1343  049C                     	;# 
  1344  049D                     	;# 
  1345  050C                     	;# 
  1346  050C                     	;# 
  1347  050D                     	;# 
  1348  050E                     	;# 
  1349  050F                     	;# 
  1350  050F                     	;# 
  1351  0510                     	;# 
  1352  0511                     	;# 
  1353  0512                     	;# 
  1354  0512                     	;# 
  1355  0513                     	;# 
  1356  0514                     	;# 
  1357  0515                     	;# 
  1358  0515                     	;# 
  1359  0516                     	;# 
  1360  0517                     	;# 
  1361  0518                     	;# 
  1362  0519                     	;# 
  1363  051A                     	;# 
  1364  051B                     	;# 
  1365  051C                     	;# 
  1366  051D                     	;# 
  1367  058C                     	;# 
  1368  058C                     	;# 
  1369  058D                     	;# 
  1370  058E                     	;# 
  1371  058F                     	;# 
  1372  058F                     	;# 
  1373  0590                     	;# 
  1374  0591                     	;# 
  1375  0592                     	;# 
  1376  0593                     	;# 
  1377  060C                     	;# 
  1378  060D                     	;# 
  1379  060E                     	;# 
  1380  060F                     	;# 
  1381  0610                     	;# 
  1382  0611                     	;# 
  1383  0612                     	;# 
  1384  0613                     	;# 
  1385  0614                     	;# 
  1386  0616                     	;# 
  1387  0617                     	;# 
  1388  0618                     	;# 
  1389  0619                     	;# 
  1390  061A                     	;# 
  1391  061B                     	;# 
  1392  061C                     	;# 
  1393  061D                     	;# 
  1394  061E                     	;# 
  1395  068C                     	;# 
  1396  068D                     	;# 
  1397  068E                     	;# 
  1398  068F                     	;# 
  1399  0690                     	;# 
  1400  0691                     	;# 
  1401  0692                     	;# 
  1402  0693                     	;# 
  1403  0694                     	;# 
  1404  070C                     	;# 
  1405  070D                     	;# 
  1406  070E                     	;# 
  1407  070F                     	;# 
  1408  0710                     	;# 
  1409  0711                     	;# 
  1410  0712                     	;# 
  1411  0713                     	;# 
  1412  0714                     	;# 
  1413  0716                     	;# 
  1414  0717                     	;# 
  1415  0718                     	;# 
  1416  0719                     	;# 
  1417  071A                     	;# 
  1418  071B                     	;# 
  1419  071C                     	;# 
  1420  071D                     	;# 
  1421  071E                     	;# 
  1422  0796                     	;# 
  1423  0797                     	;# 
  1424  0798                     	;# 
  1425  0799                     	;# 
  1426  079A                     	;# 
  1427  079B                     	;# 
  1428  080C                     	;# 
  1429  080D                     	;# 
  1430  080E                     	;# 
  1431  080F                     	;# 
  1432  0810                     	;# 
  1433  0811                     	;# 
  1434  0812                     	;# 
  1435  0813                     	;# 
  1436  0814                     	;# 
  1437  081A                     	;# 
  1438  081B                     	;# 
  1439  081C                     	;# 
  1440  081D                     	;# 
  1441  081E                     	;# 
  1442  081F                     	;# 
  1443  088C                     	;# 
  1444  088D                     	;# 
  1445  088E                     	;# 
  1446  088F                     	;# 
  1447  0890                     	;# 
  1448  0891                     	;# 
  1449  0892                     	;# 
  1450  0893                     	;# 
  1451  0895                     	;# 
  1452  0896                     	;# 
  1453  0897                     	;# 
  1454  0898                     	;# 
  1455  0899                     	;# 
  1456  089A                     	;# 
  1457  089B                     	;# 
  1458  090C                     	;# 
  1459  090E                     	;# 
  1460  090F                     	;# 
  1461  091F                     	;# 
  1462  091F                     	;# 
  1463  098F                     	;# 
  1464  098F                     	;# 
  1465  0990                     	;# 
  1466  0991                     	;# 
  1467  0992                     	;# 
  1468  0993                     	;# 
  1469  0994                     	;# 
  1470  0995                     	;# 
  1471  0996                     	;# 
  1472  0997                     	;# 
  1473  0E0F                     	;# 
  1474  0E10                     	;# 
  1475  0E11                     	;# 
  1476  0E12                     	;# 
  1477  0E13                     	;# 
  1478  0E14                     	;# 
  1479  0E15                     	;# 
  1480  0E16                     	;# 
  1481  0E17                     	;# 
  1482  0E18                     	;# 
  1483  0E19                     	;# 
  1484  0E1A                     	;# 
  1485  0E1B                     	;# 
  1486  0E1C                     	;# 
  1487  0E1D                     	;# 
  1488  0E1E                     	;# 
  1489  0E1F                     	;# 
  1490  0E20                     	;# 
  1491  0E21                     	;# 
  1492  0E22                     	;# 
  1493  0E23                     	;# 
  1494  0E24                     	;# 
  1495  0E25                     	;# 
  1496  0E26                     	;# 
  1497  0E27                     	;# 
  1498  0E28                     	;# 
  1499  0E29                     	;# 
  1500  0E2A                     	;# 
  1501  0E2B                     	;# 
  1502  0E2C                     	;# 
  1503  0E2D                     	;# 
  1504  0E2E                     	;# 
  1505  0E2F                     	;# 
  1506  0E30                     	;# 
  1507  0E31                     	;# 
  1508  0E32                     	;# 
  1509  0E33                     	;# 
  1510  0E34                     	;# 
  1511  0E35                     	;# 
  1512  0E36                     	;# 
  1513  0E37                     	;# 
  1514  0E8F                     	;# 
  1515  0E90                     	;# 
  1516  0E91                     	;# 
  1517  0E92                     	;# 
  1518  0E93                     	;# 
  1519  0E94                     	;# 
  1520  0E95                     	;# 
  1521  0E96                     	;# 
  1522  0E97                     	;# 
  1523  0E9C                     	;# 
  1524  0E9D                     	;# 
  1525  0E9E                     	;# 
  1526  0EA1                     	;# 
  1527  0EA2                     	;# 
  1528  0EA3                     	;# 
  1529  0EA4                     	;# 
  1530  0EA5                     	;# 
  1531  0EA9                     	;# 
  1532  0EAA                     	;# 
  1533  0EAB                     	;# 
  1534  0EAC                     	;# 
  1535  0EB1                     	;# 
  1536  0EB2                     	;# 
  1537  0EB3                     	;# 
  1538  0EB8                     	;# 
  1539  0EB9                     	;# 
  1540  0EBA                     	;# 
  1541  0EBB                     	;# 
  1542  0EBC                     	;# 
  1543  0EBD                     	;# 
  1544  0EBE                     	;# 
  1545  0EC3                     	;# 
  1546  0EC5                     	;# 
  1547  0EC6                     	;# 
  1548  0EC7                     	;# 
  1549  0EC8                     	;# 
  1550  0EC9                     	;# 
  1551  0ECA                     	;# 
  1552  0ECB                     	;# 
  1553  0ECC                     	;# 
  1554  0F10                     	;# 
  1555  0F11                     	;# 
  1556  0F12                     	;# 
  1557  0F13                     	;# 
  1558  0F14                     	;# 
  1559  0F15                     	;# 
  1560  0F16                     	;# 
  1561  0F17                     	;# 
  1562  0F18                     	;# 
  1563  0F19                     	;# 
  1564  0F1A                     	;# 
  1565  0F1B                     	;# 
  1566  0F1C                     	;# 
  1567  0F1D                     	;# 
  1568  0F1E                     	;# 
  1569  0F1F                     	;# 
  1570  0F20                     	;# 
  1571  0F21                     	;# 
  1572  0F22                     	;# 
  1573  0F23                     	;# 
  1574  0F24                     	;# 
  1575  0F25                     	;# 
  1576  0F26                     	;# 
  1577  0F27                     	;# 
  1578  0F38                     	;# 
  1579  0F39                     	;# 
  1580  0F3A                     	;# 
  1581  0F3B                     	;# 
  1582  0F3C                     	;# 
  1583  0F3D                     	;# 
  1584  0F3E                     	;# 
  1585  0F3F                     	;# 
  1586  0F40                     	;# 
  1587  0F41                     	;# 
  1588  0F43                     	;# 
  1589  0F44                     	;# 
  1590  0F45                     	;# 
  1591  0F46                     	;# 
  1592  0F47                     	;# 
  1593  0F48                     	;# 
  1594  0F49                     	;# 
  1595  0F4A                     	;# 
  1596  0F4B                     	;# 
  1597  0F4C                     	;# 
  1598  0F4E                     	;# 
  1599  0F4F                     	;# 
  1600  0F50                     	;# 
  1601  0F51                     	;# 
  1602  0F52                     	;# 
  1603  0F53                     	;# 
  1604  0F54                     	;# 
  1605  0F55                     	;# 
  1606  0F56                     	;# 
  1607  0F57                     	;# 
  1608  0F65                     	;# 
  1609  0F68                     	;# 
  1610  0F69                     	;# 
  1611  0F6A                     	;# 
  1612  0F6B                     	;# 
  1613  0FE4                     	;# 
  1614  0FE5                     	;# 
  1615  0FE6                     	;# 
  1616  0FE7                     	;# 
  1617  0FE8                     	;# 
  1618  0FE9                     	;# 
  1619  0FEA                     	;# 
  1620  0FEB                     	;# 
  1621  0FED                     	;# 
  1622  0FEE                     	;# 
  1623  0FEF                     	;# 
  1624  0000                     	;# 
  1625  0001                     	;# 
  1626  0002                     	;# 
  1627  0003                     	;# 
  1628  0004                     	;# 
  1629  0005                     	;# 
  1630  0006                     	;# 
  1631  0007                     	;# 
  1632  0008                     	;# 
  1633  0009                     	;# 
  1634  000A                     	;# 
  1635  000B                     	;# 
  1636  000C                     	;# 
  1637  000D                     	;# 
  1638  000E                     	;# 
  1639  0010                     	;# 
  1640  0011                     	;# 
  1641  0012                     	;# 
  1642  0013                     	;# 
  1643  0016                     	;# 
  1644  0017                     	;# 
  1645  0018                     	;# 
  1646  001C                     	;# 
  1647  001C                     	;# 
  1648  001D                     	;# 
  1649  001D                     	;# 
  1650  001E                     	;# 
  1651  001F                     	;# 
  1652  008C                     	;# 
  1653  008C                     	;# 
  1654  008D                     	;# 
  1655  008E                     	;# 
  1656  008E                     	;# 
  1657  008F                     	;# 
  1658  0090                     	;# 
  1659  0090                     	;# 
  1660  0091                     	;# 
  1661  0093                     	;# 
  1662  0094                     	;# 
  1663  0095                     	;# 
  1664  0096                     	;# 
  1665  0097                     	;# 
  1666  0098                     	;# 
  1667  0099                     	;# 
  1668  009A                     	;# 
  1669  009B                     	;# 
  1670  009C                     	;# 
  1671  009D                     	;# 
  1672  009E                     	;# 
  1673  010C                     	;# 
  1674  010D                     	;# 
  1675  010E                     	;# 
  1676  010E                     	;# 
  1677  010F                     	;# 
  1678  0110                     	;# 
  1679  0110                     	;# 
  1680  0111                     	;# 
  1681  0112                     	;# 
  1682  0112                     	;# 
  1683  0113                     	;# 
  1684  0114                     	;# 
  1685  0114                     	;# 
  1686  0115                     	;# 
  1687  0116                     	;# 
  1688  0116                     	;# 
  1689  0117                     	;# 
  1690  0119                     	;# 
  1691  0119                     	;# 
  1692  0119                     	;# 
  1693  011A                     	;# 
  1694  011A                     	;# 
  1695  011A                     	;# 
  1696  011B                     	;# 
  1697  011B                     	;# 
  1698  011B                     	;# 
  1699  011B                     	;# 
  1700  011B                     	;# 
  1701  011C                     	;# 
  1702  011C                     	;# 
  1703  011C                     	;# 
  1704  011D                     	;# 
  1705  011D                     	;# 
  1706  011D                     	;# 
  1707  011E                     	;# 
  1708  011E                     	;# 
  1709  011E                     	;# 
  1710  011F                     	;# 
  1711  011F                     	;# 
  1712  011F                     	;# 
  1713  011F                     	;# 
  1714  011F                     	;# 
  1715  018C                     	;# 
  1716  018D                     	;# 
  1717  018E                     	;# 
  1718  018F                     	;# 
  1719  0190                     	;# 
  1720  0191                     	;# 
  1721  0192                     	;# 
  1722  0196                     	;# 
  1723  0197                     	;# 
  1724  0198                     	;# 
  1725  0199                     	;# 
  1726  019A                     	;# 
  1727  019B                     	;# 
  1728  019C                     	;# 
  1729  020C                     	;# 
  1730  020C                     	;# 
  1731  020D                     	;# 
  1732  020E                     	;# 
  1733  020F                     	;# 
  1734  020F                     	;# 
  1735  0210                     	;# 
  1736  0210                     	;# 
  1737  0211                     	;# 
  1738  0211                     	;# 
  1739  0212                     	;# 
  1740  0212                     	;# 
  1741  0213                     	;# 
  1742  0214                     	;# 
  1743  0215                     	;# 
  1744  0215                     	;# 
  1745  0216                     	;# 
  1746  0216                     	;# 
  1747  0217                     	;# 
  1748  0217                     	;# 
  1749  0218                     	;# 
  1750  0218                     	;# 
  1751  0219                     	;# 
  1752  021A                     	;# 
  1753  021B                     	;# 
  1754  021B                     	;# 
  1755  021C                     	;# 
  1756  021C                     	;# 
  1757  021D                     	;# 
  1758  021D                     	;# 
  1759  021E                     	;# 
  1760  021F                     	;# 
  1761  028C                     	;# 
  1762  028C                     	;# 
  1763  028D                     	;# 
  1764  028D                     	;# 
  1765  028E                     	;# 
  1766  028F                     	;# 
  1767  0290                     	;# 
  1768  0290                     	;# 
  1769  0291                     	;# 
  1770  0292                     	;# 
  1771  0292                     	;# 
  1772  0293                     	;# 
  1773  0293                     	;# 
  1774  0294                     	;# 
  1775  0295                     	;# 
  1776  0296                     	;# 
  1777  0296                     	;# 
  1778  0297                     	;# 
  1779  0298                     	;# 
  1780  0298                     	;# 
  1781  0299                     	;# 
  1782  0299                     	;# 
  1783  029A                     	;# 
  1784  029B                     	;# 
  1785  029C                     	;# 
  1786  029C                     	;# 
  1787  029D                     	;# 
  1788  030C                     	;# 
  1789  030C                     	;# 
  1790  030D                     	;# 
  1791  030E                     	;# 
  1792  030F                     	;# 
  1793  0310                     	;# 
  1794  0310                     	;# 
  1795  0311                     	;# 
  1796  0312                     	;# 
  1797  0313                     	;# 
  1798  0314                     	;# 
  1799  0314                     	;# 
  1800  0315                     	;# 
  1801  0316                     	;# 
  1802  0317                     	;# 
  1803  0318                     	;# 
  1804  0318                     	;# 
  1805  0319                     	;# 
  1806  031A                     	;# 
  1807  031B                     	;# 
  1808  031C                     	;# 
  1809  031C                     	;# 
  1810  031D                     	;# 
  1811  031E                     	;# 
  1812  031F                     	;# 
  1813  038C                     	;# 
  1814  038D                     	;# 
  1815  038E                     	;# 
  1816  0390                     	;# 
  1817  0391                     	;# 
  1818  0392                     	;# 
  1819  040C                     	;# 
  1820  040D                     	;# 
  1821  040E                     	;# 
  1822  040F                     	;# 
  1823  0410                     	;# 
  1824  0411                     	;# 
  1825  0416                     	;# 
  1826  0416                     	;# 
  1827  0417                     	;# 
  1828  0418                     	;# 
  1829  0418                     	;# 
  1830  0419                     	;# 
  1831  041A                     	;# 
  1832  041A                     	;# 
  1833  041B                     	;# 
  1834  041C                     	;# 
  1835  041C                     	;# 
  1836  041D                     	;# 
  1837  041E                     	;# 
  1838  041F                     	;# 
  1839  048C                     	;# 
  1840  048C                     	;# 
  1841  048D                     	;# 
  1842  048E                     	;# 
  1843  048F                     	;# 
  1844  048F                     	;# 
  1845  0490                     	;# 
  1846  0491                     	;# 
  1847  0492                     	;# 
  1848  0492                     	;# 
  1849  0493                     	;# 
  1850  0494                     	;# 
  1851  0495                     	;# 
  1852  0495                     	;# 
  1853  0496                     	;# 
  1854  0497                     	;# 
  1855  0498                     	;# 
  1856  0499                     	;# 
  1857  049A                     	;# 
  1858  049B                     	;# 
  1859  049C                     	;# 
  1860  049D                     	;# 
  1861  050C                     	;# 
  1862  050C                     	;# 
  1863  050D                     	;# 
  1864  050E                     	;# 
  1865  050F                     	;# 
  1866  050F                     	;# 
  1867  0510                     	;# 
  1868  0511                     	;# 
  1869  0512                     	;# 
  1870  0512                     	;# 
  1871  0513                     	;# 
  1872  0514                     	;# 
  1873  0515                     	;# 
  1874  0515                     	;# 
  1875  0516                     	;# 
  1876  0517                     	;# 
  1877  0518                     	;# 
  1878  0519                     	;# 
  1879  051A                     	;# 
  1880  051B                     	;# 
  1881  051C                     	;# 
  1882  051D                     	;# 
  1883  058C                     	;# 
  1884  058C                     	;# 
  1885  058D                     	;# 
  1886  058E                     	;# 
  1887  058F                     	;# 
  1888  058F                     	;# 
  1889  0590                     	;# 
  1890  0591                     	;# 
  1891  0592                     	;# 
  1892  0593                     	;# 
  1893  060C                     	;# 
  1894  060D                     	;# 
  1895  060E                     	;# 
  1896  060F                     	;# 
  1897  0610                     	;# 
  1898  0611                     	;# 
  1899  0612                     	;# 
  1900  0613                     	;# 
  1901  0614                     	;# 
  1902  0616                     	;# 
  1903  0617                     	;# 
  1904  0618                     	;# 
  1905  0619                     	;# 
  1906  061A                     	;# 
  1907  061B                     	;# 
  1908  061C                     	;# 
  1909  061D                     	;# 
  1910  061E                     	;# 
  1911  068C                     	;# 
  1912  068D                     	;# 
  1913  068E                     	;# 
  1914  068F                     	;# 
  1915  0690                     	;# 
  1916  0691                     	;# 
  1917  0692                     	;# 
  1918  0693                     	;# 
  1919  0694                     	;# 
  1920  070C                     	;# 
  1921  070D                     	;# 
  1922  070E                     	;# 
  1923  070F                     	;# 
  1924  0710                     	;# 
  1925  0711                     	;# 
  1926  0712                     	;# 
  1927  0713                     	;# 
  1928  0714                     	;# 
  1929  0716                     	;# 
  1930  0717                     	;# 
  1931  0718                     	;# 
  1932  0719                     	;# 
  1933  071A                     	;# 
  1934  071B                     	;# 
  1935  071C                     	;# 
  1936  071D                     	;# 
  1937  071E                     	;# 
  1938  0796                     	;# 
  1939  0797                     	;# 
  1940  0798                     	;# 
  1941  0799                     	;# 
  1942  079A                     	;# 
  1943  079B                     	;# 
  1944  080C                     	;# 
  1945  080D                     	;# 
  1946  080E                     	;# 
  1947  080F                     	;# 
  1948  0810                     	;# 
  1949  0811                     	;# 
  1950  0812                     	;# 
  1951  0813                     	;# 
  1952  0814                     	;# 
  1953  081A                     	;# 
  1954  081B                     	;# 
  1955  081C                     	;# 
  1956  081D                     	;# 
  1957  081E                     	;# 
  1958  081F                     	;# 
  1959  088C                     	;# 
  1960  088D                     	;# 
  1961  088E                     	;# 
  1962  088F                     	;# 
  1963  0890                     	;# 
  1964  0891                     	;# 
  1965  0892                     	;# 
  1966  0893                     	;# 
  1967  0895                     	;# 
  1968  0896                     	;# 
  1969  0897                     	;# 
  1970  0898                     	;# 
  1971  0899                     	;# 
  1972  089A                     	;# 
  1973  089B                     	;# 
  1974  090C                     	;# 
  1975  090E                     	;# 
  1976  090F                     	;# 
  1977  091F                     	;# 
  1978  091F                     	;# 
  1979  098F                     	;# 
  1980  098F                     	;# 
  1981  0990                     	;# 
  1982  0991                     	;# 
  1983  0992                     	;# 
  1984  0993                     	;# 
  1985  0994                     	;# 
  1986  0995                     	;# 
  1987  0996                     	;# 
  1988  0997                     	;# 
  1989  0E0F                     	;# 
  1990  0E10                     	;# 
  1991  0E11                     	;# 
  1992  0E12                     	;# 
  1993  0E13                     	;# 
  1994  0E14                     	;# 
  1995  0E15                     	;# 
  1996  0E16                     	;# 
  1997  0E17                     	;# 
  1998  0E18                     	;# 
  1999  0E19                     	;# 
  2000  0E1A                     	;# 
  2001  0E1B                     	;# 
  2002  0E1C                     	;# 
  2003  0E1D                     	;# 
  2004  0E1E                     	;# 
  2005  0E1F                     	;# 
  2006  0E20                     	;# 
  2007  0E21                     	;# 
  2008  0E22                     	;# 
  2009  0E23                     	;# 
  2010  0E24                     	;# 
  2011  0E25                     	;# 
  2012  0E26                     	;# 
  2013  0E27                     	;# 
  2014  0E28                     	;# 
  2015  0E29                     	;# 
  2016  0E2A                     	;# 
  2017  0E2B                     	;# 
  2018  0E2C                     	;# 
  2019  0E2D                     	;# 
  2020  0E2E                     	;# 
  2021  0E2F                     	;# 
  2022  0E30                     	;# 
  2023  0E31                     	;# 
  2024  0E32                     	;# 
  2025  0E33                     	;# 
  2026  0E34                     	;# 
  2027  0E35                     	;# 
  2028  0E36                     	;# 
  2029  0E37                     	;# 
  2030  0E8F                     	;# 
  2031  0E90                     	;# 
  2032  0E91                     	;# 
  2033  0E92                     	;# 
  2034  0E93                     	;# 
  2035  0E94                     	;# 
  2036  0E95                     	;# 
  2037  0E96                     	;# 
  2038  0E97                     	;# 
  2039  0E9C                     	;# 
  2040  0E9D                     	;# 
  2041  0E9E                     	;# 
  2042  0EA1                     	;# 
  2043  0EA2                     	;# 
  2044  0EA3                     	;# 
  2045  0EA4                     	;# 
  2046  0EA5                     	;# 
  2047  0EA9                     	;# 
  2048  0EAA                     	;# 
  2049  0EAB                     	;# 
  2050  0EAC                     	;# 
  2051  0EB1                     	;# 
  2052  0EB2                     	;# 
  2053  0EB3                     	;# 
  2054  0EB8                     	;# 
  2055  0EB9                     	;# 
  2056  0EBA                     	;# 
  2057  0EBB                     	;# 
  2058  0EBC                     	;# 
  2059  0EBD                     	;# 
  2060  0EBE                     	;# 
  2061  0EC3                     	;# 
  2062  0EC5                     	;# 
  2063  0EC6                     	;# 
  2064  0EC7                     	;# 
  2065  0EC8                     	;# 
  2066  0EC9                     	;# 
  2067  0ECA                     	;# 
  2068  0ECB                     	;# 
  2069  0ECC                     	;# 
  2070  0F10                     	;# 
  2071  0F11                     	;# 
  2072  0F12                     	;# 
  2073  0F13                     	;# 
  2074  0F14                     	;# 
  2075  0F15                     	;# 
  2076  0F16                     	;# 
  2077  0F17                     	;# 
  2078  0F18                     	;# 
  2079  0F19                     	;# 
  2080  0F1A                     	;# 
  2081  0F1B                     	;# 
  2082  0F1C                     	;# 
  2083  0F1D                     	;# 
  2084  0F1E                     	;# 
  2085  0F1F                     	;# 
  2086  0F20                     	;# 
  2087  0F21                     	;# 
  2088  0F22                     	;# 
  2089  0F23                     	;# 
  2090  0F24                     	;# 
  2091  0F25                     	;# 
  2092  0F26                     	;# 
  2093  0F27                     	;# 
  2094  0F38                     	;# 
  2095  0F39                     	;# 
  2096  0F3A                     	;# 
  2097  0F3B                     	;# 
  2098  0F3C                     	;# 
  2099  0F3D                     	;# 
  2100  0F3E                     	;# 
  2101  0F3F                     	;# 
  2102  0F40                     	;# 
  2103  0F41                     	;# 
  2104  0F43                     	;# 
  2105  0F44                     	;# 
  2106  0F45                     	;# 
  2107  0F46                     	;# 
  2108  0F47                     	;# 
  2109  0F48                     	;# 
  2110  0F49                     	;# 
  2111  0F4A                     	;# 
  2112  0F4B                     	;# 
  2113  0F4C                     	;# 
  2114  0F4E                     	;# 
  2115  0F4F                     	;# 
  2116  0F50                     	;# 
  2117  0F51                     	;# 
  2118  0F52                     	;# 
  2119  0F53                     	;# 
  2120  0F54                     	;# 
  2121  0F55                     	;# 
  2122  0F56                     	;# 
  2123  0F57                     	;# 
  2124  0F65                     	;# 
  2125  0F68                     	;# 
  2126  0F69                     	;# 
  2127  0F6A                     	;# 
  2128  0F6B                     	;# 
  2129  0FE4                     	;# 
  2130  0FE5                     	;# 
  2131  0FE6                     	;# 
  2132  0FE7                     	;# 
  2133  0FE8                     	;# 
  2134  0FE9                     	;# 
  2135  0FEA                     	;# 
  2136  0FEB                     	;# 
  2137  0FED                     	;# 
  2138  0FEE                     	;# 
  2139  0FEF                     	;# 
  2140  0000                     	;# 
  2141  0001                     	;# 
  2142  0002                     	;# 
  2143  0003                     	;# 
  2144  0004                     	;# 
  2145  0005                     	;# 
  2146  0006                     	;# 
  2147  0007                     	;# 
  2148  0008                     	;# 
  2149  0009                     	;# 
  2150  000A                     	;# 
  2151  000B                     	;# 
  2152  000C                     	;# 
  2153  000D                     	;# 
  2154  000E                     	;# 
  2155  0010                     	;# 
  2156  0011                     	;# 
  2157  0012                     	;# 
  2158  0013                     	;# 
  2159  0016                     	;# 
  2160  0017                     	;# 
  2161  0018                     	;# 
  2162  001C                     	;# 
  2163  001C                     	;# 
  2164  001D                     	;# 
  2165  001D                     	;# 
  2166  001E                     	;# 
  2167  001F                     	;# 
  2168  008C                     	;# 
  2169  008C                     	;# 
  2170  008D                     	;# 
  2171  008E                     	;# 
  2172  008E                     	;# 
  2173  008F                     	;# 
  2174  0090                     	;# 
  2175  0090                     	;# 
  2176  0091                     	;# 
  2177  0093                     	;# 
  2178  0094                     	;# 
  2179  0095                     	;# 
  2180  0096                     	;# 
  2181  0097                     	;# 
  2182  0098                     	;# 
  2183  0099                     	;# 
  2184  009A                     	;# 
  2185  009B                     	;# 
  2186  009C                     	;# 
  2187  009D                     	;# 
  2188  009E                     	;# 
  2189  010C                     	;# 
  2190  010D                     	;# 
  2191  010E                     	;# 
  2192  010E                     	;# 
  2193  010F                     	;# 
  2194  0110                     	;# 
  2195  0110                     	;# 
  2196  0111                     	;# 
  2197  0112                     	;# 
  2198  0112                     	;# 
  2199  0113                     	;# 
  2200  0114                     	;# 
  2201  0114                     	;# 
  2202  0115                     	;# 
  2203  0116                     	;# 
  2204  0116                     	;# 
  2205  0117                     	;# 
  2206  0119                     	;# 
  2207  0119                     	;# 
  2208  0119                     	;# 
  2209  011A                     	;# 
  2210  011A                     	;# 
  2211  011A                     	;# 
  2212  011B                     	;# 
  2213  011B                     	;# 
  2214  011B                     	;# 
  2215  011B                     	;# 
  2216  011B                     	;# 
  2217  011C                     	;# 
  2218  011C                     	;# 
  2219  011C                     	;# 
  2220  011D                     	;# 
  2221  011D                     	;# 
  2222  011D                     	;# 
  2223  011E                     	;# 
  2224  011E                     	;# 
  2225  011E                     	;# 
  2226  011F                     	;# 
  2227  011F                     	;# 
  2228  011F                     	;# 
  2229  011F                     	;# 
  2230  011F                     	;# 
  2231  018C                     	;# 
  2232  018D                     	;# 
  2233  018E                     	;# 
  2234  018F                     	;# 
  2235  0190                     	;# 
  2236  0191                     	;# 
  2237  0192                     	;# 
  2238  0196                     	;# 
  2239  0197                     	;# 
  2240  0198                     	;# 
  2241  0199                     	;# 
  2242  019A                     	;# 
  2243  019B                     	;# 
  2244  019C                     	;# 
  2245  020C                     	;# 
  2246  020C                     	;# 
  2247  020D                     	;# 
  2248  020E                     	;# 
  2249  020F                     	;# 
  2250  020F                     	;# 
  2251  0210                     	;# 
  2252  0210                     	;# 
  2253  0211                     	;# 
  2254  0211                     	;# 
  2255  0212                     	;# 
  2256  0212                     	;# 
  2257  0213                     	;# 
  2258  0214                     	;# 
  2259  0215                     	;# 
  2260  0215                     	;# 
  2261  0216                     	;# 
  2262  0216                     	;# 
  2263  0217                     	;# 
  2264  0217                     	;# 
  2265  0218                     	;# 
  2266  0218                     	;# 
  2267  0219                     	;# 
  2268  021A                     	;# 
  2269  021B                     	;# 
  2270  021B                     	;# 
  2271  021C                     	;# 
  2272  021C                     	;# 
  2273  021D                     	;# 
  2274  021D                     	;# 
  2275  021E                     	;# 
  2276  021F                     	;# 
  2277  028C                     	;# 
  2278  028C                     	;# 
  2279  028D                     	;# 
  2280  028D                     	;# 
  2281  028E                     	;# 
  2282  028F                     	;# 
  2283  0290                     	;# 
  2284  0290                     	;# 
  2285  0291                     	;# 
  2286  0292                     	;# 
  2287  0292                     	;# 
  2288  0293                     	;# 
  2289  0293                     	;# 
  2290  0294                     	;# 
  2291  0295                     	;# 
  2292  0296                     	;# 
  2293  0296                     	;# 
  2294  0297                     	;# 
  2295  0298                     	;# 
  2296  0298                     	;# 
  2297  0299                     	;# 
  2298  0299                     	;# 
  2299  029A                     	;# 
  2300  029B                     	;# 
  2301  029C                     	;# 
  2302  029C                     	;# 
  2303  029D                     	;# 
  2304  030C                     	;# 
  2305  030C                     	;# 
  2306  030D                     	;# 
  2307  030E                     	;# 
  2308  030F                     	;# 
  2309  0310                     	;# 
  2310  0310                     	;# 
  2311  0311                     	;# 
  2312  0312                     	;# 
  2313  0313                     	;# 
  2314  0314                     	;# 
  2315  0314                     	;# 
  2316  0315                     	;# 
  2317  0316                     	;# 
  2318  0317                     	;# 
  2319  0318                     	;# 
  2320  0318                     	;# 
  2321  0319                     	;# 
  2322  031A                     	;# 
  2323  031B                     	;# 
  2324  031C                     	;# 
  2325  031C                     	;# 
  2326  031D                     	;# 
  2327  031E                     	;# 
  2328  031F                     	;# 
  2329  038C                     	;# 
  2330  038D                     	;# 
  2331  038E                     	;# 
  2332  0390                     	;# 
  2333  0391                     	;# 
  2334  0392                     	;# 
  2335  040C                     	;# 
  2336  040D                     	;# 
  2337  040E                     	;# 
  2338  040F                     	;# 
  2339  0410                     	;# 
  2340  0411                     	;# 
  2341  0416                     	;# 
  2342  0416                     	;# 
  2343  0417                     	;# 
  2344  0418                     	;# 
  2345  0418                     	;# 
  2346  0419                     	;# 
  2347  041A                     	;# 
  2348  041A                     	;# 
  2349  041B                     	;# 
  2350  041C                     	;# 
  2351  041C                     	;# 
  2352  041D                     	;# 
  2353  041E                     	;# 
  2354  041F                     	;# 
  2355  048C                     	;# 
  2356  048C                     	;# 
  2357  048D                     	;# 
  2358  048E                     	;# 
  2359  048F                     	;# 
  2360  048F                     	;# 
  2361  0490                     	;# 
  2362  0491                     	;# 
  2363  0492                     	;# 
  2364  0492                     	;# 
  2365  0493                     	;# 
  2366  0494                     	;# 
  2367  0495                     	;# 
  2368  0495                     	;# 
  2369  0496                     	;# 
  2370  0497                     	;# 
  2371  0498                     	;# 
  2372  0499                     	;# 
  2373  049A                     	;# 
  2374  049B                     	;# 
  2375  049C                     	;# 
  2376  049D                     	;# 
  2377  050C                     	;# 
  2378  050C                     	;# 
  2379  050D                     	;# 
  2380  050E                     	;# 
  2381  050F                     	;# 
  2382  050F                     	;# 
  2383  0510                     	;# 
  2384  0511                     	;# 
  2385  0512                     	;# 
  2386  0512                     	;# 
  2387  0513                     	;# 
  2388  0514                     	;# 
  2389  0515                     	;# 
  2390  0515                     	;# 
  2391  0516                     	;# 
  2392  0517                     	;# 
  2393  0518                     	;# 
  2394  0519                     	;# 
  2395  051A                     	;# 
  2396  051B                     	;# 
  2397  051C                     	;# 
  2398  051D                     	;# 
  2399  058C                     	;# 
  2400  058C                     	;# 
  2401  058D                     	;# 
  2402  058E                     	;# 
  2403  058F                     	;# 
  2404  058F                     	;# 
  2405  0590                     	;# 
  2406  0591                     	;# 
  2407  0592                     	;# 
  2408  0593                     	;# 
  2409  060C                     	;# 
  2410  060D                     	;# 
  2411  060E                     	;# 
  2412  060F                     	;# 
  2413  0610                     	;# 
  2414  0611                     	;# 
  2415  0612                     	;# 
  2416  0613                     	;# 
  2417  0614                     	;# 
  2418  0616                     	;# 
  2419  0617                     	;# 
  2420  0618                     	;# 
  2421  0619                     	;# 
  2422  061A                     	;# 
  2423  061B                     	;# 
  2424  061C                     	;# 
  2425  061D                     	;# 
  2426  061E                     	;# 
  2427  068C                     	;# 
  2428  068D                     	;# 
  2429  068E                     	;# 
  2430  068F                     	;# 
  2431  0690                     	;# 
  2432  0691                     	;# 
  2433  0692                     	;# 
  2434  0693                     	;# 
  2435  0694                     	;# 
  2436  070C                     	;# 
  2437  070D                     	;# 
  2438  070E                     	;# 
  2439  070F                     	;# 
  2440  0710                     	;# 
  2441  0711                     	;# 
  2442  0712                     	;# 
  2443  0713                     	;# 
  2444  0714                     	;# 
  2445  0716                     	;# 
  2446  0717                     	;# 
  2447  0718                     	;# 
  2448  0719                     	;# 
  2449  071A                     	;# 
  2450  071B                     	;# 
  2451  071C                     	;# 
  2452  071D                     	;# 
  2453  071E                     	;# 
  2454  0796                     	;# 
  2455  0797                     	;# 
  2456  0798                     	;# 
  2457  0799                     	;# 
  2458  079A                     	;# 
  2459  079B                     	;# 
  2460  080C                     	;# 
  2461  080D                     	;# 
  2462  080E                     	;# 
  2463  080F                     	;# 
  2464  0810                     	;# 
  2465  0811                     	;# 
  2466  0812                     	;# 
  2467  0813                     	;# 
  2468  0814                     	;# 
  2469  081A                     	;# 
  2470  081B                     	;# 
  2471  081C                     	;# 
  2472  081D                     	;# 
  2473  081E                     	;# 
  2474  081F                     	;# 
  2475  088C                     	;# 
  2476  088D                     	;# 
  2477  088E                     	;# 
  2478  088F                     	;# 
  2479  0890                     	;# 
  2480  0891                     	;# 
  2481  0892                     	;# 
  2482  0893                     	;# 
  2483  0895                     	;# 
  2484  0896                     	;# 
  2485  0897                     	;# 
  2486  0898                     	;# 
  2487  0899                     	;# 
  2488  089A                     	;# 
  2489  089B                     	;# 
  2490  090C                     	;# 
  2491  090E                     	;# 
  2492  090F                     	;# 
  2493  091F                     	;# 
  2494  091F                     	;# 
  2495  098F                     	;# 
  2496  098F                     	;# 
  2497  0990                     	;# 
  2498  0991                     	;# 
  2499  0992                     	;# 
  2500  0993                     	;# 
  2501  0994                     	;# 
  2502  0995                     	;# 
  2503  0996                     	;# 
  2504  0997                     	;# 
  2505  0E0F                     	;# 
  2506  0E10                     	;# 
  2507  0E11                     	;# 
  2508  0E12                     	;# 
  2509  0E13                     	;# 
  2510  0E14                     	;# 
  2511  0E15                     	;# 
  2512  0E16                     	;# 
  2513  0E17                     	;# 
  2514  0E18                     	;# 
  2515  0E19                     	;# 
  2516  0E1A                     	;# 
  2517  0E1B                     	;# 
  2518  0E1C                     	;# 
  2519  0E1D                     	;# 
  2520  0E1E                     	;# 
  2521  0E1F                     	;# 
  2522  0E20                     	;# 
  2523  0E21                     	;# 
  2524  0E22                     	;# 
  2525  0E23                     	;# 
  2526  0E24                     	;# 
  2527  0E25                     	;# 
  2528  0E26                     	;# 
  2529  0E27                     	;# 
  2530  0E28                     	;# 
  2531  0E29                     	;# 
  2532  0E2A                     	;# 
  2533  0E2B                     	;# 
  2534  0E2C                     	;# 
  2535  0E2D                     	;# 
  2536  0E2E                     	;# 
  2537  0E2F                     	;# 
  2538  0E30                     	;# 
  2539  0E31                     	;# 
  2540  0E32                     	;# 
  2541  0E33                     	;# 
  2542  0E34                     	;# 
  2543  0E35                     	;# 
  2544  0E36                     	;# 
  2545  0E37                     	;# 
  2546  0E8F                     	;# 
  2547  0E90                     	;# 
  2548  0E91                     	;# 
  2549  0E92                     	;# 
  2550  0E93                     	;# 
  2551  0E94                     	;# 
  2552  0E95                     	;# 
  2553  0E96                     	;# 
  2554  0E97                     	;# 
  2555  0E9C                     	;# 
  2556  0E9D                     	;# 
  2557  0E9E                     	;# 
  2558  0EA1                     	;# 
  2559  0EA2                     	;# 
  2560  0EA3                     	;# 
  2561  0EA4                     	;# 
  2562  0EA5                     	;# 
  2563  0EA9                     	;# 
  2564  0EAA                     	;# 
  2565  0EAB                     	;# 
  2566  0EAC                     	;# 
  2567  0EB1                     	;# 
  2568  0EB2                     	;# 
  2569  0EB3                     	;# 
  2570  0EB8                     	;# 
  2571  0EB9                     	;# 
  2572  0EBA                     	;# 
  2573  0EBB                     	;# 
  2574  0EBC                     	;# 
  2575  0EBD                     	;# 
  2576  0EBE                     	;# 
  2577  0EC3                     	;# 
  2578  0EC5                     	;# 
  2579  0EC6                     	;# 
  2580  0EC7                     	;# 
  2581  0EC8                     	;# 
  2582  0EC9                     	;# 
  2583  0ECA                     	;# 
  2584  0ECB                     	;# 
  2585  0ECC                     	;# 
  2586  0F10                     	;# 
  2587  0F11                     	;# 
  2588  0F12                     	;# 
  2589  0F13                     	;# 
  2590  0F14                     	;# 
  2591  0F15                     	;# 
  2592  0F16                     	;# 
  2593  0F17                     	;# 
  2594  0F18                     	;# 
  2595  0F19                     	;# 
  2596  0F1A                     	;# 
  2597  0F1B                     	;# 
  2598  0F1C                     	;# 
  2599  0F1D                     	;# 
  2600  0F1E                     	;# 
  2601  0F1F                     	;# 
  2602  0F20                     	;# 
  2603  0F21                     	;# 
  2604  0F22                     	;# 
  2605  0F23                     	;# 
  2606  0F24                     	;# 
  2607  0F25                     	;# 
  2608  0F26                     	;# 
  2609  0F27                     	;# 
  2610  0F38                     	;# 
  2611  0F39                     	;# 
  2612  0F3A                     	;# 
  2613  0F3B                     	;# 
  2614  0F3C                     	;# 
  2615  0F3D                     	;# 
  2616  0F3E                     	;# 
  2617  0F3F                     	;# 
  2618  0F40                     	;# 
  2619  0F41                     	;# 
  2620  0F43                     	;# 
  2621  0F44                     	;# 
  2622  0F45                     	;# 
  2623  0F46                     	;# 
  2624  0F47                     	;# 
  2625  0F48                     	;# 
  2626  0F49                     	;# 
  2627  0F4A                     	;# 
  2628  0F4B                     	;# 
  2629  0F4C                     	;# 
  2630  0F4E                     	;# 
  2631  0F4F                     	;# 
  2632  0F50                     	;# 
  2633  0F51                     	;# 
  2634  0F52                     	;# 
  2635  0F53                     	;# 
  2636  0F54                     	;# 
  2637  0F55                     	;# 
  2638  0F56                     	;# 
  2639  0F57                     	;# 
  2640  0F65                     	;# 
  2641  0F68                     	;# 
  2642  0F69                     	;# 
  2643  0F6A                     	;# 
  2644  0F6B                     	;# 
  2645  0FE4                     	;# 
  2646  0FE5                     	;# 
  2647  0FE6                     	;# 
  2648  0FE7                     	;# 
  2649  0FE8                     	;# 
  2650  0FE9                     	;# 
  2651  0FEA                     	;# 
  2652  0FEB                     	;# 
  2653  0FED                     	;# 
  2654  0FEE                     	;# 
  2655  0FEF                     	;# 
  2656  0000                     	;# 
  2657  0001                     	;# 
  2658  0002                     	;# 
  2659  0003                     	;# 
  2660  0004                     	;# 
  2661  0005                     	;# 
  2662  0006                     	;# 
  2663  0007                     	;# 
  2664  0008                     	;# 
  2665  0009                     	;# 
  2666  000A                     	;# 
  2667  000B                     	;# 
  2668  000C                     	;# 
  2669  000D                     	;# 
  2670  000E                     	;# 
  2671  0010                     	;# 
  2672  0011                     	;# 
  2673  0012                     	;# 
  2674  0013                     	;# 
  2675  0016                     	;# 
  2676  0017                     	;# 
  2677  0018                     	;# 
  2678  001C                     	;# 
  2679  001C                     	;# 
  2680  001D                     	;# 
  2681  001D                     	;# 
  2682  001E                     	;# 
  2683  001F                     	;# 
  2684  008C                     	;# 
  2685  008C                     	;# 
  2686  008D                     	;# 
  2687  008E                     	;# 
  2688  008E                     	;# 
  2689  008F                     	;# 
  2690  0090                     	;# 
  2691  0090                     	;# 
  2692  0091                     	;# 
  2693  0093                     	;# 
  2694  0094                     	;# 
  2695  0095                     	;# 
  2696  0096                     	;# 
  2697  0097                     	;# 
  2698  0098                     	;# 
  2699  0099                     	;# 
  2700  009A                     	;# 
  2701  009B                     	;# 
  2702  009C                     	;# 
  2703  009D                     	;# 
  2704  009E                     	;# 
  2705  010C                     	;# 
  2706  010D                     	;# 
  2707  010E                     	;# 
  2708  010E                     	;# 
  2709  010F                     	;# 
  2710  0110                     	;# 
  2711  0110                     	;# 
  2712  0111                     	;# 
  2713  0112                     	;# 
  2714  0112                     	;# 
  2715  0113                     	;# 
  2716  0114                     	;# 
  2717  0114                     	;# 
  2718  0115                     	;# 
  2719  0116                     	;# 
  2720  0116                     	;# 
  2721  0117                     	;# 
  2722  0119                     	;# 
  2723  0119                     	;# 
  2724  0119                     	;# 
  2725  011A                     	;# 
  2726  011A                     	;# 
  2727  011A                     	;# 
  2728  011B                     	;# 
  2729  011B                     	;# 
  2730  011B                     	;# 
  2731  011B                     	;# 
  2732  011B                     	;# 
  2733  011C                     	;# 
  2734  011C                     	;# 
  2735  011C                     	;# 
  2736  011D                     	;# 
  2737  011D                     	;# 
  2738  011D                     	;# 
  2739  011E                     	;# 
  2740  011E                     	;# 
  2741  011E                     	;# 
  2742  011F                     	;# 
  2743  011F                     	;# 
  2744  011F                     	;# 
  2745  011F                     	;# 
  2746  011F                     	;# 
  2747  018C                     	;# 
  2748  018D                     	;# 
  2749  018E                     	;# 
  2750  018F                     	;# 
  2751  0190                     	;# 
  2752  0191                     	;# 
  2753  0192                     	;# 
  2754  0196                     	;# 
  2755  0197                     	;# 
  2756  0198                     	;# 
  2757  0199                     	;# 
  2758  019A                     	;# 
  2759  019B                     	;# 
  2760  019C                     	;# 
  2761  020C                     	;# 
  2762  020C                     	;# 
  2763  020D                     	;# 
  2764  020E                     	;# 
  2765  020F                     	;# 
  2766  020F                     	;# 
  2767  0210                     	;# 
  2768  0210                     	;# 
  2769  0211                     	;# 
  2770  0211                     	;# 
  2771  0212                     	;# 
  2772  0212                     	;# 
  2773  0213                     	;# 
  2774  0214                     	;# 
  2775  0215                     	;# 
  2776  0215                     	;# 
  2777  0216                     	;# 
  2778  0216                     	;# 
  2779  0217                     	;# 
  2780  0217                     	;# 
  2781  0218                     	;# 
  2782  0218                     	;# 
  2783  0219                     	;# 
  2784  021A                     	;# 
  2785  021B                     	;# 
  2786  021B                     	;# 
  2787  021C                     	;# 
  2788  021C                     	;# 
  2789  021D                     	;# 
  2790  021D                     	;# 
  2791  021E                     	;# 
  2792  021F                     	;# 
  2793  028C                     	;# 
  2794  028C                     	;# 
  2795  028D                     	;# 
  2796  028D                     	;# 
  2797  028E                     	;# 
  2798  028F                     	;# 
  2799  0290                     	;# 
  2800  0290                     	;# 
  2801  0291                     	;# 
  2802  0292                     	;# 
  2803  0292                     	;# 
  2804  0293                     	;# 
  2805  0293                     	;# 
  2806  0294                     	;# 
  2807  0295                     	;# 
  2808  0296                     	;# 
  2809  0296                     	;# 
  2810  0297                     	;# 
  2811  0298                     	;# 
  2812  0298                     	;# 
  2813  0299                     	;# 
  2814  0299                     	;# 
  2815  029A                     	;# 
  2816  029B                     	;# 
  2817  029C                     	;# 
  2818  029C                     	;# 
  2819  029D                     	;# 
  2820  030C                     	;# 
  2821  030C                     	;# 
  2822  030D                     	;# 
  2823  030E                     	;# 
  2824  030F                     	;# 
  2825  0310                     	;# 
  2826  0310                     	;# 
  2827  0311                     	;# 
  2828  0312                     	;# 
  2829  0313                     	;# 
  2830  0314                     	;# 
  2831  0314                     	;# 
  2832  0315                     	;# 
  2833  0316                     	;# 
  2834  0317                     	;# 
  2835  0318                     	;# 
  2836  0318                     	;# 
  2837  0319                     	;# 
  2838  031A                     	;# 
  2839  031B                     	;# 
  2840  031C                     	;# 
  2841  031C                     	;# 
  2842  031D                     	;# 
  2843  031E                     	;# 
  2844  031F                     	;# 
  2845  038C                     	;# 
  2846  038D                     	;# 
  2847  038E                     	;# 
  2848  0390                     	;# 
  2849  0391                     	;# 
  2850  0392                     	;# 
  2851  040C                     	;# 
  2852  040D                     	;# 
  2853  040E                     	;# 
  2854  040F                     	;# 
  2855  0410                     	;# 
  2856  0411                     	;# 
  2857  0416                     	;# 
  2858  0416                     	;# 
  2859  0417                     	;# 
  2860  0418                     	;# 
  2861  0418                     	;# 
  2862  0419                     	;# 
  2863  041A                     	;# 
  2864  041A                     	;# 
  2865  041B                     	;# 
  2866  041C                     	;# 
  2867  041C                     	;# 
  2868  041D                     	;# 
  2869  041E                     	;# 
  2870  041F                     	;# 
  2871  048C                     	;# 
  2872  048C                     	;# 
  2873  048D                     	;# 
  2874  048E                     	;# 
  2875  048F                     	;# 
  2876  048F                     	;# 
  2877  0490                     	;# 
  2878  0491                     	;# 
  2879  0492                     	;# 
  2880  0492                     	;# 
  2881  0493                     	;# 
  2882  0494                     	;# 
  2883  0495                     	;# 
  2884  0495                     	;# 
  2885  0496                     	;# 
  2886  0497                     	;# 
  2887  0498                     	;# 
  2888  0499                     	;# 
  2889  049A                     	;# 
  2890  049B                     	;# 
  2891  049C                     	;# 
  2892  049D                     	;# 
  2893  050C                     	;# 
  2894  050C                     	;# 
  2895  050D                     	;# 
  2896  050E                     	;# 
  2897  050F                     	;# 
  2898  050F                     	;# 
  2899  0510                     	;# 
  2900  0511                     	;# 
  2901  0512                     	;# 
  2902  0512                     	;# 
  2903  0513                     	;# 
  2904  0514                     	;# 
  2905  0515                     	;# 
  2906  0515                     	;# 
  2907  0516                     	;# 
  2908  0517                     	;# 
  2909  0518                     	;# 
  2910  0519                     	;# 
  2911  051A                     	;# 
  2912  051B                     	;# 
  2913  051C                     	;# 
  2914  051D                     	;# 
  2915  058C                     	;# 
  2916  058C                     	;# 
  2917  058D                     	;# 
  2918  058E                     	;# 
  2919  058F                     	;# 
  2920  058F                     	;# 
  2921  0590                     	;# 
  2922  0591                     	;# 
  2923  0592                     	;# 
  2924  0593                     	;# 
  2925  060C                     	;# 
  2926  060D                     	;# 
  2927  060E                     	;# 
  2928  060F                     	;# 
  2929  0610                     	;# 
  2930  0611                     	;# 
  2931  0612                     	;# 
  2932  0613                     	;# 
  2933  0614                     	;# 
  2934  0616                     	;# 
  2935  0617                     	;# 
  2936  0618                     	;# 
  2937  0619                     	;# 
  2938  061A                     	;# 
  2939  061B                     	;# 
  2940  061C                     	;# 
  2941  061D                     	;# 
  2942  061E                     	;# 
  2943  068C                     	;# 
  2944  068D                     	;# 
  2945  068E                     	;# 
  2946  068F                     	;# 
  2947  0690                     	;# 
  2948  0691                     	;# 
  2949  0692                     	;# 
  2950  0693                     	;# 
  2951  0694                     	;# 
  2952  070C                     	;# 
  2953  070D                     	;# 
  2954  070E                     	;# 
  2955  070F                     	;# 
  2956  0710                     	;# 
  2957  0711                     	;# 
  2958  0712                     	;# 
  2959  0713                     	;# 
  2960  0714                     	;# 
  2961  0716                     	;# 
  2962  0717                     	;# 
  2963  0718                     	;# 
  2964  0719                     	;# 
  2965  071A                     	;# 
  2966  071B                     	;# 
  2967  071C                     	;# 
  2968  071D                     	;# 
  2969  071E                     	;# 
  2970  0796                     	;# 
  2971  0797                     	;# 
  2972  0798                     	;# 
  2973  0799                     	;# 
  2974  079A                     	;# 
  2975  079B                     	;# 
  2976  080C                     	;# 
  2977  080D                     	;# 
  2978  080E                     	;# 
  2979  080F                     	;# 
  2980  0810                     	;# 
  2981  0811                     	;# 
  2982  0812                     	;# 
  2983  0813                     	;# 
  2984  0814                     	;# 
  2985  081A                     	;# 
  2986  081B                     	;# 
  2987  081C                     	;# 
  2988  081D                     	;# 
  2989  081E                     	;# 
  2990  081F                     	;# 
  2991  088C                     	;# 
  2992  088D                     	;# 
  2993  088E                     	;# 
  2994  088F                     	;# 
  2995  0890                     	;# 
  2996  0891                     	;# 
  2997  0892                     	;# 
  2998  0893                     	;# 
  2999  0895                     	;# 
  3000  0896                     	;# 
  3001  0897                     	;# 
  3002  0898                     	;# 
  3003  0899                     	;# 
  3004  089A                     	;# 
  3005  089B                     	;# 
  3006  090C                     	;# 
  3007  090E                     	;# 
  3008  090F                     	;# 
  3009  091F                     	;# 
  3010  091F                     	;# 
  3011  098F                     	;# 
  3012  098F                     	;# 
  3013  0990                     	;# 
  3014  0991                     	;# 
  3015  0992                     	;# 
  3016  0993                     	;# 
  3017  0994                     	;# 
  3018  0995                     	;# 
  3019  0996                     	;# 
  3020  0997                     	;# 
  3021  0E0F                     	;# 
  3022  0E10                     	;# 
  3023  0E11                     	;# 
  3024  0E12                     	;# 
  3025  0E13                     	;# 
  3026  0E14                     	;# 
  3027  0E15                     	;# 
  3028  0E16                     	;# 
  3029  0E17                     	;# 
  3030  0E18                     	;# 
  3031  0E19                     	;# 
  3032  0E1A                     	;# 
  3033  0E1B                     	;# 
  3034  0E1C                     	;# 
  3035  0E1D                     	;# 
  3036  0E1E                     	;# 
  3037  0E1F                     	;# 
  3038  0E20                     	;# 
  3039  0E21                     	;# 
  3040  0E22                     	;# 
  3041  0E23                     	;# 
  3042  0E24                     	;# 
  3043  0E25                     	;# 
  3044  0E26                     	;# 
  3045  0E27                     	;# 
  3046  0E28                     	;# 
  3047  0E29                     	;# 
  3048  0E2A                     	;# 
  3049  0E2B                     	;# 
  3050  0E2C                     	;# 
  3051  0E2D                     	;# 
  3052  0E2E                     	;# 
  3053  0E2F                     	;# 
  3054  0E30                     	;# 
  3055  0E31                     	;# 
  3056  0E32                     	;# 
  3057  0E33                     	;# 
  3058  0E34                     	;# 
  3059  0E35                     	;# 
  3060  0E36                     	;# 
  3061  0E37                     	;# 
  3062  0E8F                     	;# 
  3063  0E90                     	;# 
  3064  0E91                     	;# 
  3065  0E92                     	;# 
  3066  0E93                     	;# 
  3067  0E94                     	;# 
  3068  0E95                     	;# 
  3069  0E96                     	;# 
  3070  0E97                     	;# 
  3071  0E9C                     	;# 
  3072  0E9D                     	;# 
  3073  0E9E                     	;# 
  3074  0EA1                     	;# 
  3075  0EA2                     	;# 
  3076  0EA3                     	;# 
  3077  0EA4                     	;# 
  3078  0EA5                     	;# 
  3079  0EA9                     	;# 
  3080  0EAA                     	;# 
  3081  0EAB                     	;# 
  3082  0EAC                     	;# 
  3083  0EB1                     	;# 
  3084  0EB2                     	;# 
  3085  0EB3                     	;# 
  3086  0EB8                     	;# 
  3087  0EB9                     	;# 
  3088  0EBA                     	;# 
  3089  0EBB                     	;# 
  3090  0EBC                     	;# 
  3091  0EBD                     	;# 
  3092  0EBE                     	;# 
  3093  0EC3                     	;# 
  3094  0EC5                     	;# 
  3095  0EC6                     	;# 
  3096  0EC7                     	;# 
  3097  0EC8                     	;# 
  3098  0EC9                     	;# 
  3099  0ECA                     	;# 
  3100  0ECB                     	;# 
  3101  0ECC                     	;# 
  3102  0F10                     	;# 
  3103  0F11                     	;# 
  3104  0F12                     	;# 
  3105  0F13                     	;# 
  3106  0F14                     	;# 
  3107  0F15                     	;# 
  3108  0F16                     	;# 
  3109  0F17                     	;# 
  3110  0F18                     	;# 
  3111  0F19                     	;# 
  3112  0F1A                     	;# 
  3113  0F1B                     	;# 
  3114  0F1C                     	;# 
  3115  0F1D                     	;# 
  3116  0F1E                     	;# 
  3117  0F1F                     	;# 
  3118  0F20                     	;# 
  3119  0F21                     	;# 
  3120  0F22                     	;# 
  3121  0F23                     	;# 
  3122  0F24                     	;# 
  3123  0F25                     	;# 
  3124  0F26                     	;# 
  3125  0F27                     	;# 
  3126  0F38                     	;# 
  3127  0F39                     	;# 
  3128  0F3A                     	;# 
  3129  0F3B                     	;# 
  3130  0F3C                     	;# 
  3131  0F3D                     	;# 
  3132  0F3E                     	;# 
  3133  0F3F                     	;# 
  3134  0F40                     	;# 
  3135  0F41                     	;# 
  3136  0F43                     	;# 
  3137  0F44                     	;# 
  3138  0F45                     	;# 
  3139  0F46                     	;# 
  3140  0F47                     	;# 
  3141  0F48                     	;# 
  3142  0F49                     	;# 
  3143  0F4A                     	;# 
  3144  0F4B                     	;# 
  3145  0F4C                     	;# 
  3146  0F4E                     	;# 
  3147  0F4F                     	;# 
  3148  0F50                     	;# 
  3149  0F51                     	;# 
  3150  0F52                     	;# 
  3151  0F53                     	;# 
  3152  0F54                     	;# 
  3153  0F55                     	;# 
  3154  0F56                     	;# 
  3155  0F57                     	;# 
  3156  0F65                     	;# 
  3157  0F68                     	;# 
  3158  0F69                     	;# 
  3159  0F6A                     	;# 
  3160  0F6B                     	;# 
  3161  0FE4                     	;# 
  3162  0FE5                     	;# 
  3163  0FE6                     	;# 
  3164  0FE7                     	;# 
  3165  0FE8                     	;# 
  3166  0FE9                     	;# 
  3167  0FEA                     	;# 
  3168  0FEB                     	;# 
  3169  0FED                     	;# 
  3170  0FEE                     	;# 
  3171  0FEF                     	;# 
  3172  0000                     	;# 
  3173  0001                     	;# 
  3174  0002                     	;# 
  3175  0003                     	;# 
  3176  0004                     	;# 
  3177  0005                     	;# 
  3178  0006                     	;# 
  3179  0007                     	;# 
  3180  0008                     	;# 
  3181  0009                     	;# 
  3182  000A                     	;# 
  3183  000B                     	;# 
  3184  000C                     	;# 
  3185  000D                     	;# 
  3186  000E                     	;# 
  3187  0010                     	;# 
  3188  0011                     	;# 
  3189  0012                     	;# 
  3190  0013                     	;# 
  3191  0016                     	;# 
  3192  0017                     	;# 
  3193  0018                     	;# 
  3194  001C                     	;# 
  3195  001C                     	;# 
  3196  001D                     	;# 
  3197  001D                     	;# 
  3198  001E                     	;# 
  3199  001F                     	;# 
  3200  008C                     	;# 
  3201  008C                     	;# 
  3202  008D                     	;# 
  3203  008E                     	;# 
  3204  008E                     	;# 
  3205  008F                     	;# 
  3206  0090                     	;# 
  3207  0090                     	;# 
  3208  0091                     	;# 
  3209  0093                     	;# 
  3210  0094                     	;# 
  3211  0095                     	;# 
  3212  0096                     	;# 
  3213  0097                     	;# 
  3214  0098                     	;# 
  3215  0099                     	;# 
  3216  009A                     	;# 
  3217  009B                     	;# 
  3218  009C                     	;# 
  3219  009D                     	;# 
  3220  009E                     	;# 
  3221  010C                     	;# 
  3222  010D                     	;# 
  3223  010E                     	;# 
  3224  010E                     	;# 
  3225  010F                     	;# 
  3226  0110                     	;# 
  3227  0110                     	;# 
  3228  0111                     	;# 
  3229  0112                     	;# 
  3230  0112                     	;# 
  3231  0113                     	;# 
  3232  0114                     	;# 
  3233  0114                     	;# 
  3234  0115                     	;# 
  3235  0116                     	;# 
  3236  0116                     	;# 
  3237  0117                     	;# 
  3238  0119                     	;# 
  3239  0119                     	;# 
  3240  0119                     	;# 
  3241  011A                     	;# 
  3242  011A                     	;# 
  3243  011A                     	;# 
  3244  011B                     	;# 
  3245  011B                     	;# 
  3246  011B                     	;# 
  3247  011B                     	;# 
  3248  011B                     	;# 
  3249  011C                     	;# 
  3250  011C                     	;# 
  3251  011C                     	;# 
  3252  011D                     	;# 
  3253  011D                     	;# 
  3254  011D                     	;# 
  3255  011E                     	;# 
  3256  011E                     	;# 
  3257  011E                     	;# 
  3258  011F                     	;# 
  3259  011F                     	;# 
  3260  011F                     	;# 
  3261  011F                     	;# 
  3262  011F                     	;# 
  3263  018C                     	;# 
  3264  018D                     	;# 
  3265  018E                     	;# 
  3266  018F                     	;# 
  3267  0190                     	;# 
  3268  0191                     	;# 
  3269  0192                     	;# 
  3270  0196                     	;# 
  3271  0197                     	;# 
  3272  0198                     	;# 
  3273  0199                     	;# 
  3274  019A                     	;# 
  3275  019B                     	;# 
  3276  019C                     	;# 
  3277  020C                     	;# 
  3278  020C                     	;# 
  3279  020D                     	;# 
  3280  020E                     	;# 
  3281  020F                     	;# 
  3282  020F                     	;# 
  3283  0210                     	;# 
  3284  0210                     	;# 
  3285  0211                     	;# 
  3286  0211                     	;# 
  3287  0212                     	;# 
  3288  0212                     	;# 
  3289  0213                     	;# 
  3290  0214                     	;# 
  3291  0215                     	;# 
  3292  0215                     	;# 
  3293  0216                     	;# 
  3294  0216                     	;# 
  3295  0217                     	;# 
  3296  0217                     	;# 
  3297  0218                     	;# 
  3298  0218                     	;# 
  3299  0219                     	;# 
  3300  021A                     	;# 
  3301  021B                     	;# 
  3302  021B                     	;# 
  3303  021C                     	;# 
  3304  021C                     	;# 
  3305  021D                     	;# 
  3306  021D                     	;# 
  3307  021E                     	;# 
  3308  021F                     	;# 
  3309  028C                     	;# 
  3310  028C                     	;# 
  3311  028D                     	;# 
  3312  028D                     	;# 
  3313  028E                     	;# 
  3314  028F                     	;# 
  3315  0290                     	;# 
  3316  0290                     	;# 
  3317  0291                     	;# 
  3318  0292                     	;# 
  3319  0292                     	;# 
  3320  0293                     	;# 
  3321  0293                     	;# 
  3322  0294                     	;# 
  3323  0295                     	;# 
  3324  0296                     	;# 
  3325  0296                     	;# 
  3326  0297                     	;# 
  3327  0298                     	;# 
  3328  0298                     	;# 
  3329  0299                     	;# 
  3330  0299                     	;# 
  3331  029A                     	;# 
  3332  029B                     	;# 
  3333  029C                     	;# 
  3334  029C                     	;# 
  3335  029D                     	;# 
  3336  030C                     	;# 
  3337  030C                     	;# 
  3338  030D                     	;# 
  3339  030E                     	;# 
  3340  030F                     	;# 
  3341  0310                     	;# 
  3342  0310                     	;# 
  3343  0311                     	;# 
  3344  0312                     	;# 
  3345  0313                     	;# 
  3346  0314                     	;# 
  3347  0314                     	;# 
  3348  0315                     	;# 
  3349  0316                     	;# 
  3350  0317                     	;# 
  3351  0318                     	;# 
  3352  0318                     	;# 
  3353  0319                     	;# 
  3354  031A                     	;# 
  3355  031B                     	;# 
  3356  031C                     	;# 
  3357  031C                     	;# 
  3358  031D                     	;# 
  3359  031E                     	;# 
  3360  031F                     	;# 
  3361  038C                     	;# 
  3362  038D                     	;# 
  3363  038E                     	;# 
  3364  0390                     	;# 
  3365  0391                     	;# 
  3366  0392                     	;# 
  3367  040C                     	;# 
  3368  040D                     	;# 
  3369  040E                     	;# 
  3370  040F                     	;# 
  3371  0410                     	;# 
  3372  0411                     	;# 
  3373  0416                     	;# 
  3374  0416                     	;# 
  3375  0417                     	;# 
  3376  0418                     	;# 
  3377  0418                     	;# 
  3378  0419                     	;# 
  3379  041A                     	;# 
  3380  041A                     	;# 
  3381  041B                     	;# 
  3382  041C                     	;# 
  3383  041C                     	;# 
  3384  041D                     	;# 
  3385  041E                     	;# 
  3386  041F                     	;# 
  3387  048C                     	;# 
  3388  048C                     	;# 
  3389  048D                     	;# 
  3390  048E                     	;# 
  3391  048F                     	;# 
  3392  048F                     	;# 
  3393  0490                     	;# 
  3394  0491                     	;# 
  3395  0492                     	;# 
  3396  0492                     	;# 
  3397  0493                     	;# 
  3398  0494                     	;# 
  3399  0495                     	;# 
  3400  0495                     	;# 
  3401  0496                     	;# 
  3402  0497                     	;# 
  3403  0498                     	;# 
  3404  0499                     	;# 
  3405  049A                     	;# 
  3406  049B                     	;# 
  3407  049C                     	;# 
  3408  049D                     	;# 
  3409  050C                     	;# 
  3410  050C                     	;# 
  3411  050D                     	;# 
  3412  050E                     	;# 
  3413  050F                     	;# 
  3414  050F                     	;# 
  3415  0510                     	;# 
  3416  0511                     	;# 
  3417  0512                     	;# 
  3418  0512                     	;# 
  3419  0513                     	;# 
  3420  0514                     	;# 
  3421  0515                     	;# 
  3422  0515                     	;# 
  3423  0516                     	;# 
  3424  0517                     	;# 
  3425  0518                     	;# 
  3426  0519                     	;# 
  3427  051A                     	;# 
  3428  051B                     	;# 
  3429  051C                     	;# 
  3430  051D                     	;# 
  3431  058C                     	;# 
  3432  058C                     	;# 
  3433  058D                     	;# 
  3434  058E                     	;# 
  3435  058F                     	;# 
  3436  058F                     	;# 
  3437  0590                     	;# 
  3438  0591                     	;# 
  3439  0592                     	;# 
  3440  0593                     	;# 
  3441  060C                     	;# 
  3442  060D                     	;# 
  3443  060E                     	;# 
  3444  060F                     	;# 
  3445  0610                     	;# 
  3446  0611                     	;# 
  3447  0612                     	;# 
  3448  0613                     	;# 
  3449  0614                     	;# 
  3450  0616                     	;# 
  3451  0617                     	;# 
  3452  0618                     	;# 
  3453  0619                     	;# 
  3454  061A                     	;# 
  3455  061B                     	;# 
  3456  061C                     	;# 
  3457  061D                     	;# 
  3458  061E                     	;# 
  3459  068C                     	;# 
  3460  068D                     	;# 
  3461  068E                     	;# 
  3462  068F                     	;# 
  3463  0690                     	;# 
  3464  0691                     	;# 
  3465  0692                     	;# 
  3466  0693                     	;# 
  3467  0694                     	;# 
  3468  070C                     	;# 
  3469  070D                     	;# 
  3470  070E                     	;# 
  3471  070F                     	;# 
  3472  0710                     	;# 
  3473  0711                     	;# 
  3474  0712                     	;# 
  3475  0713                     	;# 
  3476  0714                     	;# 
  3477  0716                     	;# 
  3478  0717                     	;# 
  3479  0718                     	;# 
  3480  0719                     	;# 
  3481  071A                     	;# 
  3482  071B                     	;# 
  3483  071C                     	;# 
  3484  071D                     	;# 
  3485  071E                     	;# 
  3486  0796                     	;# 
  3487  0797                     	;# 
  3488  0798                     	;# 
  3489  0799                     	;# 
  3490  079A                     	;# 
  3491  079B                     	;# 
  3492  080C                     	;# 
  3493  080D                     	;# 
  3494  080E                     	;# 
  3495  080F                     	;# 
  3496  0810                     	;# 
  3497  0811                     	;# 
  3498  0812                     	;# 
  3499  0813                     	;# 
  3500  0814                     	;# 
  3501  081A                     	;# 
  3502  081B                     	;# 
  3503  081C                     	;# 
  3504  081D                     	;# 
  3505  081E                     	;# 
  3506  081F                     	;# 
  3507  088C                     	;# 
  3508  088D                     	;# 
  3509  088E                     	;# 
  3510  088F                     	;# 
  3511  0890                     	;# 
  3512  0891                     	;# 
  3513  0892                     	;# 
  3514  0893                     	;# 
  3515  0895                     	;# 
  3516  0896                     	;# 
  3517  0897                     	;# 
  3518  0898                     	;# 
  3519  0899                     	;# 
  3520  089A                     	;# 
  3521  089B                     	;# 
  3522  090C                     	;# 
  3523  090E                     	;# 
  3524  090F                     	;# 
  3525  091F                     	;# 
  3526  091F                     	;# 
  3527  098F                     	;# 
  3528  098F                     	;# 
  3529  0990                     	;# 
  3530  0991                     	;# 
  3531  0992                     	;# 
  3532  0993                     	;# 
  3533  0994                     	;# 
  3534  0995                     	;# 
  3535  0996                     	;# 
  3536  0997                     	;# 
  3537  0E0F                     	;# 
  3538  0E10                     	;# 
  3539  0E11                     	;# 
  3540  0E12                     	;# 
  3541  0E13                     	;# 
  3542  0E14                     	;# 
  3543  0E15                     	;# 
  3544  0E16                     	;# 
  3545  0E17                     	;# 
  3546  0E18                     	;# 
  3547  0E19                     	;# 
  3548  0E1A                     	;# 
  3549  0E1B                     	;# 
  3550  0E1C                     	;# 
  3551  0E1D                     	;# 
  3552  0E1E                     	;# 
  3553  0E1F                     	;# 
  3554  0E20                     	;# 
  3555  0E21                     	;# 
  3556  0E22                     	;# 
  3557  0E23                     	;# 
  3558  0E24                     	;# 
  3559  0E25                     	;# 
  3560  0E26                     	;# 
  3561  0E27                     	;# 
  3562  0E28                     	;# 
  3563  0E29                     	;# 
  3564  0E2A                     	;# 
  3565  0E2B                     	;# 
  3566  0E2C                     	;# 
  3567  0E2D                     	;# 
  3568  0E2E                     	;# 
  3569  0E2F                     	;# 
  3570  0E30                     	;# 
  3571  0E31                     	;# 
  3572  0E32                     	;# 
  3573  0E33                     	;# 
  3574  0E34                     	;# 
  3575  0E35                     	;# 
  3576  0E36                     	;# 
  3577  0E37                     	;# 
  3578  0E8F                     	;# 
  3579  0E90                     	;# 
  3580  0E91                     	;# 
  3581  0E92                     	;# 
  3582  0E93                     	;# 
  3583  0E94                     	;# 
  3584  0E95                     	;# 
  3585  0E96                     	;# 
  3586  0E97                     	;# 
  3587  0E9C                     	;# 
  3588  0E9D                     	;# 
  3589  0E9E                     	;# 
  3590  0EA1                     	;# 
  3591  0EA2                     	;# 
  3592  0EA3                     	;# 
  3593  0EA4                     	;# 
  3594  0EA5                     	;# 
  3595  0EA9                     	;# 
  3596  0EAA                     	;# 
  3597  0EAB                     	;# 
  3598  0EAC                     	;# 
  3599  0EB1                     	;# 
  3600  0EB2                     	;# 
  3601  0EB3                     	;# 
  3602  0EB8                     	;# 
  3603  0EB9                     	;# 
  3604  0EBA                     	;# 
  3605  0EBB                     	;# 
  3606  0EBC                     	;# 
  3607  0EBD                     	;# 
  3608  0EBE                     	;# 
  3609  0EC3                     	;# 
  3610  0EC5                     	;# 
  3611  0EC6                     	;# 
  3612  0EC7                     	;# 
  3613  0EC8                     	;# 
  3614  0EC9                     	;# 
  3615  0ECA                     	;# 
  3616  0ECB                     	;# 
  3617  0ECC                     	;# 
  3618  0F10                     	;# 
  3619  0F11                     	;# 
  3620  0F12                     	;# 
  3621  0F13                     	;# 
  3622  0F14                     	;# 
  3623  0F15                     	;# 
  3624  0F16                     	;# 
  3625  0F17                     	;# 
  3626  0F18                     	;# 
  3627  0F19                     	;# 
  3628  0F1A                     	;# 
  3629  0F1B                     	;# 
  3630  0F1C                     	;# 
  3631  0F1D                     	;# 
  3632  0F1E                     	;# 
  3633  0F1F                     	;# 
  3634  0F20                     	;# 
  3635  0F21                     	;# 
  3636  0F22                     	;# 
  3637  0F23                     	;# 
  3638  0F24                     	;# 
  3639  0F25                     	;# 
  3640  0F26                     	;# 
  3641  0F27                     	;# 
  3642  0F38                     	;# 
  3643  0F39                     	;# 
  3644  0F3A                     	;# 
  3645  0F3B                     	;# 
  3646  0F3C                     	;# 
  3647  0F3D                     	;# 
  3648  0F3E                     	;# 
  3649  0F3F                     	;# 
  3650  0F40                     	;# 
  3651  0F41                     	;# 
  3652  0F43                     	;# 
  3653  0F44                     	;# 
  3654  0F45                     	;# 
  3655  0F46                     	;# 
  3656  0F47                     	;# 
  3657  0F48                     	;# 
  3658  0F49                     	;# 
  3659  0F4A                     	;# 
  3660  0F4B                     	;# 
  3661  0F4C                     	;# 
  3662  0F4E                     	;# 
  3663  0F4F                     	;# 
  3664  0F50                     	;# 
  3665  0F51                     	;# 
  3666  0F52                     	;# 
  3667  0F53                     	;# 
  3668  0F54                     	;# 
  3669  0F55                     	;# 
  3670  0F56                     	;# 
  3671  0F57                     	;# 
  3672  0F65                     	;# 
  3673  0F68                     	;# 
  3674  0F69                     	;# 
  3675  0F6A                     	;# 
  3676  0F6B                     	;# 
  3677  0FE4                     	;# 
  3678  0FE5                     	;# 
  3679  0FE6                     	;# 
  3680  0FE7                     	;# 
  3681  0FE8                     	;# 
  3682  0FE9                     	;# 
  3683  0FEA                     	;# 
  3684  0FEB                     	;# 
  3685  0FED                     	;# 
  3686  0FEE                     	;# 
  3687  0FEF                     	;_samples
  3688                           
  3689                           	psect	idataBANK0
  3690  022E                     __pidataBANK0:	
  3691                           
  3692                           ;initializer for _channels
  3693  022E  3410               	retlw	16
  3694  022F  3411               	retlw	17
  3695  0230  3412               	retlw	18
  3696  0231  3413               	retlw	19
  3697                           
  3698                           	psect	stringtext1
  3699  0800                     __pstringtext1:	
  3700  0800                     _fonts:	
  3701  0800  3400               	retlw	0
  3702  0801  3400               	retlw	0
  3703  0802  3400               	retlw	0
  3704  0803  3400               	retlw	0
  3705  0804  344E               	retlw	78
  3706  0805  3400               	retlw	0
  3707  0806  3406               	retlw	6
  3708  0807  3400               	retlw	0
  3709  0808  3406               	retlw	6
  3710  0809  34FF               	retlw	255
  3711  080A  34FF               	retlw	255
  3712  080B  34FF               	retlw	255
  3713  080C  3448               	retlw	72
  3714  080D  34D6               	retlw	214
  3715  080E  3424               	retlw	36
  3716  080F  3412               	retlw	18
  3717  0810  3408               	retlw	8
  3718  0811  3424               	retlw	36
  3719  0812  34FF               	retlw	255
  3720  0813  34FF               	retlw	255
  3721  0814  34FF               	retlw	255
  3722  0815  3400               	retlw	0
  3723  0816  3406               	retlw	6
  3724  0817  3400               	retlw	0
  3725  0818  3438               	retlw	56
  3726  0819  3444               	retlw	68
  3727  081A  3482               	retlw	130
  3728  081B  3482               	retlw	130
  3729  081C  3444               	retlw	68
  3730  081D  3438               	retlw	56
  3731  081E  3414               	retlw	20
  3732  081F  3408               	retlw	8
  3733  0820  343E               	retlw	62
  3734  0821  3410               	retlw	16
  3735  0822  3438               	retlw	56
  3736  0823  3410               	retlw	16
  3737  0824  34A0               	retlw	160
  3738  0825  3460               	retlw	96
  3739  0826  3400               	retlw	0
  3740  0827  3410               	retlw	16
  3741  0828  3410               	retlw	16
  3742  0829  3410               	retlw	16
  3743  082A  3460               	retlw	96
  3744  082B  3460               	retlw	96
  3745  082C  3400               	retlw	0
  3746  082D  3460               	retlw	96
  3747  082E  3418               	retlw	24
  3748  082F  3406               	retlw	6
  3749  0830  347C               	retlw	124
  3750  0831  3442               	retlw	66
  3751  0832  347C               	retlw	124
  3752  0833  3444               	retlw	68
  3753  0834  347E               	retlw	126
  3754  0835  3440               	retlw	64
  3755  0836  3464               	retlw	100
  3756  0837  3452               	retlw	82
  3757  0838  344C               	retlw	76
  3758  0839  344A               	retlw	74
  3759  083A  344A               	retlw	74
  3760  083B  3434               	retlw	52
  3761  083C  3438               	retlw	56
  3762  083D  3424               	retlw	36
  3763  083E  347E               	retlw	126
  3764  083F  344E               	retlw	78
  3765  0840  344A               	retlw	74
  3766  0841  3432               	retlw	50
  3767  0842  343C               	retlw	60
  3768  0843  344A               	retlw	74
  3769  0844  3432               	retlw	50
  3770  0845  3462               	retlw	98
  3771  0846  341A               	retlw	26
  3772  0847  3406               	retlw	6
  3773  0848  3476               	retlw	118
  3774  0849  344A               	retlw	74
  3775  084A  3476               	retlw	118
  3776  084B  344C               	retlw	76
  3777  084C  3452               	retlw	82
  3778  084D  343C               	retlw	60
  3779  084E  346C               	retlw	108
  3780  084F  346C               	retlw	108
  3781  0850  3400               	retlw	0
  3782  0851  34AC               	retlw	172
  3783  0852  346C               	retlw	108
  3784  0853  3400               	retlw	0
  3785  0854  3410               	retlw	16
  3786  0855  3428               	retlw	40
  3787  0856  3444               	retlw	68
  3788  0857  3428               	retlw	40
  3789  0858  3428               	retlw	40
  3790  0859  3428               	retlw	40
  3791  085A  3444               	retlw	68
  3792  085B  3428               	retlw	40
  3793  085C  3410               	retlw	16
  3794  085D  3402               	retlw	2
  3795  085E  3459               	retlw	89
  3796  085F  3406               	retlw	6
  3797  0860  34FF               	retlw	255
  3798  0861  34FF               	retlw	255
  3799  0862  34FF               	retlw	255
  3800  0863  347C               	retlw	124
  3801  0864  3412               	retlw	18
  3802  0865  347C               	retlw	124
  3803  0866  347E               	retlw	126
  3804  0867  345A               	retlw	90
  3805  0868  3434               	retlw	52
  3806  0869  343C               	retlw	60
  3807  086A  3442               	retlw	66
  3808  086B  3442               	retlw	66
  3809  086C  347E               	retlw	126
  3810  086D  3442               	retlw	66
  3811  086E  343C               	retlw	60
  3812  086F  347E               	retlw	126
  3813  0870  344A               	retlw	74
  3814  0871  3442               	retlw	66
  3815  0872  347E               	retlw	126
  3816  0873  340A               	retlw	10
  3817  0874  340A               	retlw	10
  3818  0875  343C               	retlw	60
  3819  0876  3452               	retlw	82
  3820  0877  3434               	retlw	52
  3821  0878  347E               	retlw	126
  3822  0879  3408               	retlw	8
  3823  087A  347E               	retlw	126
  3824  087B  3442               	retlw	66
  3825  087C  347E               	retlw	126
  3826  087D  3442               	retlw	66
  3827  087E  3430               	retlw	48
  3828  087F  3440               	retlw	64
  3829  0880  343E               	retlw	62
  3830  0881  347E               	retlw	126
  3831  0882  3418               	retlw	24
  3832  0883  3466               	retlw	102
  3833  0884  347E               	retlw	126
  3834  0885  3440               	retlw	64
  3835  0886  3440               	retlw	64
  3836  0887  347E               	retlw	126
  3837  0888  341C               	retlw	28
  3838  0889  347E               	retlw	126
  3839  088A  347E               	retlw	126
  3840  088B  3402               	retlw	2
  3841  088C  347E               	retlw	126
  3842  088D  343C               	retlw	60
  3843  088E  3442               	retlw	66
  3844  088F  343C               	retlw	60
  3845  0890  347E               	retlw	126
  3846  0891  3412               	retlw	18
  3847  0892  340C               	retlw	12
  3848  0893  347E               	retlw	126
  3849  0894  3462               	retlw	98
  3850  0895  34FE               	retlw	254
  3851  0896  347E               	retlw	126
  3852  0897  3432               	retlw	50
  3853  0898  344E               	retlw	78
  3854  0899  3444               	retlw	68
  3855  089A  344A               	retlw	74
  3856  089B  3432               	retlw	50
  3857  089C  3402               	retlw	2
  3858  089D  347E               	retlw	126
  3859  089E  3402               	retlw	2
  3860  089F  347E               	retlw	126
  3861  08A0  3440               	retlw	64
  3862  08A1  347E               	retlw	126
  3863  08A2  343E               	retlw	62
  3864  08A3  3440               	retlw	64
  3865  08A4  343E               	retlw	62
  3866  08A5  347E               	retlw	126
  3867  08A6  3438               	retlw	56
  3868  08A7  347E               	retlw	126
  3869  08A8  3466               	retlw	102
  3870  08A9  3418               	retlw	24
  3871  08AA  3466               	retlw	102
  3872  08AB  340E               	retlw	14
  3873  08AC  3470               	retlw	112
  3874  08AD  340E               	retlw	14
  3875  08AE  3462               	retlw	98
  3876  08AF  345A               	retlw	90
  3877  08B0  3446               	retlw	70
  3878  08B1  3400               	retlw	0
  3879  08B2  347E               	retlw	126
  3880  08B3  3442               	retlw	66
  3881  08B4  3406               	retlw	6
  3882  08B5  3418               	retlw	24
  3883  08B6  3460               	retlw	96
  3884  08B7  3442               	retlw	66
  3885  08B8  347E               	retlw	126
  3886  08B9  3400               	retlw	0
  3887  08BA  3404               	retlw	4
  3888  08BB  3402               	retlw	2
  3889  08BC  3404               	retlw	4
  3890  08BD  3440               	retlw	64
  3891  08BE  3440               	retlw	64
  3892  08BF  3440               	retlw	64
  3893  08C0  3400               	retlw	0
  3894  08C1  3402               	retlw	2
  3895  08C2  3404               	retlw	4
  3896  08C3  3474               	retlw	116
  3897  08C4  3454               	retlw	84
  3898  08C5  3478               	retlw	120
  3899  08C6  347E               	retlw	126
  3900  08C7  3448               	retlw	72
  3901  08C8  3430               	retlw	48
  3902  08C9  3430               	retlw	48
  3903  08CA  3448               	retlw	72
  3904  08CB  3448               	retlw	72
  3905  08CC  3430               	retlw	48
  3906  08CD  3448               	retlw	72
  3907  08CE  347E               	retlw	126
  3908  08CF  3438               	retlw	56
  3909  08D0  3454               	retlw	84
  3910  08D1  3458               	retlw	88
  3911  08D2  347C               	retlw	124
  3912  08D3  340A               	retlw	10
  3913  08D4  3402               	retlw	2
  3914  08D5  3498               	retlw	152
  3915  08D6  34A4               	retlw	164
  3916  08D7  347C               	retlw	124
  3917  08D8  347E               	retlw	126
  3918  08D9  3408               	retlw	8
  3919  08DA  3470               	retlw	112
  3920  08DB  3448               	retlw	72
  3921  08DC  347A               	retlw	122
  3922  08DD  3440               	retlw	64
  3923  08DE  3488               	retlw	136
  3924  08DF  34FA               	retlw	250
  3925  08E0  3400               	retlw	0
  3926  08E1  347E               	retlw	126
  3927  08E2  3418               	retlw	24
  3928  08E3  3464               	retlw	100
  3929  08E4  3442               	retlw	66
  3930  08E5  347E               	retlw	126
  3931  08E6  3440               	retlw	64
  3932  08E7  347C               	retlw	124
  3933  08E8  3438               	retlw	56
  3934  08E9  347C               	retlw	124
  3935  08EA  347C               	retlw	124
  3936  08EB  3404               	retlw	4
  3937  08EC  3478               	retlw	120
  3938  08ED  3438               	retlw	56
  3939  08EE  3444               	retlw	68
  3940  08EF  3438               	retlw	56
  3941  08F0  34FC               	retlw	252
  3942  08F1  3424               	retlw	36
  3943  08F2  3418               	retlw	24
  3944  08F3  3418               	retlw	24
  3945  08F4  3424               	retlw	36
  3946  08F5  34FC               	retlw	252
  3947  08F6  3478               	retlw	120
  3948  08F7  3404               	retlw	4
  3949  08F8  3404               	retlw	4
  3950  08F9  3448               	retlw	72
  3951  08FA  3454               	retlw	84
  3952  08FB  3424               	retlw	36
  3953  08FC  3404               	retlw	4
  3954  08FD  343E               	retlw	62
  3955  08FE  3444               	retlw	68
  3956  08FF  347C               	retlw	124
  3957  0900  3440               	retlw	64
  3958  0901  347C               	retlw	124
  3959  0902  343C               	retlw	60
  3960  0903  3440               	retlw	64
  3961  0904  343C               	retlw	60
  3962  0905  347C               	retlw	124
  3963  0906  3430               	retlw	48
  3964  0907  347C               	retlw	124
  3965  0908  346C               	retlw	108
  3966  0909  3410               	retlw	16
  3967  090A  346C               	retlw	108
  3968  090B  349C               	retlw	156
  3969  090C  34A0               	retlw	160
  3970  090D  347C               	retlw	124
  3971  090E  3464               	retlw	100
  3972  090F  3454               	retlw	84
  3973  0910  344C               	retlw	76
  3974  0911  340C               	retlw	12
  3975  0912  3412               	retlw	18
  3976  0913  340C               	retlw	12
  3977  0914  34FF               	retlw	255
  3978  0915  34FF               	retlw	255
  3979  0916  34FF               	retlw	255
  3980  0917  34FF               	retlw	255
  3981  0918  34FF               	retlw	255
  3982  0919  34FF               	retlw	255
  3983  091A  34FF               	retlw	255
  3984  091B  34FF               	retlw	255
  3985  091C  34FF               	retlw	255
  3986  091D  34FF               	retlw	255
  3987  091E  34FF               	retlw	255
  3988  091F  34FF               	retlw	255
  3989  0920  34FF               	retlw	255
  3990  0921  34FF               	retlw	255
  3991  0922  34FF               	retlw	255
  3992  0923  34FF               	retlw	255
  3993  0924  34FF               	retlw	255
  3994  0925  34FF               	retlw	255
  3995  0926  34FC               	retlw	252
  3996  0927  3440               	retlw	64
  3997  0928  347C               	retlw	124
  3998  0929  34FF               	retlw	255
  3999  092A  34FF               	retlw	255
  4000  092B  34FF               	retlw	255
  4001  092C  34FF               	retlw	255
  4002  092D  34FF               	retlw	255
  4003  092E  34FF               	retlw	255
  4004  092F                     __end_of_fonts:	
  4005  0013                     _TRISC	set	19
  4006  0012                     _TRISB	set	18
  4007  0011                     _TRISA	set	17
  4008  0018                     _LATC	set	24
  4009  0017                     _LATB	set	23
  4010  0016                     _LATA	set	22
  4011  0016                     _LATAbits	set	22
  4012  0011                     _TRISAbits	set	17
  4013  005F                     _GIE	set	95
  4014  0093                     _ADCON0	set	147
  4015  009D                     _ADACQ	set	157
  4016  009C                     _ADPRE	set	156
  4017  009B                     _ADCAP	set	155
  4018  009A                     _ADREF	set	154
  4019  0098                     _ADCLK	set	152
  4020  0097                     _ADSTAT	set	151
  4021  0099                     _ADACT	set	153
  4022  0096                     _ADCON3	set	150
  4023  0095                     _ADCON2	set	149
  4024  0094                     _ADCON1	set	148
  4025  008C                     _ADRESL	set	140
  4026  008D                     _ADRESH	set	141
  4027  0093                     _ADCON0bits	set	147
  4028  009E                     _ADPCH	set	158
  4029  0113                     _ADSTPTH	set	275
  4030  0112                     _ADSTPTL	set	274
  4031  0111                     _ADUTHH	set	273
  4032  0110                     _ADUTHL	set	272
  4033  010F                     _ADLTHH	set	271
  4034  010E                     _ADLTHL	set	270
  4035  010D                     _ADRPT	set	269
  4036  021F                     _CCPTMRS1bits	set	543
  4037  028E                     _T2CONbits	set	654
  4038  028C                     _T2TMR	set	652
  4039  028D                     _T2PR	set	653
  4040  0291                     _T2RST	set	657
  4041  028F                     _T2HLT	set	655
  4042  0290                     _T2CLKCON	set	656
  4043  028E                     _T2CON	set	654
  4044  0390                     _PWM7DCL	set	912
  4045  0391                     _PWM7DCH	set	913
  4046  0392                     _PWM7CON	set	914
  4047  0710                     _PIR4bits	set	1808
  4048  0716                     _PIE0bits	set	1814
  4049  0892                     _OSCTUNE	set	2194
  4050  0893                     _OSCFRQ	set	2195
  4051  0891                     _OSCEN	set	2193
  4052  088F                     _OSCCON3	set	2191
  4053  088D                     _OSCCON1	set	2189
  4054  090C                     _FVRCON	set	2316
  4055  0E8F                     _PPSLOCKbits	set	3727
  4056  0E8F                     _PPSLOCK	set	3727
  4057  0F24                     _RC4PPS	set	3876
  4058  0F4E                     _ANSELC	set	3918
  4059  0F43                     _ANSELB	set	3907
  4060  0F38                     _ANSELA	set	3896
  4061  0F65                     _WPUE	set	3941
  4062  0F4F                     _WPUC	set	3919
  4063  0F44                     _WPUB	set	3908
  4064  0F39                     _WPUA	set	3897
  4065                           
  4066                           ; #config settings
  4067  0000                     
  4068                           	psect	cinit
  4069  07CD                     start_initialization:	
  4070  07CD                     __initialization:		;BIGRAM
  4071                           
  4072                           ; Initialize objects allocated to BANK0
  4073  07CD  3182  222E  3187   	fcall	__pidataBANK0	;fetch initializer
  4074  07D0  00E8               	movwf	__pdataBANK0& (0+127)
  4075  07D1  3182  222F  3187   	fcall	__pidataBANK0+1	;fetch initializer
  4076  07D4  00E9               	movwf	(__pdataBANK0+1)& (0+127)
  4077  07D5  3182  2230  3187   	fcall	__pidataBANK0+2	;fetch initializer
  4078  07D8  00EA               	movwf	(__pdataBANK0+2)& (0+127)
  4079  07D9  3182  2231  3187   	fcall	__pidataBANK0+3	;fetch initializer
  4080  07DC  00EB               	movwf	(__pdataBANK0+3)& (0+127)
  4081                           
  4082                           ; Clear objects allocated to BIGRAM
  4083  07DD  3060               	movlw	low (0+8800)
  4084  07DE  0084               	movwf	4
  4085  07DF  3022               	movlw	high (0+8800)
  4086  07E0  0085               	movwf	5
  4087  07E1  3090               	movlw	144
  4088  07E2  00FE               	movwf	btemp
  4089  07E3  3001               	movlw	1
  4090  07E4  00FF               	movwf	btemp+1
  4091  07E5  3182  2245  3187   	fcall	clear_ram0
  4092                           
  4093                           ; Clear objects allocated to BANK0
  4094  07E8  3055               	movlw	low __pbssBANK0
  4095  07E9  0084               	movwf	4
  4096  07EA  3000               	movlw	high __pbssBANK0
  4097  07EB  0085               	movwf	5
  4098  07EC  3013               	movlw	19
  4099  07ED  00FE               	movwf	btemp
  4100  07EE  3000               	movlw	0
  4101  07EF  00FF               	movwf	btemp+1
  4102  07F0  3182  2245  3187   	fcall	clear_ram0
  4103                           
  4104                           ; Clear objects allocated to BANK1
  4105  07F3  30A0               	movlw	low __pbssBANK1
  4106  07F4  0084               	movwf	4
  4107  07F5  3000               	movlw	high __pbssBANK1
  4108  07F6  0085               	movwf	5
  4109  07F7  300D               	movlw	13
  4110  07F8  00FE               	movwf	btemp
  4111  07F9  3000               	movlw	0
  4112  07FA  00FF               	movwf	btemp+1
  4113  07FB  3182  2245         	fcall	clear_ram0
  4114  07FD                     end_of_initialization:	
  4115                           ;End of C runtime variable initialization code
  4116                           
  4117  07FD                     __end_of__initialization:	
  4118  07FD  0020               	movlb	0
  4119  07FE  3185  2D8A         	ljmp	_main	;jump to C main() function
  4120                           
  4121                           	psect	bssBANK0
  4122  0055                     __pbssBANK0:	
  4123  0055                     _totals:	
  4124  0055                     	ds	16
  4125  0065                     _sampleIndex:	
  4126  0065                     	ds	2
  4127  0067                     _call:	
  4128  0067                     	ds	1
  4129                           
  4130                           	psect	dataBANK0
  4131  0068                     __pdataBANK0:	
  4132  0068                     _channels:	
  4133  0068                     	ds	4
  4134                           
  4135                           	psect	bssBANK1
  4136  00A0                     __pbssBANK1:	
  4137  00A0                     main@F14429:	
  4138  00A0                     	ds	8
  4139  00A8                     LCDWriteInt@F14376:	
  4140  00A8                     	ds	5
  4141                           
  4142                           	psect	clrtext
  4143  0245                     clear_ram0:	
  4144                           ;	Called with FSR0 containing the base address, and
  4145                           ;	btemp/btemp+1 has the size to clear
  4146                           
  4147  0245  0064               	clrwdt	;clear the watchdog before getting into this loop
  4148  0246                     clrloop0:	
  4149  0246  0180               	clrf	0	;clear RAM location pointed to by FSR
  4150  0247  3101               	addfsr 0,1
  4151  0248  3001               	movlw	1
  4152  0249  02FE               	subwf	126,f
  4153  024A  3000               	movlw	0
  4154  024B  3BFF               	subwfb	127,f
  4155  024C  087F               	movf	127,w
  4156  024D  047E               	iorwf	126,w
  4157  024E  1903               	btfsc	3,2
  4158  024F  3400               	retlw	0	;all done for this memory range, return
  4159  0250  2A46               	goto	clrloop0	;have we reached the end yet?
  4160                           
  4161                           	psect	cstackCOMMON
  4162  0070                     __pcstackCOMMON:	
  4163  0070                     ?_OSCILLATOR_Initialize:	
  4164  0070                     ??_OSCILLATOR_Initialize:	
  4165                           ; 1 bytes @ 0x0
  4166                           
  4167  0070                     ?_PIN_MANAGER_Initialize:	
  4168                           ; 1 bytes @ 0x0
  4169                           
  4170  0070                     ??_PIN_MANAGER_Initialize:	
  4171                           ; 1 bytes @ 0x0
  4172                           
  4173  0070                     ?_TMR2_Initialize:	
  4174                           ; 1 bytes @ 0x0
  4175                           
  4176  0070                     ??_TMR2_Initialize:	
  4177                           ; 1 bytes @ 0x0
  4178                           
  4179  0070                     ?_PWM_Initialize:	
  4180                           ; 1 bytes @ 0x0
  4181                           
  4182  0070                     ??_PWM_Initialize:	
  4183                           ; 1 bytes @ 0x0
  4184                           
  4185  0070                     ?_ADC_Initialize:	
  4186                           ; 1 bytes @ 0x0
  4187                           
  4188  0070                     ??_ADC_Initialize:	
  4189                           ; 1 bytes @ 0x0
  4190                           
  4191  0070                     ?_LCDInit:	
  4192                           ; 1 bytes @ 0x0
  4193                           
  4194  0070                     ?_LCDClear:	
  4195                           ; 1 bytes @ 0x0
  4196                           
  4197  0070                     ?_LCDWrite:	
  4198                           ; 1 bytes @ 0x0
  4199                           
  4200  0070                     ?_SYSTEM_Initialize:	
  4201                           ; 1 bytes @ 0x0
  4202                           
  4203  0070                     ?_LCDWriteCharacter:	
  4204                           ; 1 bytes @ 0x0
  4205                           
  4206  0070                     ?_PWM7_LoadDutyValue:	
  4207                           ; 1 bytes @ 0x0
  4208                           
  4209  0070                     ?_main:	
  4210                           ; 1 bytes @ 0x0
  4211                           
  4212  0070                     ?_ADCRead:	
  4213                           ; 1 bytes @ 0x0
  4214                           
  4215  0070                     ?___wmul:	
  4216                           ; 2 bytes @ 0x0
  4217                           
  4218  0070                     ?___awdiv:	
  4219                           ; 2 bytes @ 0x0
  4220                           
  4221  0070                     ?___lwmod:	
  4222                           ; 2 bytes @ 0x0
  4223                           
  4224  0070                     ?___lldiv:	
  4225                           ; 2 bytes @ 0x0
  4226                           
  4227  0070                     LCDWrite@data:	
  4228                           ; 4 bytes @ 0x0
  4229                           
  4230  0070                     PIN_MANAGER_Initialize@state:	
  4231                           ; 1 bytes @ 0x0
  4232                           
  4233  0070                     PWM7_LoadDutyValue@dutyCycle7:	
  4234                           ; 1 bytes @ 0x0
  4235                           
  4236  0070                     ___wmul@multiplier:	
  4237                           ; 2 bytes @ 0x0
  4238                           
  4239  0070                     ___awdiv@divisor:	
  4240                           ; 2 bytes @ 0x0
  4241                           
  4242  0070                     ___lwmod@divisor:	
  4243                           ; 2 bytes @ 0x0
  4244                           
  4245  0070                     ___lldiv@divisor:	
  4246                           ; 2 bytes @ 0x0
  4247                           
  4248                           
  4249                           ; 4 bytes @ 0x0
  4250  0070                     	ds	1
  4251  0071                     ??_LCDWrite:	
  4252                           
  4253                           ; 1 bytes @ 0x1
  4254  0071                     	ds	1
  4255  0072                     ??_PWM7_LoadDutyValue:	
  4256  0072                     LCDWrite@data_or_command:	
  4257                           ; 1 bytes @ 0x2
  4258                           
  4259  0072                     ___wmul@multiplicand:	
  4260                           ; 1 bytes @ 0x2
  4261                           
  4262  0072                     ___awdiv@dividend:	
  4263                           ; 2 bytes @ 0x2
  4264                           
  4265  0072                     ___lwmod@dividend:	
  4266                           ; 2 bytes @ 0x2
  4267                           
  4268                           
  4269                           ; 2 bytes @ 0x2
  4270  0072                     	ds	1
  4271  0073                     ??_ADCRead:	
  4272  0073                     ADCRead@channel:	
  4273                           ; 1 bytes @ 0x3
  4274                           
  4275  0073                     LCDWrite@d:	
  4276                           ; 1 bytes @ 0x3
  4277                           
  4278                           
  4279                           ; 1 bytes @ 0x3
  4280  0073                     	ds	1
  4281  0074                     ??___wmul:	
  4282  0074                     ??___awdiv:	
  4283                           ; 1 bytes @ 0x4
  4284                           
  4285  0074                     ??___lwmod:	
  4286                           ; 1 bytes @ 0x4
  4287                           
  4288  0074                     LCDWrite@i:	
  4289                           ; 1 bytes @ 0x4
  4290                           
  4291  0074                     ___wmul@product:	
  4292                           ; 1 bytes @ 0x4
  4293                           
  4294  0074                     ___lldiv@dividend:	
  4295                           ; 2 bytes @ 0x4
  4296                           
  4297                           
  4298                           ; 4 bytes @ 0x4
  4299  0074                     	ds	1
  4300  0075                     ??_LCDInit:	
  4301  0075                     ?_gotoXY:	
  4302                           ; 1 bytes @ 0x5
  4303                           
  4304  0075                     gotoXY@y:	
  4305                           ; 1 bytes @ 0x5
  4306                           
  4307  0075                     ___awdiv@counter:	
  4308                           ; 1 bytes @ 0x5
  4309                           
  4310  0075                     ___lwmod@counter:	
  4311                           ; 1 bytes @ 0x5
  4312                           
  4313                           
  4314                           ; 1 bytes @ 0x5
  4315  0075                     	ds	1
  4316  0076                     ??_gotoXY:	
  4317  0076                     ??_LCDWriteCharacter:	
  4318                           ; 1 bytes @ 0x6
  4319                           
  4320  0076                     ___awdiv@sign:	
  4321                           ; 1 bytes @ 0x6
  4322                           
  4323                           
  4324                           ; 1 bytes @ 0x6
  4325  0076                     	ds	1
  4326  0077                     gotoXY@x:	
  4327  0077                     ___awdiv@quotient:	
  4328                           ; 1 bytes @ 0x7
  4329                           
  4330                           
  4331                           ; 2 bytes @ 0x7
  4332  0077                     	ds	1
  4333  0078                     ??_LCDClear:	
  4334  0078                     ??___lldiv:	
  4335                           ; 1 bytes @ 0x8
  4336                           
  4337                           
  4338                           ; 1 bytes @ 0x8
  4339  0078                     	ds	1
  4340  0079                     LCDWriteCharacter@character:	
  4341  0079                     LCDClear@index:	
  4342                           ; 1 bytes @ 0x9
  4343                           
  4344  0079                     ___lldiv@quotient:	
  4345                           ; 2 bytes @ 0x9
  4346                           
  4347                           
  4348                           ; 4 bytes @ 0x9
  4349  0079                     	ds	1
  4350  007A                     LCDWriteCharacter@base:	
  4351                           
  4352                           ; 2 bytes @ 0xA
  4353  007A                     	ds	1
  4354  007B                     ??_SYSTEM_Initialize:	
  4355                           
  4356                           ; 1 bytes @ 0xB
  4357  007B                     	ds	2
  4358  007D                     ___lldiv@counter:	
  4359                           
  4360                           ; 1 bytes @ 0xD
  4361  007D                     	ds	1
  4362                           
  4363                           	psect	cstackBANK0
  4364  0020                     __pcstackBANK0:	
  4365  0020                     ?_LCDWriteInt:	
  4366  0020                     ?_readAnalog:	
  4367                           ; 1 bytes @ 0x0
  4368                           
  4369  0020                     LCDWriteInt@value:	
  4370                           ; 2 bytes @ 0x0
  4371                           
  4372                           
  4373                           ; 2 bytes @ 0x0
  4374  0020                     	ds	2
  4375  0022                     ??_readAnalog:	
  4376  0022                     LCDWriteInt@fieldLength:	
  4377                           ; 1 bytes @ 0x2
  4378                           
  4379                           
  4380                           ; 1 bytes @ 0x2
  4381  0022                     	ds	1
  4382  0023                     LCDWriteInt@numPlaces:	
  4383                           
  4384                           ; 1 bytes @ 0x3
  4385  0023                     	ds	1
  4386  0024                     LCDWriteInt@sign:	
  4387                           
  4388                           ; 1 bytes @ 0x4
  4389  0024                     	ds	1
  4390  0025                     ??_LCDWriteInt:	
  4391                           
  4392                           ; 1 bytes @ 0x5
  4393  0025                     	ds	4
  4394  0029                     LCDWriteInt@str:	
  4395                           
  4396                           ; 5 bytes @ 0x9
  4397  0029                     	ds	5
  4398  002E                     LCDWriteInt@j:	
  4399                           
  4400                           ; 1 bytes @ 0xE
  4401  002E                     	ds	1
  4402  002F                     LCDWriteInt@i:	
  4403                           
  4404                           ; 1 bytes @ 0xF
  4405  002F                     	ds	7
  4406  0036                     readAnalog@analog_channel:	
  4407                           
  4408                           ; 1 bytes @ 0x16
  4409  0036                     	ds	1
  4410  0037                     readAnalog@value:	
  4411                           
  4412                           ; 2 bytes @ 0x17
  4413  0037                     	ds	2
  4414  0039                     readAnalog@channel:	
  4415                           
  4416                           ; 1 bytes @ 0x19
  4417  0039                     	ds	1
  4418  003A                     ??_main:	
  4419                           
  4420                           ; 1 bytes @ 0x1A
  4421  003A                     	ds	3
  4422  003D                     main@analogs:	
  4423                           
  4424                           ; 8 bytes @ 0x1D
  4425  003D                     	ds	8
  4426  0045                     main@PV_V:	
  4427                           
  4428                           ; 2 bytes @ 0x25
  4429  0045                     	ds	2
  4430  0047                     main@PV_I:	
  4431                           
  4432                           ; 2 bytes @ 0x27
  4433  0047                     	ds	2
  4434  0049                     main@powerOutOld:	
  4435                           
  4436                           ; 2 bytes @ 0x29
  4437  0049                     	ds	2
  4438  004B                     main@dutyCycle7:	
  4439                           
  4440                           ; 2 bytes @ 0x2B
  4441  004B                     	ds	2
  4442  004D                     main@Batt_V_Old:	
  4443                           
  4444                           ; 2 bytes @ 0x2D
  4445  004D                     	ds	2
  4446  004F                     main@Batt_I:	
  4447                           
  4448                           ; 2 bytes @ 0x2F
  4449  004F                     	ds	2
  4450  0051                     main@loopCount:	
  4451                           
  4452                           ; 1 bytes @ 0x31
  4453  0051                     	ds	1
  4454  0052                     main@j:	
  4455                           
  4456                           ; 1 bytes @ 0x32
  4457  0052                     	ds	1
  4458  0053                     main@Batt_V:	
  4459                           
  4460                           ; 2 bytes @ 0x33
  4461  0053                     	ds	2
  4462                           
  4463                           	psect	maintext
  4464  058A                     __pmaintext:	
  4465 ;;
  4466 ;;Main: autosize = 0, tempsize = 3, incstack = 0, save=0
  4467 ;;
  4468 ;; *************** function _main *****************
  4469 ;; Defined at:
  4470 ;;		line 21 in file "main.c"
  4471 ;; Parameters:    Size  Location     Type
  4472 ;;		None
  4473 ;; Auto vars:     Size  Location     Type
  4474 ;;  analogs         8   29[BANK0 ] unsigned int [4]
  4475 ;;  Batt_V          2   51[BANK0 ] unsigned int 
  4476 ;;  Batt_I          2   47[BANK0 ] unsigned int 
  4477 ;;  Batt_V_Old      2   45[BANK0 ] unsigned int 
  4478 ;;  dutyCycle7      2   43[BANK0 ] unsigned int 
  4479 ;;  powerOutOld     2   41[BANK0 ] unsigned int 
  4480 ;;  PV_I            2   39[BANK0 ] unsigned int 
  4481 ;;  PV_V            2   37[BANK0 ] unsigned int 
  4482 ;;  j               1   50[BANK0 ] unsigned char 
  4483 ;;  loopCount       1   49[BANK0 ] unsigned char 
  4484 ;; Return value:  Size  Location     Type
  4485 ;;                  1    wreg      void 
  4486 ;; Registers used:
  4487 ;;		wreg, fsr0l, fsr0h, fsr1l, fsr1h, status,2, status,0, pclath, cstack
  4488 ;; Tracked objects:
  4489 ;;		On entry : B1F/0
  4490 ;;		On exit  : 0/0
  4491 ;;		Unchanged: 0/0
  4492 ;; Data sizes:     COMMON   BANK0   BANK1   BANK2   BANK3   BANK4   BANK5   BANK6   BANK7   BANK8   BANK9  BANK10  BANK1
      +1  BANK12
  4493 ;;      Params:         0       0       0       0       0       0       0       0       0       0       0       0       
      +0       0
  4494 ;;      Locals:         0      24       0       0       0       0       0       0       0       0       0       0       
      +0       0
  4495 ;;      Temps:          0       3       0       0       0       0       0       0       0       0       0       0       
      +0       0
  4496 ;;      Totals:         0      27       0       0       0       0       0       0       0       0       0       0       
      +0       0
  4497 ;;Total ram usage:       27 bytes
  4498 ;; Hardware stack levels required when called:    4
  4499 ;; This function calls:
  4500 ;;		_LCDWriteInt
  4501 ;;		_PWM7_LoadDutyValue
  4502 ;;		_SYSTEM_Initialize
  4503 ;;		___wmul
  4504 ;;		_gotoXY
  4505 ;;		_readAnalog
  4506 ;; This function is called by:
  4507 ;;		Startup code after reset
  4508 ;; This function uses a non-reentrant model
  4509 ;;
  4510                           
  4511                           
  4512                           ;psect for function _main
  4513  058A                     _main:	
  4514                           
  4515                           ;main.c: 23: uint16_t PV_V = 0;
  4516                           
  4517                           ;incstack = 0
  4518                           ; Regs used in _main: [wreg-fsr1h+status,2+status,0+pclath+cstack]
  4519  058A  0020               	movlb	0	; select bank0
  4520  058B  01C5               	clrf	main@PV_V
  4521  058C  01C6               	clrf	main@PV_V+1
  4522                           
  4523                           ;main.c: 24: uint16_t PV_I = 0;
  4524  058D  01C7               	clrf	main@PV_I
  4525  058E  01C8               	clrf	main@PV_I+1
  4526                           
  4527                           ;main.c: 25: uint16_t Batt_V = 0;
  4528  058F  01D3               	clrf	main@Batt_V
  4529  0590  01D4               	clrf	main@Batt_V+1
  4530                           
  4531                           ;main.c: 26: uint16_t Batt_I = 0;
  4532  0591  01CF               	clrf	main@Batt_I
  4533  0592  01D0               	clrf	main@Batt_I+1
  4534                           
  4535                           ;main.c: 29: uint16_t Batt_V_Old = 0;
  4536  0593  01CD               	clrf	main@Batt_V_Old
  4537  0594  01CE               	clrf	main@Batt_V_Old+1
  4538                           
  4539                           ;main.c: 31: uint16_t powerOutOld = 0;
  4540  0595  01C9               	clrf	main@powerOutOld
  4541  0596  01CA               	clrf	main@powerOutOld+1
  4542                           
  4543                           ;main.c: 32: uint16_t dutyCycle7 = 0;
  4544  0597  01CB               	clrf	main@dutyCycle7
  4545  0598  01CC               	clrf	main@dutyCycle7+1
  4546                           
  4547                           ;main.c: 33: uint8_t j = 0;
  4548  0599  01D2               	clrf	main@j
  4549                           
  4550                           ;main.c: 34: uint16_t analogs[4] = {0,0,0,0};
  4551  059A  30A0               	movlw	low main@F14429
  4552  059B  0086               	movwf	6
  4553  059C  3000               	movlw	high main@F14429
  4554  059D  0087               	movwf	7
  4555  059E  303D               	movlw	low main@analogs
  4556  059F  0084               	movwf	4
  4557  05A0  3000               	movlw	high main@analogs
  4558  05A1  0085               	movwf	5
  4559  05A2  3008               	movlw	8
  4560  05A3  00BA               	movwf	??_main
  4561  05A4                     u1360:	
  4562  05A4  0016               	moviw fsr1++
  4563  05A5  001A               	movwi fsr0++
  4564  05A6  0BBA               	decfsz	??_main,f
  4565  05A7  2DA4               	goto	u1360
  4566                           
  4567                           ;main.c: 35: uint8_t loopCount = 0;
  4568  05A8  01D1               	clrf	main@loopCount
  4569                           
  4570                           ;main.c: 37: SYSTEM_Initialize();
  4571  05A9  3183  2316  3185   	fcall	_SYSTEM_Initialize
  4572  05AC                     l1607:	
  4573                           ;main.c: 39: while(1)
  4574                           
  4575                           
  4576                           ;main.c: 40: {
  4577                           ;main.c: 41: { gotoXY(0,0); LCDWriteInt(loopCount,4, 0, 0);};
  4578  05AC  01F5               	clrf	gotoXY@y
  4579  05AD  3000               	movlw	0
  4580  05AE  3182  226D  3185   	fcall	_gotoXY
  4581  05B1  0020               	movlb	0	; select bank0
  4582  05B2  0851               	movf	main@loopCount,w
  4583  05B3  00BA               	movwf	??_main
  4584  05B4  01BB               	clrf	??_main+1
  4585  05B5  083A               	movf	??_main,w
  4586  05B6  00A0               	movwf	LCDWriteInt@value
  4587  05B7  083B               	movf	??_main+1,w
  4588  05B8  00A1               	movwf	LCDWriteInt@value+1
  4589  05B9  3004               	movlw	4
  4590  05BA  00BC               	movwf	??_main+2
  4591  05BB  083C               	movf	??_main+2,w
  4592  05BC  00A2               	movwf	LCDWriteInt@fieldLength
  4593  05BD  01A3               	clrf	LCDWriteInt@numPlaces
  4594  05BE  01A4               	clrf	LCDWriteInt@sign
  4595  05BF  3184  24D1  3185   	fcall	_LCDWriteInt
  4596                           
  4597                           ;main.c: 42: { gotoXY(0,1); LCDWriteInt(PV_V,4, 0, 0);};
  4598  05C2  01F5               	clrf	gotoXY@y
  4599  05C3  0AF5               	incf	gotoXY@y,f
  4600  05C4  3000               	movlw	0
  4601  05C5  3182  226D  3185   	fcall	_gotoXY
  4602  05C8  0020               	movlb	0	; select bank0
  4603  05C9  0846               	movf	main@PV_V+1,w
  4604  05CA  00A1               	movwf	LCDWriteInt@value+1
  4605  05CB  0845               	movf	main@PV_V,w
  4606  05CC  00A0               	movwf	LCDWriteInt@value
  4607  05CD  3004               	movlw	4
  4608  05CE  00BA               	movwf	??_main
  4609  05CF  083A               	movf	??_main,w
  4610  05D0  00A2               	movwf	LCDWriteInt@fieldLength
  4611  05D1  01A3               	clrf	LCDWriteInt@numPlaces
  4612  05D2  01A4               	clrf	LCDWriteInt@sign
  4613  05D3  3184  24D1  3185   	fcall	_LCDWriteInt
  4614                           
  4615                           ;main.c: 43: { gotoXY(0,2); LCDWriteInt(PV_I,4, 0, 0);};
  4616  05D6  3002               	movlw	2
  4617  05D7  0020               	movlb	0	; select bank0
  4618  05D8  00BA               	movwf	??_main
  4619  05D9  083A               	movf	??_main,w
  4620  05DA  00F5               	movwf	gotoXY@y
  4621  05DB  3000               	movlw	0
  4622  05DC  3182  226D  3185   	fcall	_gotoXY
  4623  05DF  0020               	movlb	0	; select bank0
  4624  05E0  0848               	movf	main@PV_I+1,w
  4625  05E1  00A1               	movwf	LCDWriteInt@value+1
  4626  05E2  0847               	movf	main@PV_I,w
  4627  05E3  00A0               	movwf	LCDWriteInt@value
  4628  05E4  3004               	movlw	4
  4629  05E5  00BA               	movwf	??_main
  4630  05E6  083A               	movf	??_main,w
  4631  05E7  00A2               	movwf	LCDWriteInt@fieldLength
  4632  05E8  01A3               	clrf	LCDWriteInt@numPlaces
  4633  05E9  01A4               	clrf	LCDWriteInt@sign
  4634  05EA  3184  24D1  3185   	fcall	_LCDWriteInt
  4635                           
  4636                           ;main.c: 44: { gotoXY(0,3); LCDWriteInt(Batt_V,4, 0, 0);};
  4637  05ED  3003               	movlw	3
  4638  05EE  0020               	movlb	0	; select bank0
  4639  05EF  00BA               	movwf	??_main
  4640  05F0  083A               	movf	??_main,w
  4641  05F1  00F5               	movwf	gotoXY@y
  4642  05F2  3000               	movlw	0
  4643  05F3  3182  226D  3185   	fcall	_gotoXY
  4644  05F6  0020               	movlb	0	; select bank0
  4645  05F7  0854               	movf	main@Batt_V+1,w
  4646  05F8  00A1               	movwf	LCDWriteInt@value+1
  4647  05F9  0853               	movf	main@Batt_V,w
  4648  05FA  00A0               	movwf	LCDWriteInt@value
  4649  05FB  3004               	movlw	4
  4650  05FC  00BA               	movwf	??_main
  4651  05FD  083A               	movf	??_main,w
  4652  05FE  00A2               	movwf	LCDWriteInt@fieldLength
  4653  05FF  01A3               	clrf	LCDWriteInt@numPlaces
  4654  0600  01A4               	clrf	LCDWriteInt@sign
  4655  0601  3184  24D1  3185   	fcall	_LCDWriteInt
  4656                           
  4657                           ;main.c: 45: { gotoXY(0,4); LCDWriteInt(Batt_I,4, 0, 0);};
  4658  0604  3004               	movlw	4
  4659  0605  0020               	movlb	0	; select bank0
  4660  0606  00BA               	movwf	??_main
  4661  0607  083A               	movf	??_main,w
  4662  0608  00F5               	movwf	gotoXY@y
  4663  0609  3000               	movlw	0
  4664  060A  3182  226D  3185   	fcall	_gotoXY
  4665  060D  0020               	movlb	0	; select bank0
  4666  060E  0850               	movf	main@Batt_I+1,w
  4667  060F  00A1               	movwf	LCDWriteInt@value+1
  4668  0610  084F               	movf	main@Batt_I,w
  4669  0611  00A0               	movwf	LCDWriteInt@value
  4670  0612  3004               	movlw	4
  4671  0613  00BA               	movwf	??_main
  4672  0614  083A               	movf	??_main,w
  4673  0615  00A2               	movwf	LCDWriteInt@fieldLength
  4674  0616  01A3               	clrf	LCDWriteInt@numPlaces
  4675  0617  01A4               	clrf	LCDWriteInt@sign
  4676  0618  3184  24D1  3185   	fcall	_LCDWriteInt
  4677                           
  4678                           ;main.c: 47: for(j=0;j<4;j++) analogs[j]=readAnalog(j);
  4679  061B  0020               	movlb	0	; select bank0
  4680  061C  01D2               	clrf	main@j
  4681  061D  3004               	movlw	4
  4682  061E  0252               	subwf	main@j,w
  4683  061F  1803               	btfsc	3,0
  4684  0620  2E36               	goto	l1639
  4685  0621                     l1633:	
  4686  0621  0852               	movf	main@j,w
  4687  0622  3186  2694  3185   	fcall	_readAnalog
  4688  0625  0020               	movlb	0	; select bank0
  4689  0626  3552               	lslf	main@j,w
  4690  0627  3E3D               	addlw	(low (main@analogs| 0))& (0+255)
  4691  0628  0086               	movwf	6
  4692  0629  0187               	clrf	7
  4693  062A  0820               	movf	?_readAnalog,w
  4694  062B  3FC0               	movwi [0]fsr1
  4695  062C  0821               	movf	?_readAnalog+1,w
  4696  062D  3FC1               	movwi [1]fsr1
  4697  062E  3001               	movlw	1
  4698  062F  00BA               	movwf	??_main
  4699  0630  083A               	movf	??_main,w
  4700  0631  07D2               	addwf	main@j,f
  4701  0632  3004               	movlw	4
  4702  0633  0252               	subwf	main@j,w
  4703  0634  1C03               	skipc
  4704  0635  2E21               	goto	l1633
  4705  0636                     l1639:	
  4706                           
  4707                           ;main.c: 49: if(loopCount>10)
  4708  0636  300B               	movlw	11
  4709  0637  0251               	subwf	main@loopCount,w
  4710  0638  1C03               	skipc
  4711  0639  2E88               	goto	l1663
  4712                           
  4713                           ;main.c: 50: {
  4714                           ;main.c: 51: if(call)
  4715  063A  0867               	movf	_call,w
  4716  063B  1903               	btfsc	3,2
  4717  063C  2E88               	goto	l1663
  4718                           
  4719                           ;main.c: 52: {
  4720                           ;main.c: 53: if(Batt_V*Batt_I>powerOutOld)
  4721  063D  0854               	movf	main@Batt_V+1,w
  4722  063E  00F1               	movwf	___wmul@multiplier+1
  4723  063F  0853               	movf	main@Batt_V,w
  4724  0640  00F0               	movwf	___wmul@multiplier
  4725  0641  0850               	movf	main@Batt_I+1,w
  4726  0642  00F3               	movwf	___wmul@multiplicand+1
  4727  0643  084F               	movf	main@Batt_I,w
  4728  0644  00F2               	movwf	___wmul@multiplicand
  4729  0645  3182  22B0  3185   	fcall	___wmul
  4730  0648  0871               	movf	?___wmul+1,w
  4731  0649  0020               	movlb	0	; select bank0
  4732  064A  024A               	subwf	main@powerOutOld+1,w
  4733  064B  1D03               	skipz
  4734  064C  2E4F               	goto	u1415
  4735  064D  0870               	movf	?___wmul,w
  4736  064E  0249               	subwf	main@powerOutOld,w
  4737  064F                     u1415:	
  4738  064F  1803               	skipnc
  4739  0650  2E5A               	goto	l1651
  4740                           
  4741                           ;main.c: 54: {
  4742                           ;main.c: 55: if(Batt_V>Batt_V_Old)
  4743  0651  0854               	movf	main@Batt_V+1,w
  4744  0652  024E               	subwf	main@Batt_V_Old+1,w
  4745  0653  1D03               	skipz
  4746  0654  2E57               	goto	u1425
  4747  0655  0853               	movf	main@Batt_V,w
  4748  0656  024D               	subwf	main@Batt_V_Old,w
  4749  0657                     u1425:	
  4750  0657  1803               	skipnc
  4751  0658  2E62               	goto	l1653
  4752  0659  2E67               	goto	l1655
  4753  065A                     l1651:	
  4754                           ;main.c: 62: }
  4755                           ;main.c: 63: }
  4756                           
  4757                           ;main.c: 59: else
  4758                           ;main.c: 60: {
  4759                           ;main.c: 61: dutyCycle7-=1;
  4760                           
  4761                           ;main.c: 58: }
  4762                           
  4763                           ;main.c: 56: {
  4764                           ;main.c: 57: dutyCycle7+=1;
  4765                           
  4766                           
  4767                           ;main.c: 64: else
  4768                           ;main.c: 65: {
  4769                           ;main.c: 66: if(Batt_V>Batt_V_Old)
  4770  065A  0854               	movf	main@Batt_V+1,w
  4771  065B  024E               	subwf	main@Batt_V_Old+1,w
  4772  065C  1D03               	skipz
  4773  065D  2E60               	goto	u1435
  4774  065E  0853               	movf	main@Batt_V,w
  4775  065F  024D               	subwf	main@Batt_V_Old,w
  4776  0660                     u1435:	
  4777  0660  1803               	skipnc
  4778  0661  2E67               	goto	l1655
  4779  0662                     l1653:	
  4780                           
  4781                           ;main.c: 67: {
  4782                           ;main.c: 68: dutyCycle7-=1;
  4783  0662  3001               	movlw	1
  4784  0663  02CB               	subwf	main@dutyCycle7,f
  4785  0664  3000               	movlw	0
  4786  0665  3BCC               	subwfb	main@dutyCycle7+1,f
  4787                           
  4788                           ;main.c: 69: }
  4789  0666  2E6B               	goto	l1657
  4790  0667                     l1655:	
  4791                           
  4792                           ;main.c: 70: else
  4793                           ;main.c: 71: {
  4794                           ;main.c: 72: dutyCycle7+=1;
  4795  0667  3001               	movlw	1
  4796  0668  07CB               	addwf	main@dutyCycle7,f
  4797  0669  3000               	movlw	0
  4798  066A  3DCC               	addwfc	main@dutyCycle7+1,f
  4799  066B                     l1657:	
  4800                           
  4801                           ;main.c: 73: }
  4802                           ;main.c: 74: }
  4803                           ;main.c: 75: powerOutOld=Batt_V*Batt_I;
  4804  066B  0854               	movf	main@Batt_V+1,w
  4805  066C  00F1               	movwf	___wmul@multiplier+1
  4806  066D  0853               	movf	main@Batt_V,w
  4807  066E  00F0               	movwf	___wmul@multiplier
  4808  066F  0850               	movf	main@Batt_I+1,w
  4809  0670  00F3               	movwf	___wmul@multiplicand+1
  4810  0671  084F               	movf	main@Batt_I,w
  4811  0672  00F2               	movwf	___wmul@multiplicand
  4812  0673  3182  22B0  3185   	fcall	___wmul
  4813  0676  0871               	movf	?___wmul+1,w
  4814  0677  0020               	movlb	0	; select bank0
  4815  0678  00CA               	movwf	main@powerOutOld+1
  4816  0679  0870               	movf	?___wmul,w
  4817  067A  00C9               	movwf	main@powerOutOld
  4818                           
  4819                           ;main.c: 76: Batt_V_Old=Batt_V;
  4820  067B  0854               	movf	main@Batt_V+1,w
  4821  067C  00CE               	movwf	main@Batt_V_Old+1
  4822  067D  0853               	movf	main@Batt_V,w
  4823  067E  00CD               	movwf	main@Batt_V_Old
  4824                           
  4825                           ;main.c: 77: PWM7_LoadDutyValue(dutyCycle7);
  4826  067F  084C               	movf	main@dutyCycle7+1,w
  4827  0680  00F1               	movwf	PWM7_LoadDutyValue@dutyCycle7+1
  4828  0681  084B               	movf	main@dutyCycle7,w
  4829  0682  00F0               	movwf	PWM7_LoadDutyValue@dutyCycle7
  4830  0683  3182  2280  3185   	fcall	_PWM7_LoadDutyValue
  4831                           
  4832                           ;main.c: 78: call=0;
  4833  0686  0020               	movlb	0	; select bank0
  4834  0687  01E7               	clrf	_call
  4835  0688                     l1663:	
  4836                           
  4837                           ;main.c: 79: }
  4838                           ;main.c: 80: }
  4839                           ;main.c: 81: loopCount+=1;
  4840  0688  3001               	movlw	1
  4841  0689  00BA               	movwf	??_main
  4842  068A  083A               	movf	??_main,w
  4843  068B  07D1               	addwf	main@loopCount,f
  4844                           
  4845                           ;main.c: 82: if(loopCount>254)loopCount=11;
  4846  068C  0A51               	incf	main@loopCount,w
  4847  068D  1D03               	btfss	3,2
  4848  068E  2DAC               	goto	l1607
  4849  068F  300B               	movlw	11
  4850  0690  00BA               	movwf	??_main
  4851  0691  083A               	movf	??_main,w
  4852  0692  00D1               	movwf	main@loopCount
  4853  0693  2DAC               	goto	l1607
  4854  0694                     __end_of_main:	
  4855                           
  4856                           	psect	text1
  4857  0694                     __ptext1:	
  4858 ;; *************** function _readAnalog *****************
  4859 ;; Defined at:
  4860 ;;		line 34 in file "adc.c"
  4861 ;; Parameters:    Size  Location     Type
  4862 ;;  channel         1    wreg     unsigned char 
  4863 ;; Auto vars:     Size  Location     Type
  4864 ;;  channel         1   25[BANK0 ] unsigned char 
  4865 ;;  value           2   23[BANK0 ] unsigned int 
  4866 ;;  analog_chann    1   22[BANK0 ] unsigned char 
  4867 ;; Return value:  Size  Location     Type
  4868 ;;                  2    0[BANK0 ] unsigned int 
  4869 ;; Registers used:
  4870 ;;		wreg, fsr1l, fsr1h, status,2, status,0, pclath, cstack
  4871 ;; Tracked objects:
  4872 ;;		On entry : 0/0
  4873 ;;		On exit  : 0/0
  4874 ;;		Unchanged: 0/0
  4875 ;; Data sizes:     COMMON   BANK0   BANK1   BANK2   BANK3   BANK4   BANK5   BANK6   BANK7   BANK8   BANK9  BANK10  BANK1
      +1  BANK12
  4876 ;;      Params:         0       2       0       0       0       0       0       0       0       0       0       0       
      +0       0
  4877 ;;      Locals:         0       4       0       0       0       0       0       0       0       0       0       0       
      +0       0
  4878 ;;      Temps:          0      20       0       0       0       0       0       0       0       0       0       0       
      +0       0
  4879 ;;      Totals:         0      26       0       0       0       0       0       0       0       0       0       0       
      +0       0
  4880 ;;Total ram usage:       26 bytes
  4881 ;; Hardware stack levels used:    1
  4882 ;; Hardware stack levels required when called:    1
  4883 ;; This function calls:
  4884 ;;		_ADCRead
  4885 ;;		___lldiv
  4886 ;;		___wmul
  4887 ;; This function is called by:
  4888 ;;		_main
  4889 ;; This function uses a non-reentrant model
  4890 ;;
  4891                           
  4892                           
  4893                           ;psect for function _readAnalog
  4894  0694                     _readAnalog:	
  4895                           
  4896                           ;incstack = 0
  4897                           ; Regs used in _readAnalog: [wreg+fsr1l+fsr1h+status,2+status,0+pclath+cstack]
  4898                           ;readAnalog@channel stored from wreg
  4899  0694  0020               	movlb	0	; select bank0
  4900  0695  00B9               	movwf	readAnalog@channel
  4901                           
  4902                           ;adc.c: 36: uint16_t value;
  4903                           ;adc.c: 38: uint8_t analog_channel = channels[channel];
  4904  0696  0839               	movf	readAnalog@channel,w
  4905  0697  3E68               	addlw	(low (_channels| 0))& (0+255)
  4906  0698  0086               	movwf	6
  4907  0699  0187               	clrf	7
  4908  069A  0801               	movf	1,w
  4909  069B  00A2               	movwf	??_readAnalog
  4910  069C  0822               	movf	??_readAnalog,w
  4911  069D  00B6               	movwf	readAnalog@analog_channel
  4912                           
  4913                           ;adc.c: 40: value = ADCRead(analog_channel);
  4914  069E  0836               	movf	readAnalog@analog_channel,w
  4915  069F  3182  225F  3186   	fcall	_ADCRead
  4916  06A2  0871               	movf	?_ADCRead+1,w
  4917  06A3  0020               	movlb	0	; select bank0
  4918  06A4  00B8               	movwf	readAnalog@value+1
  4919  06A5  0870               	movf	?_ADCRead,w
  4920  06A6  00B7               	movwf	readAnalog@value
  4921                           
  4922                           ;adc.c: 42: totals[channel] = totals[channel]-samples[channel][sampleIndex];
  4923  06A7  0839               	movf	readAnalog@channel,w
  4924  06A8  00A2               	movwf	??_readAnalog
  4925  06A9  3001               	movlw	1
  4926  06AA                     u1095:	
  4927  06AA  35A2               	lslf	??_readAnalog,f
  4928  06AB  3EFF               	addlw	-1
  4929  06AC  1D03               	skipz
  4930  06AD  2EAA               	goto	u1095
  4931  06AE  3522               	lslf	??_readAnalog,w
  4932  06AF  3E55               	addlw	(low (_totals| 0))& (0+255)
  4933  06B0  0086               	movwf	6
  4934  06B1  0187               	clrf	7
  4935  06B2  3F40               	moviw [0]fsr1
  4936  06B3  00A3               	movwf	??_readAnalog+1
  4937  06B4  3F41               	moviw [1]fsr1
  4938  06B5  00A4               	movwf	??_readAnalog+2
  4939  06B6  3F42               	moviw [2]fsr1
  4940  06B7  00A5               	movwf	??_readAnalog+3
  4941  06B8  3F43               	moviw [3]fsr1
  4942  06B9  00A6               	movwf	??_readAnalog+4
  4943  06BA  0866               	movf	_sampleIndex+1,w
  4944  06BB  00A8               	movwf	??_readAnalog+6
  4945  06BC  0865               	movf	_sampleIndex,w
  4946  06BD  00A7               	movwf	??_readAnalog+5
  4947  06BE  35A7               	lslf	??_readAnalog+5,f
  4948  06BF  0DA8               	rlf	??_readAnalog+6,f
  4949  06C0  0839               	movf	readAnalog@channel,w
  4950  06C1  00A9               	movwf	??_readAnalog+7
  4951  06C2  01AA               	clrf	??_readAnalog+8
  4952  06C3  0829               	movf	??_readAnalog+7,w
  4953  06C4  00F0               	movwf	___wmul@multiplier
  4954  06C5  082A               	movf	??_readAnalog+8,w
  4955  06C6  00F1               	movwf	___wmul@multiplier+1
  4956  06C7  3064               	movlw	100
  4957  06C8  00F2               	movwf	___wmul@multiplicand
  4958  06C9  3000               	movlw	0
  4959  06CA  00F3               	movwf	___wmul@multiplicand+1
  4960  06CB  3182  22B0  3186   	fcall	___wmul
  4961  06CE  3060               	movlw	96
  4962  06CF  0020               	movlb	0	; select bank0
  4963  06D0  00AB               	movwf	??_readAnalog+9
  4964  06D1  3022               	movlw	34
  4965  06D2  00AC               	movwf	??_readAnalog+10
  4966  06D3  0870               	movf	?___wmul,w
  4967  06D4  072B               	addwf	??_readAnalog+9,w
  4968  06D5  00AD               	movwf	??_readAnalog+11
  4969  06D6  0871               	movf	?___wmul+1,w
  4970  06D7  3D2C               	addwfc	??_readAnalog+10,w
  4971  06D8  00AE               	movwf	??_readAnalog+12
  4972  06D9  0827               	movf	??_readAnalog+5,w
  4973  06DA  072D               	addwf	??_readAnalog+11,w
  4974  06DB  0086               	movwf	6
  4975  06DC  0828               	movf	??_readAnalog+6,w
  4976  06DD  3D2E               	addwfc	??_readAnalog+12,w
  4977  06DE  0087               	movwf	7
  4978  06DF  3F40               	moviw [0]fsr1
  4979  06E0  00AF               	movwf	??_readAnalog+13
  4980  06E1  3F41               	moviw [1]fsr1
  4981  06E2  00B0               	movwf	??_readAnalog+14
  4982  06E3  082F               	movf	??_readAnalog+13,w
  4983  06E4  00B1               	movwf	??_readAnalog+15
  4984  06E5  0830               	movf	??_readAnalog+14,w
  4985  06E6  00B2               	movwf	??_readAnalog+16
  4986  06E7  01B3               	clrf	??_readAnalog+17
  4987  06E8  01B4               	clrf	??_readAnalog+18
  4988  06E9  09B1               	comf	??_readAnalog+15,f
  4989  06EA  09B2               	comf	??_readAnalog+16,f
  4990  06EB  09B3               	comf	??_readAnalog+17,f
  4991  06EC  09B4               	comf	??_readAnalog+18,f
  4992  06ED  0AB1               	incf	??_readAnalog+15,f
  4993  06EE  1903               	skipnz
  4994  06EF  0AB2               	incf	??_readAnalog+16,f
  4995  06F0  1903               	skipnz
  4996  06F1  0AB3               	incf	??_readAnalog+17,f
  4997  06F2  1903               	skipnz
  4998  06F3  0AB4               	incf	??_readAnalog+18,f
  4999  06F4  0831               	movf	??_readAnalog+15,w
  5000  06F5  07A3               	addwf	??_readAnalog+1,f
  5001  06F6  0832               	movf	??_readAnalog+16,w
  5002  06F7  3DA4               	addwfc	??_readAnalog+2,f
  5003  06F8  0833               	movf	??_readAnalog+17,w
  5004  06F9  3DA5               	addwfc	??_readAnalog+3,f
  5005  06FA  0834               	movf	??_readAnalog+18,w
  5006  06FB  3DA6               	addwfc	??_readAnalog+4,f
  5007  06FC  0839               	movf	readAnalog@channel,w
  5008  06FD  00B5               	movwf	??_readAnalog+19
  5009  06FE  3001               	movlw	1
  5010  06FF                     u1105:	
  5011  06FF  35B5               	lslf	??_readAnalog+19,f
  5012  0700  3EFF               	addlw	-1
  5013  0701  1D03               	skipz
  5014  0702  2EFF               	goto	u1105
  5015  0703  3535               	lslf	??_readAnalog+19,w
  5016  0704  3E55               	addlw	(low (_totals| 0))& (0+255)
  5017  0705  0086               	movwf	6
  5018  0706  0187               	clrf	7
  5019  0707  0823               	movf	??_readAnalog+1,w
  5020  0708  3FC0               	movwi [0]fsr1
  5021  0709  0824               	movf	??_readAnalog+2,w
  5022  070A  3FC1               	movwi [1]fsr1
  5023  070B  0825               	movf	??_readAnalog+3,w
  5024  070C  3FC2               	movwi [2]fsr1
  5025  070D  0826               	movf	??_readAnalog+4,w
  5026  070E  3FC3               	movwi [3]fsr1
  5027                           
  5028                           ;adc.c: 44: samples[channel][sampleIndex] = value;
  5029  070F  0866               	movf	_sampleIndex+1,w
  5030  0710  00A3               	movwf	??_readAnalog+1
  5031  0711  0865               	movf	_sampleIndex,w
  5032  0712  00A2               	movwf	??_readAnalog
  5033  0713  35A2               	lslf	??_readAnalog,f
  5034  0714  0DA3               	rlf	??_readAnalog+1,f
  5035  0715  0839               	movf	readAnalog@channel,w
  5036  0716  00A4               	movwf	??_readAnalog+2
  5037  0717  01A5               	clrf	??_readAnalog+3
  5038  0718  0824               	movf	??_readAnalog+2,w
  5039  0719  00F0               	movwf	___wmul@multiplier
  5040  071A  0825               	movf	??_readAnalog+3,w
  5041  071B  00F1               	movwf	___wmul@multiplier+1
  5042  071C  3064               	movlw	100
  5043  071D  00F2               	movwf	___wmul@multiplicand
  5044  071E  3000               	movlw	0
  5045  071F  00F3               	movwf	___wmul@multiplicand+1
  5046  0720  3182  22B0  3186   	fcall	___wmul
  5047  0723  3060               	movlw	96
  5048  0724  0020               	movlb	0	; select bank0
  5049  0725  00A6               	movwf	??_readAnalog+4
  5050  0726  3022               	movlw	34
  5051  0727  00A7               	movwf	??_readAnalog+5
  5052  0728  0870               	movf	?___wmul,w
  5053  0729  0726               	addwf	??_readAnalog+4,w
  5054  072A  00A8               	movwf	??_readAnalog+6
  5055  072B  0871               	movf	?___wmul+1,w
  5056  072C  3D27               	addwfc	??_readAnalog+5,w
  5057  072D  00A9               	movwf	??_readAnalog+7
  5058  072E  0822               	movf	??_readAnalog,w
  5059  072F  0728               	addwf	??_readAnalog+6,w
  5060  0730  0086               	movwf	6
  5061  0731  0823               	movf	??_readAnalog+1,w
  5062  0732  3D29               	addwfc	??_readAnalog+7,w
  5063  0733  0087               	movwf	7
  5064  0734  0837               	movf	readAnalog@value,w
  5065  0735  3FC0               	movwi [0]fsr1
  5066  0736  0838               	movf	readAnalog@value+1,w
  5067  0737  3FC1               	movwi [1]fsr1
  5068                           
  5069                           ;adc.c: 46: totals[channel] = totals[channel]+samples[channel][sampleIndex];
  5070  0738  0839               	movf	readAnalog@channel,w
  5071  0739  00A2               	movwf	??_readAnalog
  5072  073A  3001               	movlw	1
  5073  073B                     u1115:	
  5074  073B  35A2               	lslf	??_readAnalog,f
  5075  073C  3EFF               	addlw	-1
  5076  073D  1D03               	skipz
  5077  073E  2F3B               	goto	u1115
  5078  073F  3522               	lslf	??_readAnalog,w
  5079  0740  3E55               	addlw	(low (_totals| 0))& (0+255)
  5080  0741  0086               	movwf	6
  5081  0742  0187               	clrf	7
  5082  0743  3F40               	moviw [0]fsr1
  5083  0744  00A3               	movwf	??_readAnalog+1
  5084  0745  3F41               	moviw [1]fsr1
  5085  0746  00A4               	movwf	??_readAnalog+2
  5086  0747  3F42               	moviw [2]fsr1
  5087  0748  00A5               	movwf	??_readAnalog+3
  5088  0749  3F43               	moviw [3]fsr1
  5089  074A  00A6               	movwf	??_readAnalog+4
  5090  074B  0866               	movf	_sampleIndex+1,w
  5091  074C  00A8               	movwf	??_readAnalog+6
  5092  074D  0865               	movf	_sampleIndex,w
  5093  074E  00A7               	movwf	??_readAnalog+5
  5094  074F  35A7               	lslf	??_readAnalog+5,f
  5095  0750  0DA8               	rlf	??_readAnalog+6,f
  5096  0751  0839               	movf	readAnalog@channel,w
  5097  0752  00A9               	movwf	??_readAnalog+7
  5098  0753  01AA               	clrf	??_readAnalog+8
  5099  0754  0829               	movf	??_readAnalog+7,w
  5100  0755  00F0               	movwf	___wmul@multiplier
  5101  0756  082A               	movf	??_readAnalog+8,w
  5102  0757  00F1               	movwf	___wmul@multiplier+1
  5103  0758  3064               	movlw	100
  5104  0759  00F2               	movwf	___wmul@multiplicand
  5105  075A  3000               	movlw	0
  5106  075B  00F3               	movwf	___wmul@multiplicand+1
  5107  075C  3182  22B0  3186   	fcall	___wmul
  5108  075F  3060               	movlw	96
  5109  0760  0020               	movlb	0	; select bank0
  5110  0761  00AB               	movwf	??_readAnalog+9
  5111  0762  3022               	movlw	34
  5112  0763  00AC               	movwf	??_readAnalog+10
  5113  0764  0870               	movf	?___wmul,w
  5114  0765  072B               	addwf	??_readAnalog+9,w
  5115  0766  00AD               	movwf	??_readAnalog+11
  5116  0767  0871               	movf	?___wmul+1,w
  5117  0768  3D2C               	addwfc	??_readAnalog+10,w
  5118  0769  00AE               	movwf	??_readAnalog+12
  5119  076A  0827               	movf	??_readAnalog+5,w
  5120  076B  072D               	addwf	??_readAnalog+11,w
  5121  076C  0086               	movwf	6
  5122  076D  0828               	movf	??_readAnalog+6,w
  5123  076E  3D2E               	addwfc	??_readAnalog+12,w
  5124  076F  0087               	movwf	7
  5125  0770  3F40               	moviw [0]fsr1
  5126  0771  00AF               	movwf	??_readAnalog+13
  5127  0772  3F41               	moviw [1]fsr1
  5128  0773  00B0               	movwf	??_readAnalog+14
  5129  0774  082F               	movf	??_readAnalog+13,w
  5130  0775  00B1               	movwf	??_readAnalog+15
  5131  0776  0830               	movf	??_readAnalog+14,w
  5132  0777  00B2               	movwf	??_readAnalog+16
  5133  0778  01B3               	clrf	??_readAnalog+17
  5134  0779  01B4               	clrf	??_readAnalog+18
  5135  077A  0831               	movf	??_readAnalog+15,w
  5136  077B  07A3               	addwf	??_readAnalog+1,f
  5137  077C  0832               	movf	??_readAnalog+16,w
  5138  077D  3DA4               	addwfc	??_readAnalog+2,f
  5139  077E  0833               	movf	??_readAnalog+17,w
  5140  077F  3DA5               	addwfc	??_readAnalog+3,f
  5141  0780  0834               	movf	??_readAnalog+18,w
  5142  0781  3DA6               	addwfc	??_readAnalog+4,f
  5143  0782  0839               	movf	readAnalog@channel,w
  5144  0783  00B5               	movwf	??_readAnalog+19
  5145  0784  3001               	movlw	1
  5146  0785                     u1125:	
  5147  0785  35B5               	lslf	??_readAnalog+19,f
  5148  0786  3EFF               	addlw	-1
  5149  0787  1D03               	skipz
  5150  0788  2F85               	goto	u1125
  5151  0789  3535               	lslf	??_readAnalog+19,w
  5152  078A  3E55               	addlw	(low (_totals| 0))& (0+255)
  5153  078B  0086               	movwf	6
  5154  078C  0187               	clrf	7
  5155  078D  0823               	movf	??_readAnalog+1,w
  5156  078E  3FC0               	movwi [0]fsr1
  5157  078F  0824               	movf	??_readAnalog+2,w
  5158  0790  3FC1               	movwi [1]fsr1
  5159  0791  0825               	movf	??_readAnalog+3,w
  5160  0792  3FC2               	movwi [2]fsr1
  5161  0793  0826               	movf	??_readAnalog+4,w
  5162  0794  3FC3               	movwi [3]fsr1
  5163                           
  5164                           ;adc.c: 48: if(channel>=(4-1))
  5165  0795  3003               	movlw	3
  5166  0796  0239               	subwf	readAnalog@channel,w
  5167  0797  1C03               	skipc
  5168  0798  2FA6               	goto	l1475
  5169                           
  5170                           ;adc.c: 49: {
  5171                           ;adc.c: 50: sampleIndex+=1;
  5172  0799  3001               	movlw	1
  5173  079A  07E5               	addwf	_sampleIndex,f
  5174  079B  3000               	movlw	0
  5175  079C  3DE6               	addwfc	_sampleIndex+1,f
  5176                           
  5177                           ;adc.c: 51: if(sampleIndex >= 50)sampleIndex = 0;
  5178  079D  3000               	movlw	0
  5179  079E  0266               	subwf	_sampleIndex+1,w
  5180  079F  3032               	movlw	50
  5181  07A0  1903               	skipnz
  5182  07A1  0265               	subwf	_sampleIndex,w
  5183  07A2  1C03               	skipc
  5184  07A3  2FA6               	goto	l1475
  5185  07A4  01E5               	clrf	_sampleIndex
  5186  07A5  01E6               	clrf	_sampleIndex+1
  5187  07A6                     l1475:	
  5188                           
  5189                           ;adc.c: 52: }
  5190                           ;adc.c: 54: value = totals[channel]/50;
  5191  07A6  3000               	movlw	0
  5192  07A7  00F3               	movwf	___lldiv@divisor+3
  5193  07A8  3000               	movlw	0
  5194  07A9  00F2               	movwf	___lldiv@divisor+2
  5195  07AA  3000               	movlw	0
  5196  07AB  00F1               	movwf	___lldiv@divisor+1
  5197  07AC  3032               	movlw	50
  5198  07AD  00F0               	movwf	___lldiv@divisor
  5199  07AE  0839               	movf	readAnalog@channel,w
  5200  07AF  00A2               	movwf	??_readAnalog
  5201  07B0  3001               	movlw	1
  5202  07B1                     u1155:	
  5203  07B1  35A2               	lslf	??_readAnalog,f
  5204  07B2  3EFF               	addlw	-1
  5205  07B3  1D03               	skipz
  5206  07B4  2FB1               	goto	u1155
  5207  07B5  3522               	lslf	??_readAnalog,w
  5208  07B6  3E55               	addlw	(low (_totals| 0))& (0+255)
  5209  07B7  0086               	movwf	6
  5210  07B8  0187               	clrf	7
  5211  07B9  3F40               	moviw [0]fsr1
  5212  07BA  00F4               	movwf	___lldiv@dividend
  5213  07BB  3F41               	moviw [1]fsr1
  5214  07BC  00F5               	movwf	___lldiv@dividend+1
  5215  07BD  3F42               	moviw [2]fsr1
  5216  07BE  00F6               	movwf	___lldiv@dividend+2
  5217  07BF  3F43               	moviw [3]fsr1
  5218  07C0  00F7               	movwf	___lldiv@dividend+3
  5219  07C1  3184  242B         	fcall	___lldiv
  5220  07C3  0871               	movf	?___lldiv+1,w
  5221  07C4  0020               	movlb	0	; select bank0
  5222  07C5  00B8               	movwf	readAnalog@value+1
  5223  07C6  0870               	movf	?___lldiv,w
  5224  07C7  00B7               	movwf	readAnalog@value
  5225                           
  5226                           ;adc.c: 56: return value;
  5227  07C8  0838               	movf	readAnalog@value+1,w
  5228  07C9  00A1               	movwf	?_readAnalog+1
  5229  07CA  0837               	movf	readAnalog@value,w
  5230  07CB  00A0               	movwf	?_readAnalog
  5231  07CC  0008               	return
  5232  07CD                     __end_of_readAnalog:	
  5233                           
  5234                           	psect	text2
  5235  042B                     __ptext2:	
  5236 ;; *************** function ___lldiv *****************
  5237 ;; Defined at:
  5238 ;;		line 6 in file "C:\Program Files (x86)\Microchip\xc8\v1.45\sources\common\lldiv.c"
  5239 ;; Parameters:    Size  Location     Type
  5240 ;;  divisor         4    0[COMMON] unsigned long 
  5241 ;;  dividend        4    4[COMMON] unsigned long 
  5242 ;; Auto vars:     Size  Location     Type
  5243 ;;  quotient        4    9[COMMON] unsigned long 
  5244 ;;  counter         1   13[COMMON] unsigned char 
  5245 ;; Return value:  Size  Location     Type
  5246 ;;                  4    0[COMMON] unsigned long 
  5247 ;; Registers used:
  5248 ;;		wreg, status,2, status,0
  5249 ;; Tracked objects:
  5250 ;;		On entry : 0/0
  5251 ;;		On exit  : 0/0
  5252 ;;		Unchanged: 0/0
  5253 ;; Data sizes:     COMMON   BANK0   BANK1   BANK2   BANK3   BANK4   BANK5   BANK6   BANK7   BANK8   BANK9  BANK10  BANK1
      +1  BANK12
  5254 ;;      Params:         8       0       0       0       0       0       0       0       0       0       0       0       
      +0       0
  5255 ;;      Locals:         5       0       0       0       0       0       0       0       0       0       0       0       
      +0       0
  5256 ;;      Temps:          1       0       0       0       0       0       0       0       0       0       0       0       
      +0       0
  5257 ;;      Totals:        14       0       0       0       0       0       0       0       0       0       0       0       
      +0       0
  5258 ;;Total ram usage:       14 bytes
  5259 ;; Hardware stack levels used:    1
  5260 ;; This function calls:
  5261 ;;		Nothing
  5262 ;; This function is called by:
  5263 ;;		_readAnalog
  5264 ;; This function uses a non-reentrant model
  5265 ;;
  5266                           
  5267                           
  5268                           ;psect for function ___lldiv
  5269  042B                     ___lldiv:	
  5270                           
  5271                           ;incstack = 0
  5272                           ; Regs used in ___lldiv: [wreg+status,2+status,0]
  5273  042B  3000               	movlw	0
  5274  042C  00FC               	movwf	___lldiv@quotient+3
  5275  042D  3000               	movlw	0
  5276  042E  00FB               	movwf	___lldiv@quotient+2
  5277  042F  3000               	movlw	0
  5278  0430  00FA               	movwf	___lldiv@quotient+1
  5279  0431  3000               	movlw	0
  5280  0432  00F9               	movwf	___lldiv@quotient
  5281  0433  0873               	movf	___lldiv@divisor+3,w
  5282  0434  0472               	iorwf	___lldiv@divisor+2,w
  5283  0435  0471               	iorwf	___lldiv@divisor+1,w
  5284  0436  0470               	iorwf	___lldiv@divisor,w
  5285  0437  1903               	skipnz
  5286  0438  2C74               	goto	l1421
  5287  0439  01FD               	clrf	___lldiv@counter
  5288  043A  0AFD               	incf	___lldiv@counter,f
  5289  043B                     l1407:	
  5290  043B  1BF3               	btfsc	___lldiv@divisor+3,7
  5291  043C  2C49               	goto	l1409
  5292  043D  3001               	movlw	1
  5293  043E                     u975:	
  5294  043E  35F0               	lslf	___lldiv@divisor,f
  5295  043F  0DF1               	rlf	___lldiv@divisor+1,f
  5296  0440  0DF2               	rlf	___lldiv@divisor+2,f
  5297  0441  0DF3               	rlf	___lldiv@divisor+3,f
  5298  0442  0B89               	decfsz	9,f
  5299  0443  2C3E               	goto	u975
  5300  0444  3001               	movlw	1
  5301  0445  00F8               	movwf	??___lldiv
  5302  0446  0878               	movf	??___lldiv,w
  5303  0447  07FD               	addwf	___lldiv@counter,f
  5304  0448  2C3B               	goto	l1407
  5305  0449                     l1409:	
  5306  0449  3001               	movlw	1
  5307  044A                     u995:	
  5308  044A  35F9               	lslf	___lldiv@quotient,f
  5309  044B  0DFA               	rlf	___lldiv@quotient+1,f
  5310  044C  0DFB               	rlf	___lldiv@quotient+2,f
  5311  044D  0DFC               	rlf	___lldiv@quotient+3,f
  5312  044E  0B89               	decfsz	9,f
  5313  044F  2C4A               	goto	u995
  5314  0450  0873               	movf	___lldiv@divisor+3,w
  5315  0451  0277               	subwf	___lldiv@dividend+3,w
  5316  0452  1D03               	skipz
  5317  0453  2C5E               	goto	u1005
  5318  0454  0872               	movf	___lldiv@divisor+2,w
  5319  0455  0276               	subwf	___lldiv@dividend+2,w
  5320  0456  1D03               	skipz
  5321  0457  2C5E               	goto	u1005
  5322  0458  0871               	movf	___lldiv@divisor+1,w
  5323  0459  0275               	subwf	___lldiv@dividend+1,w
  5324  045A  1D03               	skipz
  5325  045B  2C5E               	goto	u1005
  5326  045C  0870               	movf	___lldiv@divisor,w
  5327  045D  0274               	subwf	___lldiv@dividend,w
  5328  045E                     u1005:	
  5329  045E  1C03               	skipc
  5330  045F  2C69               	goto	l1417
  5331  0460  0870               	movf	___lldiv@divisor,w
  5332  0461  02F4               	subwf	___lldiv@dividend,f
  5333  0462  0871               	movf	___lldiv@divisor+1,w
  5334  0463  3BF5               	subwfb	___lldiv@dividend+1,f
  5335  0464  0872               	movf	___lldiv@divisor+2,w
  5336  0465  3BF6               	subwfb	___lldiv@dividend+2,f
  5337  0466  0873               	movf	___lldiv@divisor+3,w
  5338  0467  3BF7               	subwfb	___lldiv@dividend+3,f
  5339  0468  1479               	bsf	___lldiv@quotient,0
  5340  0469                     l1417:	
  5341  0469  3001               	movlw	1
  5342  046A                     u1015:	
  5343  046A  36F3               	lsrf	___lldiv@divisor+3,f
  5344  046B  0CF2               	rrf	___lldiv@divisor+2,f
  5345  046C  0CF1               	rrf	___lldiv@divisor+1,f
  5346  046D  0CF0               	rrf	___lldiv@divisor,f
  5347  046E  0B89               	decfsz	9,f
  5348  046F  2C6A               	goto	u1015
  5349  0470  3001               	movlw	1
  5350  0471  02FD               	subwf	___lldiv@counter,f
  5351  0472  1D03               	btfss	3,2
  5352  0473  2C49               	goto	l1409
  5353  0474                     l1421:	
  5354  0474  087C               	movf	___lldiv@quotient+3,w
  5355  0475  00F3               	movwf	?___lldiv+3
  5356  0476  087B               	movf	___lldiv@quotient+2,w
  5357  0477  00F2               	movwf	?___lldiv+2
  5358  0478  087A               	movf	___lldiv@quotient+1,w
  5359  0479  00F1               	movwf	?___lldiv+1
  5360  047A  0879               	movf	___lldiv@quotient,w
  5361  047B  00F0               	movwf	?___lldiv
  5362  047C  0008               	return
  5363  047D                     __end_of___lldiv:	
  5364                           
  5365                           	psect	text3
  5366  025F                     __ptext3:	
  5367 ;; *************** function _ADCRead *****************
  5368 ;; Defined at:
  5369 ;;		line 16 in file "adc.c"
  5370 ;; Parameters:    Size  Location     Type
  5371 ;;  channel         1    wreg     enum E14296
  5372 ;; Auto vars:     Size  Location     Type
  5373 ;;  channel         1    3[COMMON] enum E14296
  5374 ;; Return value:  Size  Location     Type
  5375 ;;                  2    0[COMMON] unsigned int 
  5376 ;; Registers used:
  5377 ;;		wreg
  5378 ;; Tracked objects:
  5379 ;;		On entry : 0/0
  5380 ;;		On exit  : 0/0
  5381 ;;		Unchanged: 0/0
  5382 ;; Data sizes:     COMMON   BANK0   BANK1   BANK2   BANK3   BANK4   BANK5   BANK6   BANK7   BANK8   BANK9  BANK10  BANK1
      +1  BANK12
  5383 ;;      Params:         3       0       0       0       0       0       0       0       0       0       0       0       
      +0       0
  5384 ;;      Locals:         1       0       0       0       0       0       0       0       0       0       0       0       
      +0       0
  5385 ;;      Temps:          0       0       0       0       0       0       0       0       0       0       0       0       
      +0       0
  5386 ;;      Totals:         4       0       0       0       0       0       0       0       0       0       0       0       
      +0       0
  5387 ;;Total ram usage:        4 bytes
  5388 ;; Hardware stack levels used:    1
  5389 ;; This function calls:
  5390 ;;		Nothing
  5391 ;; This function is called by:
  5392 ;;		_readAnalog
  5393 ;; This function uses a non-reentrant model
  5394 ;;
  5395                           
  5396                           
  5397                           ;psect for function _ADCRead
  5398  025F                     _ADCRead:	
  5399                           
  5400                           ;incstack = 0
  5401                           ; Regs used in _ADCRead: [wreg]
  5402                           ;ADCRead@channel stored from wreg
  5403  025F  00F3               	movwf	ADCRead@channel
  5404                           
  5405                           ;adc.c: 18: ADPCH = channel;
  5406  0260  0873               	movf	ADCRead@channel,w
  5407  0261  0021               	movlb	1	; select bank1
  5408  0262  009E               	movwf	30	;volatile
  5409                           
  5410                           ;adc.c: 20: ADCON0bits.ADON = 1;
  5411  0263  1793               	bsf	19,7	;volatile
  5412                           
  5413                           ;adc.c: 22: ADCON0bits.ADCONT = 0;
  5414  0264  1313               	bcf	19,6	;volatile
  5415                           
  5416                           ;adc.c: 24: ADCON0bits.ADGO = 1;
  5417  0265  1413               	bsf	19,0	;volatile
  5418  0266                     l89:	
  5419                           ;adc.c: 27: {
  5420                           
  5421                           ;adc.c: 26: while(ADCON0bits.ADGO)
  5422                           
  5423  0266  1813               	btfsc	19,0	;volatile
  5424  0267  2A66               	goto	l89
  5425                           
  5426                           ;adc.c: 28: }
  5427                           ;adc.c: 30: return (uint16_t)((ADRESH<<8)+ADRESL);
  5428  0268  080D               	movf	13,w	;volatile
  5429  0269  00F1               	movwf	?_ADCRead+1
  5430  026A  080C               	movf	12,w	;volatile
  5431  026B  00F0               	movwf	?_ADCRead
  5432  026C  0008               	return
  5433  026D                     __end_of_ADCRead:	
  5434                           
  5435                           	psect	text4
  5436  0316                     __ptext4:	
  5437 ;; *************** function _SYSTEM_Initialize *****************
  5438 ;; Defined at:
  5439 ;;		line 37 in file "system.c"
  5440 ;; Parameters:    Size  Location     Type
  5441 ;;		None
  5442 ;; Auto vars:     Size  Location     Type
  5443 ;;		None
  5444 ;; Return value:  Size  Location     Type
  5445 ;;                  1    wreg      void 
  5446 ;; Registers used:
  5447 ;;		wreg, status,2, status,0, pclath, cstack
  5448 ;; Tracked objects:
  5449 ;;		On entry : 0/0
  5450 ;;		On exit  : 0/0
  5451 ;;		Unchanged: 0/0
  5452 ;; Data sizes:     COMMON   BANK0   BANK1   BANK2   BANK3   BANK4   BANK5   BANK6   BANK7   BANK8   BANK9  BANK10  BANK1
      +1  BANK12
  5453 ;;      Params:         0       0       0       0       0       0       0       0       0       0       0       0       
      +0       0
  5454 ;;      Locals:         0       0       0       0       0       0       0       0       0       0       0       0       
      +0       0
  5455 ;;      Temps:          1       0       0       0       0       0       0       0       0       0       0       0       
      +0       0
  5456 ;;      Totals:         1       0       0       0       0       0       0       0       0       0       0       0       
      +0       0
  5457 ;;Total ram usage:        1 bytes
  5458 ;; Hardware stack levels used:    1
  5459 ;; Hardware stack levels required when called:    3
  5460 ;; This function calls:
  5461 ;;		_ADC_Initialize
  5462 ;;		_LCDClear
  5463 ;;		_LCDInit
  5464 ;;		_OSCILLATOR_Initialize
  5465 ;;		_PIN_MANAGER_Initialize
  5466 ;;		_PWM_Initialize
  5467 ;;		_TMR2_Initialize
  5468 ;; This function is called by:
  5469 ;;		_main
  5470 ;; This function uses a non-reentrant model
  5471 ;;
  5472                           
  5473                           
  5474                           ;psect for function _SYSTEM_Initialize
  5475  0316                     _SYSTEM_Initialize:	
  5476                           
  5477                           ;system.c: 56: OSCILLATOR_Initialize();
  5478                           
  5479                           ;incstack = 0
  5480                           ; Regs used in _SYSTEM_Initialize: [wreg+status,2+status,0+pclath+cstack]
  5481  0316  3182  2232  3183   	fcall	_OSCILLATOR_Initialize
  5482                           
  5483                           ;system.c: 57: PIN_MANAGER_Initialize();
  5484  0319  3183  236A  3183   	fcall	_PIN_MANAGER_Initialize
  5485                           
  5486                           ;system.c: 58: TMR2_Initialize();
  5487  031C  3182  2251  3183   	fcall	_TMR2_Initialize
  5488                           
  5489                           ;system.c: 59: PWM_Initialize();
  5490  031F  3182  223A  3183   	fcall	_PWM_Initialize
  5491                           
  5492                           ;system.c: 60: FVRCON = 0x00;
  5493  0322  0032               	movlb	18	; select bank18
  5494  0323  018C               	clrf	12	;volatile
  5495                           
  5496                           ;system.c: 61: ADC_Initialize();
  5497  0324  3182  2296  3183   	fcall	_ADC_Initialize
  5498                           
  5499                           ;system.c: 62: LCDInit();
  5500  0327  3183  239F  3183   	fcall	_LCDInit
  5501                           
  5502                           ;system.c: 63: _delay((unsigned long)((200)*(1000000/4000.0)));
  5503  032A  3041               	movlw	65
  5504  032B  00FB               	movwf	??_SYSTEM_Initialize
  5505  032C  30EE               	movlw	238
  5506  032D                     u1457:	
  5507  032D  0B89               	decfsz	9,f
  5508  032E  2B2D               	goto	u1457
  5509  032F  0BFB               	decfsz	??_SYSTEM_Initialize,f
  5510  0330  2B2D               	goto	u1457
  5511  0331  3200               	nop2
  5512                           
  5513                           ;system.c: 64: LCDClear();
  5514  0332  3182  22F0  3183   	fcall	_LCDClear
  5515                           
  5516                           ;system.c: 65: _delay((unsigned long)((100)*(1000000/4000.0)));
  5517  0335  3021               	movlw	33
  5518  0336  00FB               	movwf	??_SYSTEM_Initialize
  5519  0337  3076               	movlw	118
  5520  0338                     u1467:	
  5521  0338  0B89               	decfsz	9,f
  5522  0339  2B38               	goto	u1467
  5523  033A  0BFB               	decfsz	??_SYSTEM_Initialize,f
  5524  033B  2B38               	goto	u1467
  5525  033C  3200               	nop2
  5526  033D  0008               	return
  5527  033E                     __end_of_SYSTEM_Initialize:	
  5528                           
  5529                           	psect	text5
  5530  0251                     __ptext5:	
  5531 ;; *************** function _TMR2_Initialize *****************
  5532 ;; Defined at:
  5533 ;;		line 3 in file "tmr2.c"
  5534 ;; Parameters:    Size  Location     Type
  5535 ;;		None
  5536 ;; Auto vars:     Size  Location     Type
  5537 ;;		None
  5538 ;; Return value:  Size  Location     Type
  5539 ;;                  1    wreg      void 
  5540 ;; Registers used:
  5541 ;;		wreg, status,2
  5542 ;; Tracked objects:
  5543 ;;		On entry : 0/0
  5544 ;;		On exit  : 0/0
  5545 ;;		Unchanged: 0/0
  5546 ;; Data sizes:     COMMON   BANK0   BANK1   BANK2   BANK3   BANK4   BANK5   BANK6   BANK7   BANK8   BANK9  BANK10  BANK1
      +1  BANK12
  5547 ;;      Params:         0       0       0       0       0       0       0       0       0       0       0       0       
      +0       0
  5548 ;;      Locals:         0       0       0       0       0       0       0       0       0       0       0       0       
      +0       0
  5549 ;;      Temps:          0       0       0       0       0       0       0       0       0       0       0       0       
      +0       0
  5550 ;;      Totals:         0       0       0       0       0       0       0       0       0       0       0       0       
      +0       0
  5551 ;;Total ram usage:        0 bytes
  5552 ;; Hardware stack levels used:    1
  5553 ;; This function calls:
  5554 ;;		Nothing
  5555 ;; This function is called by:
  5556 ;;		_SYSTEM_Initialize
  5557 ;; This function uses a non-reentrant model
  5558 ;;
  5559                           
  5560                           
  5561                           ;psect for function _TMR2_Initialize
  5562  0251                     _TMR2_Initialize:	
  5563                           
  5564                           ;tmr2.c: 5: T2CON = 0x00;
  5565                           
  5566                           ;incstack = 0
  5567                           ; Regs used in _TMR2_Initialize: [wreg+status,2]
  5568  0251  0025               	movlb	5	; select bank5
  5569  0252  018E               	clrf	14	;volatile
  5570                           
  5571                           ;tmr2.c: 7: T2CLKCON = 0x01;
  5572  0253  3001               	movlw	1
  5573  0254  0090               	movwf	16	;volatile
  5574                           
  5575                           ;tmr2.c: 9: T2HLT = 0x00;
  5576  0255  018F               	clrf	15	;volatile
  5577                           
  5578                           ;tmr2.c: 11: T2RST = 0x00;
  5579  0256  0191               	clrf	17	;volatile
  5580                           
  5581                           ;tmr2.c: 13: T2PR = 0xFF;
  5582  0257  30FF               	movlw	255
  5583  0258  008D               	movwf	13	;volatile
  5584                           
  5585                           ;tmr2.c: 15: T2TMR = 0x00;
  5586  0259  018C               	clrf	12	;volatile
  5587                           
  5588                           ;tmr2.c: 17: PIR4bits.TMR2IF = 0;
  5589  025A  002E               	movlb	14	; select bank14
  5590  025B  1090               	bcf	16,1	;volatile
  5591                           
  5592                           ;tmr2.c: 19: T2CONbits.TMR2ON = 1;
  5593  025C  0025               	movlb	5	; select bank5
  5594  025D  178E               	bsf	14,7	;volatile
  5595  025E  0008               	return
  5596  025F                     __end_of_TMR2_Initialize:	
  5597                           
  5598                           	psect	text6
  5599  023A                     __ptext6:	
  5600 ;; *************** function _PWM_Initialize *****************
  5601 ;; Defined at:
  5602 ;;		line 3 in file "pwm.c"
  5603 ;; Parameters:    Size  Location     Type
  5604 ;;		None
  5605 ;; Auto vars:     Size  Location     Type
  5606 ;;		None
  5607 ;; Return value:  Size  Location     Type
  5608 ;;                  1    wreg      void 
  5609 ;; Registers used:
  5610 ;;		wreg, status,2, status,0
  5611 ;; Tracked objects:
  5612 ;;		On entry : 0/0
  5613 ;;		On exit  : 0/0
  5614 ;;		Unchanged: 0/0
  5615 ;; Data sizes:     COMMON   BANK0   BANK1   BANK2   BANK3   BANK4   BANK5   BANK6   BANK7   BANK8   BANK9  BANK10  BANK1
      +1  BANK12
  5616 ;;      Params:         0       0       0       0       0       0       0       0       0       0       0       0       
      +0       0
  5617 ;;      Locals:         0       0       0       0       0       0       0       0       0       0       0       0       
      +0       0
  5618 ;;      Temps:          0       0       0       0       0       0       0       0       0       0       0       0       
      +0       0
  5619 ;;      Totals:         0       0       0       0       0       0       0       0       0       0       0       0       
      +0       0
  5620 ;;Total ram usage:        0 bytes
  5621 ;; Hardware stack levels used:    1
  5622 ;; This function calls:
  5623 ;;		Nothing
  5624 ;; This function is called by:
  5625 ;;		_SYSTEM_Initialize
  5626 ;; This function uses a non-reentrant model
  5627 ;;
  5628                           
  5629                           
  5630                           ;psect for function _PWM_Initialize
  5631  023A                     _PWM_Initialize:	
  5632                           
  5633                           ;pwm.c: 14: PWM7CON = 0x80;
  5634                           
  5635                           ;incstack = 0
  5636                           ; Regs used in _PWM_Initialize: [wreg+status,2+status,0]
  5637  023A  3080               	movlw	128
  5638  023B  0027               	movlb	7	; select bank7
  5639  023C  0092               	movwf	18	;volatile
  5640                           
  5641                           ;pwm.c: 16: PWM7DCH = 0x00;
  5642  023D  0191               	clrf	17	;volatile
  5643                           
  5644                           ;pwm.c: 18: PWM7DCL = 0x00;
  5645  023E  0190               	clrf	16	;volatile
  5646                           
  5647                           ;pwm.c: 20: CCPTMRS1bits.P6TSEL = 0x1;
  5648  023F  0024               	movlb	4	; select bank4
  5649  0240  081F               	movf	31,w	;volatile
  5650  0241  39F3               	andlw	-13
  5651  0242  3804               	iorlw	4
  5652  0243  009F               	movwf	31	;volatile
  5653  0244  0008               	return
  5654  0245                     __end_of_PWM_Initialize:	
  5655                           
  5656                           	psect	text7
  5657  036A                     __ptext7:	
  5658 ;; *************** function _PIN_MANAGER_Initialize *****************
  5659 ;; Defined at:
  5660 ;;		line 5 in file "pin_manager.c"
  5661 ;; Parameters:    Size  Location     Type
  5662 ;;		None
  5663 ;; Auto vars:     Size  Location     Type
  5664 ;;  state           1    0[COMMON] char 
  5665 ;; Return value:  Size  Location     Type
  5666 ;;                  1    wreg      void 
  5667 ;; Registers used:
  5668 ;;		wreg, status,2
  5669 ;; Tracked objects:
  5670 ;;		On entry : 0/0
  5671 ;;		On exit  : 0/0
  5672 ;;		Unchanged: 0/0
  5673 ;; Data sizes:     COMMON   BANK0   BANK1   BANK2   BANK3   BANK4   BANK5   BANK6   BANK7   BANK8   BANK9  BANK10  BANK1
      +1  BANK12
  5674 ;;      Params:         0       0       0       0       0       0       0       0       0       0       0       0       
      +0       0
  5675 ;;      Locals:         1       0       0       0       0       0       0       0       0       0       0       0       
      +0       0
  5676 ;;      Temps:          0       0       0       0       0       0       0       0       0       0       0       0       
      +0       0
  5677 ;;      Totals:         1       0       0       0       0       0       0       0       0       0       0       0       
      +0       0
  5678 ;;Total ram usage:        1 bytes
  5679 ;; Hardware stack levels used:    1
  5680 ;; This function calls:
  5681 ;;		Nothing
  5682 ;; This function is called by:
  5683 ;;		_SYSTEM_Initialize
  5684 ;; This function uses a non-reentrant model
  5685 ;;
  5686                           
  5687                           
  5688                           ;psect for function _PIN_MANAGER_Initialize
  5689  036A                     _PIN_MANAGER_Initialize:	
  5690                           
  5691                           ;pin_manager.c: 7: LATA = 0x20;
  5692                           
  5693                           ;incstack = 0
  5694                           ; Regs used in _PIN_MANAGER_Initialize: [wreg+status,2]
  5695  036A  3020               	movlw	32
  5696  036B  0020               	movlb	0	; select bank0
  5697  036C  0096               	movwf	22	;volatile
  5698                           
  5699                           ;pin_manager.c: 8: LATB = 0x04;
  5700  036D  3004               	movlw	4
  5701  036E  0097               	movwf	23	;volatile
  5702                           
  5703                           ;pin_manager.c: 9: LATC = 0x80;
  5704  036F  3080               	movlw	128
  5705  0370  0098               	movwf	24	;volatile
  5706                           
  5707                           ;pin_manager.c: 11: WPUA = 0x00;
  5708  0371  003E               	movlb	30	; select bank30
  5709  0372  01B9               	clrf	57	;volatile
  5710                           
  5711                           ;pin_manager.c: 12: WPUB = 0x00;
  5712  0373  01C4               	clrf	68	;volatile
  5713                           
  5714                           ;pin_manager.c: 13: WPUC = 0x00;
  5715  0374  01CF               	clrf	79	;volatile
  5716                           
  5717                           ;pin_manager.c: 14: WPUE = 0x8;
  5718  0375  3008               	movlw	8
  5719  0376  00E5               	movwf	101	;volatile
  5720                           
  5721                           ;pin_manager.c: 16: TRISA = 0x00;
  5722  0377  0020               	movlb	0	; select bank0
  5723  0378  0191               	clrf	17	;volatile
  5724                           
  5725                           ;pin_manager.c: 17: TRISB = 0x02;
  5726  0379  3002               	movlw	2
  5727  037A  0092               	movwf	18	;volatile
  5728                           
  5729                           ;pin_manager.c: 18: TRISC = 0x40;
  5730  037B  3040               	movlw	64
  5731  037C  0093               	movwf	19	;volatile
  5732                           
  5733                           ;pin_manager.c: 20: ANSELA = 0x00;
  5734  037D  003E               	movlb	30	; select bank30
  5735  037E  01B8               	clrf	56	;volatile
  5736                           
  5737                           ;pin_manager.c: 21: ANSELB = 0x02;
  5738  037F  3002               	movlw	2
  5739  0380  00C3               	movwf	67	;volatile
  5740                           
  5741                           ;pin_manager.c: 22: ANSELC = 0x40;
  5742  0381  3040               	movlw	64
  5743  0382  00CE               	movwf	78	;volatile
  5744                           
  5745                           ;pin_manager.c: 42: PIE0bits.IOCIE = 0;
  5746  0383  002E               	movlb	14	; select bank14
  5747  0384  1216               	bcf	22,4	;volatile
  5748                           
  5749                           ;pin_manager.c: 43: signed char state = GIE;
  5750  0385  3000               	movlw	0
  5751  0386  1B8B               	btfsc	11,7	;volatile
  5752  0387  3001               	movlw	1
  5753  0388  00F0               	movwf	PIN_MANAGER_Initialize@state
  5754                           
  5755                           ;pin_manager.c: 44: GIE = 0;
  5756  0389  138B               	bcf	11,7	;volatile
  5757                           
  5758                           ;pin_manager.c: 45: PPSLOCK = 0x55;
  5759  038A  3055               	movlw	85
  5760  038B  003D               	movlb	29	; select bank29
  5761  038C  008F               	movwf	15	;volsfr
  5762                           
  5763                           ;pin_manager.c: 46: PPSLOCK = 0xAA;
  5764  038D  30AA               	movlw	170
  5765  038E  008F               	movwf	15	;volsfr
  5766                           
  5767                           ;pin_manager.c: 47: PPSLOCKbits.PPSLOCKED = 0x00;
  5768  038F  100F               	bcf	15,0	;volsfr
  5769                           
  5770                           ;pin_manager.c: 50: RC4PPS = 0x000F;
  5771  0390  300F               	movlw	15
  5772  0391  003E               	movlb	30	; select bank30
  5773  0392  00A4               	movwf	36	;volatile
  5774                           
  5775                           ;pin_manager.c: 54: PPSLOCK = 0x55;
  5776  0393  3055               	movlw	85
  5777  0394  003D               	movlb	29	; select bank29
  5778  0395  008F               	movwf	15	;volsfr
  5779                           
  5780                           ;pin_manager.c: 55: PPSLOCK = 0xAA;
  5781  0396  30AA               	movlw	170
  5782  0397  008F               	movwf	15	;volsfr
  5783                           
  5784                           ;pin_manager.c: 56: PPSLOCKbits.PPSLOCKED = 0x01;
  5785  0398  140F               	bsf	15,0	;volsfr
  5786                           
  5787                           ;pin_manager.c: 57: GIE = state;
  5788  0399  1C70               	btfss	PIN_MANAGER_Initialize@state,0
  5789  039A  2B9D               	goto	u810
  5790  039B  178B               	bsf	11,7	;volatile
  5791  039C  0008               	return
  5792  039D                     u810:	
  5793  039D  138B               	bcf	11,7	;volatile
  5794  039E  0008               	return
  5795  039F                     __end_of_PIN_MANAGER_Initialize:	
  5796                           
  5797                           	psect	text8
  5798  0232                     __ptext8:	
  5799 ;; *************** function _OSCILLATOR_Initialize *****************
  5800 ;; Defined at:
  5801 ;;		line 68 in file "system.c"
  5802 ;; Parameters:    Size  Location     Type
  5803 ;;		None
  5804 ;; Auto vars:     Size  Location     Type
  5805 ;;		None
  5806 ;; Return value:  Size  Location     Type
  5807 ;;                  1    wreg      void 
  5808 ;; Registers used:
  5809 ;;		wreg, status,2
  5810 ;; Tracked objects:
  5811 ;;		On entry : 0/0
  5812 ;;		On exit  : 0/0
  5813 ;;		Unchanged: 0/0
  5814 ;; Data sizes:     COMMON   BANK0   BANK1   BANK2   BANK3   BANK4   BANK5   BANK6   BANK7   BANK8   BANK9  BANK10  BANK1
      +1  BANK12
  5815 ;;      Params:         0       0       0       0       0       0       0       0       0       0       0       0       
      +0       0
  5816 ;;      Locals:         0       0       0       0       0       0       0       0       0       0       0       0       
      +0       0
  5817 ;;      Temps:          0       0       0       0       0       0       0       0       0       0       0       0       
      +0       0
  5818 ;;      Totals:         0       0       0       0       0       0       0       0       0       0       0       0       
      +0       0
  5819 ;;Total ram usage:        0 bytes
  5820 ;; Hardware stack levels used:    1
  5821 ;; This function calls:
  5822 ;;		Nothing
  5823 ;; This function is called by:
  5824 ;;		_SYSTEM_Initialize
  5825 ;; This function uses a non-reentrant model
  5826 ;;
  5827                           
  5828                           
  5829                           ;psect for function _OSCILLATOR_Initialize
  5830  0232                     _OSCILLATOR_Initialize:	
  5831                           
  5832                           ;system.c: 70: OSCCON1 = 0x60;
  5833                           
  5834                           ;incstack = 0
  5835                           ; Regs used in _OSCILLATOR_Initialize: [wreg+status,2]
  5836  0232  3060               	movlw	96
  5837  0233  0031               	movlb	17	; select bank17
  5838  0234  008D               	movwf	13	;volatile
  5839                           
  5840                           ;system.c: 71: OSCCON3 = 0x00;
  5841  0235  018F               	clrf	15	;volatile
  5842                           
  5843                           ;system.c: 72: OSCEN = 0x00;
  5844  0236  0191               	clrf	17	;volatile
  5845                           
  5846                           ;system.c: 73: OSCFRQ = 0x00;
  5847  0237  0193               	clrf	19	;volatile
  5848                           
  5849                           ;system.c: 74: OSCTUNE = 0x00;
  5850  0238  0192               	clrf	18	;volatile
  5851  0239  0008               	return
  5852  023A                     __end_of_OSCILLATOR_Initialize:	
  5853                           
  5854                           	psect	text9
  5855  039F                     __ptext9:	
  5856 ;; *************** function _LCDInit *****************
  5857 ;; Defined at:
  5858 ;;		line 247 in file "lcd.c"
  5859 ;; Parameters:    Size  Location     Type
  5860 ;;		None
  5861 ;; Auto vars:     Size  Location     Type
  5862 ;;		None
  5863 ;; Return value:  Size  Location     Type
  5864 ;;                  1    wreg      void 
  5865 ;; Registers used:
  5866 ;;		wreg, status,2, status,0, pclath, cstack
  5867 ;; Tracked objects:
  5868 ;;		On entry : 0/0
  5869 ;;		On exit  : 0/0
  5870 ;;		Unchanged: 0/0
  5871 ;; Data sizes:     COMMON   BANK0   BANK1   BANK2   BANK3   BANK4   BANK5   BANK6   BANK7   BANK8   BANK9  BANK10  BANK1
      +1  BANK12
  5872 ;;      Params:         0       0       0       0       0       0       0       0       0       0       0       0       
      +0       0
  5873 ;;      Locals:         0       0       0       0       0       0       0       0       0       0       0       0       
      +0       0
  5874 ;;      Temps:          1       0       0       0       0       0       0       0       0       0       0       0       
      +0       0
  5875 ;;      Totals:         1       0       0       0       0       0       0       0       0       0       0       0       
      +0       0
  5876 ;;Total ram usage:        1 bytes
  5877 ;; Hardware stack levels used:    1
  5878 ;; Hardware stack levels required when called:    1
  5879 ;; This function calls:
  5880 ;;		_LCDWrite
  5881 ;; This function is called by:
  5882 ;;		_SYSTEM_Initialize
  5883 ;; This function uses a non-reentrant model
  5884 ;;
  5885                           
  5886                           
  5887                           ;psect for function _LCDInit
  5888  039F                     _LCDInit:	
  5889                           
  5890                           ;lcd.c: 249: TRISAbits.TRISA0 = 0;
  5891                           
  5892                           ;incstack = 0
  5893                           ; Regs used in _LCDInit: [wreg+status,2+status,0+pclath+cstack]
  5894  039F  0020               	movlb	0	; select bank0
  5895  03A0  1011               	bcf	17,0	;volatile
  5896                           
  5897                           ;lcd.c: 250: TRISAbits.TRISA1 = 0;
  5898  03A1  1091               	bcf	17,1	;volatile
  5899                           
  5900                           ;lcd.c: 251: TRISAbits.TRISA2 = 0;
  5901  03A2  1111               	bcf	17,2	;volatile
  5902                           
  5903                           ;lcd.c: 252: TRISAbits.TRISA3 = 0;
  5904  03A3  1191               	bcf	17,3	;volatile
  5905                           
  5906                           ;lcd.c: 253: TRISAbits.TRISA4 = 0;
  5907  03A4  1211               	bcf	17,4	;volatile
  5908                           
  5909                           ;lcd.c: 254: LATAbits.LATA3 = 0;
  5910  03A5  1196               	bcf	22,3	;volatile
  5911                           
  5912                           ;lcd.c: 255: LATAbits.LATA4 = 0;
  5913  03A6  1216               	bcf	22,4	;volatile
  5914                           
  5915                           ;lcd.c: 256: LATAbits.LATA2 = 0;
  5916  03A7  1116               	bcf	22,2	;volatile
  5917                           
  5918                           ;lcd.c: 257: LATAbits.LATA0 = 0;
  5919  03A8  1016               	bcf	22,0	;volatile
  5920                           
  5921                           ;lcd.c: 259: LATAbits.LATA0 = 1;
  5922  03A9  1416               	bsf	22,0	;volatile
  5923                           
  5924                           ;lcd.c: 261: LCDWrite(0, 0x21);
  5925  03AA  3021               	movlw	33
  5926  03AB  00F5               	movwf	??_LCDInit
  5927  03AC  0875               	movf	??_LCDInit,w
  5928  03AD  00F0               	movwf	LCDWrite@data
  5929  03AE  3000               	movlw	0
  5930  03AF  3182  22CB  3183   	fcall	_LCDWrite
  5931                           
  5932                           ;lcd.c: 268: LCDWrite(0, 0xBE);
  5933  03B2  30BE               	movlw	190
  5934  03B3  00F5               	movwf	??_LCDInit
  5935  03B4  0875               	movf	??_LCDInit,w
  5936  03B5  00F0               	movwf	LCDWrite@data
  5937  03B6  3000               	movlw	0
  5938  03B7  3182  22CB  3183   	fcall	_LCDWrite
  5939                           
  5940                           ;lcd.c: 270: LCDWrite(0, 0x04);
  5941  03BA  3004               	movlw	4
  5942  03BB  00F5               	movwf	??_LCDInit
  5943  03BC  0875               	movf	??_LCDInit,w
  5944  03BD  00F0               	movwf	LCDWrite@data
  5945  03BE  3000               	movlw	0
  5946  03BF  3182  22CB  3183   	fcall	_LCDWrite
  5947                           
  5948                           ;lcd.c: 272: LCDWrite(0, 0x14);
  5949  03C2  3014               	movlw	20
  5950  03C3  00F5               	movwf	??_LCDInit
  5951  03C4  0875               	movf	??_LCDInit,w
  5952  03C5  00F0               	movwf	LCDWrite@data
  5953  03C6  3000               	movlw	0
  5954  03C7  3182  22CB  3183   	fcall	_LCDWrite
  5955                           
  5956                           ;lcd.c: 274: LCDWrite(0, 0x20);
  5957  03CA  3020               	movlw	32
  5958  03CB  00F5               	movwf	??_LCDInit
  5959  03CC  0875               	movf	??_LCDInit,w
  5960  03CD  00F0               	movwf	LCDWrite@data
  5961  03CE  3000               	movlw	0
  5962  03CF  3182  22CB  3183   	fcall	_LCDWrite
  5963                           
  5964                           ;lcd.c: 276: LCDWrite(0, 0x0C);
  5965  03D2  300C               	movlw	12
  5966  03D3  00F5               	movwf	??_LCDInit
  5967  03D4  0875               	movf	??_LCDInit,w
  5968  03D5  00F0               	movwf	LCDWrite@data
  5969  03D6  3000               	movlw	0
  5970  03D7  3182  22CB         	fcall	_LCDWrite
  5971  03D9  0008               	return
  5972  03DA                     __end_of_LCDInit:	
  5973                           
  5974                           	psect	text10
  5975  02F0                     __ptext10:	
  5976 ;; *************** function _LCDClear *****************
  5977 ;; Defined at:
  5978 ;;		line 182 in file "lcd.c"
  5979 ;; Parameters:    Size  Location     Type
  5980 ;;		None
  5981 ;; Auto vars:     Size  Location     Type
  5982 ;;  index           2    9[COMMON] int 
  5983 ;; Return value:  Size  Location     Type
  5984 ;;                  1    wreg      void 
  5985 ;; Registers used:
  5986 ;;		wreg, status,2, status,0, pclath, cstack
  5987 ;; Tracked objects:
  5988 ;;		On entry : 0/0
  5989 ;;		On exit  : 0/0
  5990 ;;		Unchanged: 0/0
  5991 ;; Data sizes:     COMMON   BANK0   BANK1   BANK2   BANK3   BANK4   BANK5   BANK6   BANK7   BANK8   BANK9  BANK10  BANK1
      +1  BANK12
  5992 ;;      Params:         0       0       0       0       0       0       0       0       0       0       0       0       
      +0       0
  5993 ;;      Locals:         2       0       0       0       0       0       0       0       0       0       0       0       
      +0       0
  5994 ;;      Temps:          1       0       0       0       0       0       0       0       0       0       0       0       
      +0       0
  5995 ;;      Totals:         3       0       0       0       0       0       0       0       0       0       0       0       
      +0       0
  5996 ;;Total ram usage:        3 bytes
  5997 ;; Hardware stack levels used:    1
  5998 ;; Hardware stack levels required when called:    2
  5999 ;; This function calls:
  6000 ;;		_LCDWrite
  6001 ;;		_gotoXY
  6002 ;; This function is called by:
  6003 ;;		_SYSTEM_Initialize
  6004 ;; This function uses a non-reentrant model
  6005 ;;
  6006                           
  6007                           
  6008                           ;psect for function _LCDClear
  6009  02F0                     _LCDClear:	
  6010                           
  6011                           ;lcd.c: 184: int index;
  6012                           ;lcd.c: 185: for (index = 0 ; index < (84 * 48 / 8) ; index++)
  6013                           
  6014                           ;incstack = 0
  6015                           ; Regs used in _LCDClear: [wreg+status,2+status,0+pclath+cstack]
  6016  02F0  01F9               	clrf	LCDClear@index
  6017  02F1  01FA               	clrf	LCDClear@index+1
  6018  02F2  087A               	movf	LCDClear@index+1,w
  6019  02F3  3A80               	xorlw	128
  6020  02F4  00F8               	movwf	??_LCDClear
  6021  02F5  3081               	movlw	129
  6022  02F6  0278               	subwf	??_LCDClear,w
  6023  02F7  1D03               	skipz
  6024  02F8  2AFB               	goto	u835
  6025  02F9  30F8               	movlw	248
  6026  02FA  0279               	subwf	LCDClear@index,w
  6027  02FB                     u835:	
  6028  02FB  1803               	btfsc	3,0
  6029  02FC  2B11               	goto	l1331
  6030  02FD                     l1325:	
  6031                           
  6032                           ;lcd.c: 186: LCDWrite(1, 0x00);
  6033  02FD  01F0               	clrf	LCDWrite@data
  6034  02FE  3001               	movlw	1
  6035  02FF  3182  22CB  3182   	fcall	_LCDWrite
  6036  0302  3001               	movlw	1
  6037  0303  07F9               	addwf	LCDClear@index,f
  6038  0304  3000               	movlw	0
  6039  0305  3DFA               	addwfc	LCDClear@index+1,f
  6040  0306  087A               	movf	LCDClear@index+1,w
  6041  0307  3A80               	xorlw	128
  6042  0308  00F8               	movwf	??_LCDClear
  6043  0309  3081               	movlw	129
  6044  030A  0278               	subwf	??_LCDClear,w
  6045  030B  1D03               	skipz
  6046  030C  2B0F               	goto	u845
  6047  030D  30F8               	movlw	248
  6048  030E  0279               	subwf	LCDClear@index,w
  6049  030F                     u845:	
  6050  030F  1C03               	skipc
  6051  0310  2AFD               	goto	l1325
  6052  0311                     l1331:	
  6053                           
  6054                           ;lcd.c: 187: gotoXY(0, 0);
  6055  0311  01F5               	clrf	gotoXY@y
  6056  0312  3000               	movlw	0
  6057  0313  3182  226D         	fcall	_gotoXY
  6058  0315  0008               	return
  6059  0316                     __end_of_LCDClear:	
  6060                           
  6061                           	psect	text11
  6062  026D                     __ptext11:	
  6063 ;; *************** function _gotoXY *****************
  6064 ;; Defined at:
  6065 ;;		line 124 in file "lcd.c"
  6066 ;; Parameters:    Size  Location     Type
  6067 ;;  x               1    wreg     unsigned char 
  6068 ;;  y               1    5[COMMON] unsigned char 
  6069 ;; Auto vars:     Size  Location     Type
  6070 ;;  x               1    7[COMMON] unsigned char 
  6071 ;; Return value:  Size  Location     Type
  6072 ;;                  1    wreg      void 
  6073 ;; Registers used:
  6074 ;;		wreg, status,2, status,0, pclath, cstack
  6075 ;; Tracked objects:
  6076 ;;		On entry : 0/0
  6077 ;;		On exit  : 0/0
  6078 ;;		Unchanged: 0/0
  6079 ;; Data sizes:     COMMON   BANK0   BANK1   BANK2   BANK3   BANK4   BANK5   BANK6   BANK7   BANK8   BANK9  BANK10  BANK1
      +1  BANK12
  6080 ;;      Params:         1       0       0       0       0       0       0       0       0       0       0       0       
      +0       0
  6081 ;;      Locals:         1       0       0       0       0       0       0       0       0       0       0       0       
      +0       0
  6082 ;;      Temps:          1       0       0       0       0       0       0       0       0       0       0       0       
      +0       0
  6083 ;;      Totals:         3       0       0       0       0       0       0       0       0       0       0       0       
      +0       0
  6084 ;;Total ram usage:        3 bytes
  6085 ;; Hardware stack levels used:    1
  6086 ;; Hardware stack levels required when called:    1
  6087 ;; This function calls:
  6088 ;;		_LCDWrite
  6089 ;; This function is called by:
  6090 ;;		_LCDClear
  6091 ;;		_main
  6092 ;;		_LCDBitmap
  6093 ;;		_LCDDrawBox
  6094 ;; This function uses a non-reentrant model
  6095 ;;
  6096                           
  6097                           
  6098                           ;psect for function _gotoXY
  6099  026D                     _gotoXY:	
  6100                           
  6101                           ;incstack = 0
  6102                           ; Regs used in _gotoXY: [wreg+status,2+status,0+pclath+cstack]
  6103                           ;gotoXY@x stored from wreg
  6104  026D  00F7               	movwf	gotoXY@x
  6105                           
  6106                           ;lcd.c: 126: LCDWrite(0,(uint8_t)(0x80 | x));
  6107  026E  0877               	movf	gotoXY@x,w
  6108  026F  3880               	iorlw	128
  6109  0270  00F6               	movwf	??_gotoXY
  6110  0271  0876               	movf	??_gotoXY,w
  6111  0272  00F0               	movwf	LCDWrite@data
  6112  0273  3000               	movlw	0
  6113  0274  3182  22CB  3182   	fcall	_LCDWrite
  6114                           
  6115                           ;lcd.c: 127: LCDWrite(0,(uint8_t)(0x40 | y));
  6116  0277  0875               	movf	gotoXY@y,w
  6117  0278  3840               	iorlw	64
  6118  0279  00F6               	movwf	??_gotoXY
  6119  027A  0876               	movf	??_gotoXY,w
  6120  027B  00F0               	movwf	LCDWrite@data
  6121  027C  3000               	movlw	0
  6122  027D  3182  22CB         	fcall	_LCDWrite
  6123  027F  0008               	return
  6124  0280                     __end_of_gotoXY:	
  6125                           
  6126                           	psect	text12
  6127  0296                     __ptext12:	
  6128 ;; *************** function _ADC_Initialize *****************
  6129 ;; Defined at:
  6130 ;;		line 60 in file "adc.c"
  6131 ;; Parameters:    Size  Location     Type
  6132 ;;		None
  6133 ;; Auto vars:     Size  Location     Type
  6134 ;;		None
  6135 ;; Return value:  Size  Location     Type
  6136 ;;                  1    wreg      void 
  6137 ;; Registers used:
  6138 ;;		wreg, status,2
  6139 ;; Tracked objects:
  6140 ;;		On entry : 0/0
  6141 ;;		On exit  : 0/0
  6142 ;;		Unchanged: 0/0
  6143 ;; Data sizes:     COMMON   BANK0   BANK1   BANK2   BANK3   BANK4   BANK5   BANK6   BANK7   BANK8   BANK9  BANK10  BANK1
      +1  BANK12
  6144 ;;      Params:         0       0       0       0       0       0       0       0       0       0       0       0       
      +0       0
  6145 ;;      Locals:         0       0       0       0       0       0       0       0       0       0       0       0       
      +0       0
  6146 ;;      Temps:          0       0       0       0       0       0       0       0       0       0       0       0       
      +0       0
  6147 ;;      Totals:         0       0       0       0       0       0       0       0       0       0       0       0       
      +0       0
  6148 ;;Total ram usage:        0 bytes
  6149 ;; Hardware stack levels used:    1
  6150 ;; This function calls:
  6151 ;;		Nothing
  6152 ;; This function is called by:
  6153 ;;		_SYSTEM_Initialize
  6154 ;; This function uses a non-reentrant model
  6155 ;;
  6156                           
  6157                           
  6158                           ;psect for function _ADC_Initialize
  6159  0296                     _ADC_Initialize:	
  6160                           
  6161                           ;adc.c: 62: ADCON1 = 0x00;
  6162                           
  6163                           ;incstack = 0
  6164                           ; Regs used in _ADC_Initialize: [wreg+status,2]
  6165  0296  0021               	movlb	1	; select bank1
  6166  0297  0194               	clrf	20	;volatile
  6167                           
  6168                           ;adc.c: 64: ADCON2 = 0x00;
  6169  0298  0195               	clrf	21	;volatile
  6170                           
  6171                           ;adc.c: 66: ADCON3 = 0x00;
  6172  0299  0196               	clrf	22	;volatile
  6173                           
  6174                           ;adc.c: 68: ADACT = 0x00;
  6175  029A  0199               	clrf	25	;volatile
  6176                           
  6177                           ;adc.c: 70: ADSTAT = 0x00;
  6178  029B  0197               	clrf	23	;volatile
  6179                           
  6180                           ;adc.c: 73: ADCLK = 0x3F;
  6181  029C  303F               	movlw	63
  6182  029D  0098               	movwf	24	;volatile
  6183                           
  6184                           ;adc.c: 81: ADREF = 0x00;
  6185  029E  019A               	clrf	26	;volatile
  6186                           
  6187                           ;adc.c: 83: ADCAP = 0x00;
  6188  029F  019B               	clrf	27	;volatile
  6189                           
  6190                           ;adc.c: 86: ADPRE = 0x07;
  6191  02A0  3007               	movlw	7
  6192  02A1  009C               	movwf	28	;volatile
  6193                           
  6194                           ;adc.c: 88: ADACQ = 0x00;
  6195  02A2  019D               	clrf	29	;volatile
  6196                           
  6197                           ;adc.c: 90: ADPCH = 0x00;
  6198  02A3  019E               	clrf	30	;volatile
  6199                           
  6200                           ;adc.c: 92: ADRPT = 0x00;
  6201  02A4  0022               	movlb	2	; select bank2
  6202  02A5  018D               	clrf	13	;volatile
  6203                           
  6204                           ;adc.c: 94: ADLTHL = 0x00;
  6205  02A6  018E               	clrf	14	;volatile
  6206                           
  6207                           ;adc.c: 96: ADLTHH = 0x00;
  6208  02A7  018F               	clrf	15	;volatile
  6209                           
  6210                           ;adc.c: 98: ADUTHL = 0x00;
  6211  02A8  0190               	clrf	16	;volatile
  6212                           
  6213                           ;adc.c: 100: ADUTHH = 0x00;
  6214  02A9  0191               	clrf	17	;volatile
  6215                           
  6216                           ;adc.c: 102: ADSTPTL = 0x00;
  6217  02AA  0192               	clrf	18	;volatile
  6218                           
  6219                           ;adc.c: 104: ADSTPTH = 0x00;
  6220  02AB  0193               	clrf	19	;volatile
  6221                           
  6222                           ;adc.c: 106: ADCON0 = 0x84;
  6223  02AC  3084               	movlw	132
  6224  02AD  0021               	movlb	1	; select bank1
  6225  02AE  0093               	movwf	19	;volatile
  6226  02AF  0008               	return
  6227  02B0                     __end_of_ADC_Initialize:	
  6228                           
  6229                           	psect	text13
  6230  0280                     __ptext13:	
  6231 ;; *************** function _PWM7_LoadDutyValue *****************
  6232 ;; Defined at:
  6233 ;;		line 32 in file "pwm.c"
  6234 ;; Parameters:    Size  Location     Type
  6235 ;;  dutyCycle7      2    0[COMMON] unsigned int 
  6236 ;; Auto vars:     Size  Location     Type
  6237 ;;		None
  6238 ;; Return value:  Size  Location     Type
  6239 ;;                  1    wreg      void 
  6240 ;; Registers used:
  6241 ;;		wreg, status,2, status,0
  6242 ;; Tracked objects:
  6243 ;;		On entry : 0/0
  6244 ;;		On exit  : 0/0
  6245 ;;		Unchanged: 0/0
  6246 ;; Data sizes:     COMMON   BANK0   BANK1   BANK2   BANK3   BANK4   BANK5   BANK6   BANK7   BANK8   BANK9  BANK10  BANK1
      +1  BANK12
  6247 ;;      Params:         2       0       0       0       0       0       0       0       0       0       0       0       
      +0       0
  6248 ;;      Locals:         0       0       0       0       0       0       0       0       0       0       0       0       
      +0       0
  6249 ;;      Temps:          2       0       0       0       0       0       0       0       0       0       0       0       
      +0       0
  6250 ;;      Totals:         4       0       0       0       0       0       0       0       0       0       0       0       
      +0       0
  6251 ;;Total ram usage:        4 bytes
  6252 ;; Hardware stack levels used:    1
  6253 ;; This function calls:
  6254 ;;		Nothing
  6255 ;; This function is called by:
  6256 ;;		_main
  6257 ;; This function uses a non-reentrant model
  6258 ;;
  6259                           
  6260                           
  6261                           ;psect for function _PWM7_LoadDutyValue
  6262  0280                     _PWM7_LoadDutyValue:	
  6263                           
  6264                           ;pwm.c: 34: PWM7DCH = (dutyCycle7 & 0x03FC)>>2;
  6265                           
  6266                           ;incstack = 0
  6267                           ; Regs used in _PWM7_LoadDutyValue: [wreg+status,2+status,0]
  6268  0280  0871               	movf	PWM7_LoadDutyValue@dutyCycle7+1,w
  6269  0281  00F3               	movwf	??_PWM7_LoadDutyValue+1
  6270  0282  0870               	movf	PWM7_LoadDutyValue@dutyCycle7,w
  6271  0283  00F2               	movwf	??_PWM7_LoadDutyValue
  6272  0284  36F3               	lsrf	??_PWM7_LoadDutyValue+1,f
  6273  0285  0CF2               	rrf	??_PWM7_LoadDutyValue,f
  6274  0286  36F3               	lsrf	??_PWM7_LoadDutyValue+1,f
  6275  0287  0CF2               	rrf	??_PWM7_LoadDutyValue,f
  6276  0288  0872               	movf	??_PWM7_LoadDutyValue,w
  6277  0289  0027               	movlb	7	; select bank7
  6278  028A  0091               	movwf	17	;volatile
  6279                           
  6280                           ;pwm.c: 36: PWM7DCL = (dutyCycle7 & 0x0003)<<6;
  6281  028B  0870               	movf	PWM7_LoadDutyValue@dutyCycle7,w
  6282  028C  3903               	andlw	3
  6283  028D  00F2               	movwf	??_PWM7_LoadDutyValue
  6284  028E  3005               	movlw	5
  6285  028F                     u1255:	
  6286  028F  35F2               	lslf	??_PWM7_LoadDutyValue,f
  6287  0290  3EFF               	addlw	-1
  6288  0291  1D03               	skipz
  6289  0292  2A8F               	goto	u1255
  6290  0293  3572               	lslf	??_PWM7_LoadDutyValue,w
  6291  0294  0090               	movwf	16	;volatile
  6292  0295  0008               	return
  6293  0296                     __end_of_PWM7_LoadDutyValue:	
  6294                           
  6295                           	psect	text14
  6296  04D1                     __ptext14:	
  6297 ;; *************** function _LCDWriteInt *****************
  6298 ;; Defined at:
  6299 ;;		line 190 in file "lcd.c"
  6300 ;; Parameters:    Size  Location     Type
  6301 ;;  value           2    0[BANK0 ] int 
  6302 ;;  fieldLength     1    2[BANK0 ] char 
  6303 ;;  numPlaces       1    3[BANK0 ] unsigned char 
  6304 ;;  sign            1    4[BANK0 ] unsigned char 
  6305 ;; Auto vars:     Size  Location     Type
  6306 ;;  str             5    9[BANK0 ] unsigned char [5]
  6307 ;;  i               1   15[BANK0 ] unsigned char 
  6308 ;;  j               1   14[BANK0 ] unsigned char 
  6309 ;; Return value:  Size  Location     Type
  6310 ;;                  1    wreg      void 
  6311 ;; Registers used:
  6312 ;;		wreg, fsr0l, fsr0h, fsr1l, fsr1h, status,2, status,0, pclath, cstack
  6313 ;; Tracked objects:
  6314 ;;		On entry : 0/0
  6315 ;;		On exit  : 0/0
  6316 ;;		Unchanged: 0/0
  6317 ;; Data sizes:     COMMON   BANK0   BANK1   BANK2   BANK3   BANK4   BANK5   BANK6   BANK7   BANK8   BANK9  BANK10  BANK1
      +1  BANK12
  6318 ;;      Params:         0       5       0       0       0       0       0       0       0       0       0       0       
      +0       0
  6319 ;;      Locals:         0       7       0       0       0       0       0       0       0       0       0       0       
      +0       0
  6320 ;;      Temps:          0       4       0       0       0       0       0       0       0       0       0       0       
      +0       0
  6321 ;;      Totals:         0      16       0       0       0       0       0       0       0       0       0       0       
      +0       0
  6322 ;;Total ram usage:       16 bytes
  6323 ;; Hardware stack levels used:    1
  6324 ;; Hardware stack levels required when called:    2
  6325 ;; This function calls:
  6326 ;;		_LCDWriteCharacter
  6327 ;;		___awdiv
  6328 ;;		___lwmod
  6329 ;; This function is called by:
  6330 ;;		_main
  6331 ;; This function uses a non-reentrant model
  6332 ;;
  6333                           
  6334                           
  6335                           ;psect for function _LCDWriteInt
  6336  04D1                     _LCDWriteInt:	
  6337                           
  6338                           ;lcd.c: 192: uint8_t str[5]={0,0,0,0,0};
  6339                           
  6340                           ;incstack = 0
  6341                           ; Regs used in _LCDWriteInt: [wreg-fsr1h+status,2+status,0+pclath+cstack]
  6342  04D1  30A8               	movlw	low LCDWriteInt@F14376
  6343  04D2  0086               	movwf	6
  6344  04D3  3000               	movlw	high LCDWriteInt@F14376
  6345  04D4  0087               	movwf	7
  6346  04D5  3029               	movlw	low LCDWriteInt@str
  6347  04D6  0084               	movwf	4
  6348  04D7  3000               	movlw	high LCDWriteInt@str
  6349  04D8  0085               	movwf	5
  6350  04D9  3005               	movlw	5
  6351  04DA  0020               	movlb	0	; select bank0
  6352  04DB  00A5               	movwf	??_LCDWriteInt
  6353  04DC                     u1160:	
  6354  04DC  0016               	moviw fsr1++
  6355  04DD  001A               	movwi fsr0++
  6356  04DE  0BA5               	decfsz	??_LCDWriteInt,f
  6357  04DF  2CDC               	goto	u1160
  6358                           
  6359                           ;lcd.c: 193: uint8_t i=4,j=0;
  6360  04E0  3004               	movlw	4
  6361  04E1  00A5               	movwf	??_LCDWriteInt
  6362  04E2  0825               	movf	??_LCDWriteInt,w
  6363  04E3  00AF               	movwf	LCDWriteInt@i
  6364  04E4  01AE               	clrf	LCDWriteInt@j
  6365                           
  6366                           ;lcd.c: 195: if(value<0)
  6367  04E5  1FA1               	btfss	LCDWriteInt@value+1,7
  6368  04E6  2CF2               	goto	l1493
  6369                           
  6370                           ;lcd.c: 196: {
  6371                           ;lcd.c: 197: LCDWriteCharacter('-');
  6372  04E7  302D               	movlw	45
  6373  04E8  3184  247D  3184   	fcall	_LCDWriteCharacter
  6374                           
  6375                           ;lcd.c: 198: value=value*-1;
  6376  04EB  0020               	movlb	0	; select bank0
  6377  04EC  09A0               	comf	LCDWriteInt@value,f
  6378  04ED  09A1               	comf	LCDWriteInt@value+1,f
  6379  04EE  0AA0               	incf	LCDWriteInt@value,f
  6380  04EF  1903               	skipnz
  6381  04F0  0AA1               	incf	LCDWriteInt@value+1,f
  6382                           
  6383                           ;lcd.c: 199: }
  6384  04F1  2CF9               	goto	l1503
  6385  04F2                     l1493:	
  6386                           
  6387                           ;lcd.c: 201: else
  6388                           ;lcd.c: 202: {
  6389                           ;lcd.c: 203: if(sign == 1)
  6390  04F2  0324               	decf	LCDWriteInt@sign,w
  6391  04F3  1D03               	btfss	3,2
  6392  04F4  2CF9               	goto	l1503
  6393                           
  6394                           ;lcd.c: 204: {
  6395                           ;lcd.c: 205: LCDWriteCharacter('+');
  6396  04F5  302B               	movlw	43
  6397  04F6  3184  247D  3184   	fcall	_LCDWriteCharacter
  6398  04F9                     l1503:	
  6399                           ;lcd.c: 206: }
  6400                           ;lcd.c: 207: }
  6401                           ;lcd.c: 209: while(value)
  6402                           
  6403  04F9  0020               	movlb	0	; select bank0
  6404  04FA  0820               	movf	LCDWriteInt@value,w
  6405  04FB  0421               	iorwf	LCDWriteInt@value+1,w
  6406  04FC  1903               	btfsc	3,2
  6407  04FD  2D26               	goto	l1505
  6408                           
  6409                           ;lcd.c: 210: {
  6410                           ;lcd.c: 211: str[i]=(uint16_t)value%10;
  6411  04FE  300A               	movlw	10
  6412  04FF  00F0               	movwf	___lwmod@divisor
  6413  0500  3000               	movlw	0
  6414  0501  00F1               	movwf	___lwmod@divisor+1
  6415  0502  0020               	movlb	0	; select bank0
  6416  0503  0821               	movf	LCDWriteInt@value+1,w
  6417  0504  00F3               	movwf	___lwmod@dividend+1
  6418  0505  0820               	movf	LCDWriteInt@value,w
  6419  0506  00F2               	movwf	___lwmod@dividend
  6420  0507  3183  233E  3184   	fcall	___lwmod
  6421  050A  0870               	movf	?___lwmod,w
  6422  050B  0020               	movlb	0	; select bank0
  6423  050C  00A5               	movwf	??_LCDWriteInt
  6424  050D  082F               	movf	LCDWriteInt@i,w
  6425  050E  3E29               	addlw	(low (LCDWriteInt@str| 0))& (0+255)
  6426  050F  0086               	movwf	6
  6427  0510  0187               	clrf	7
  6428  0511  0825               	movf	??_LCDWriteInt,w
  6429  0512  0081               	movwf	1
  6430                           
  6431                           ;lcd.c: 212: value=value/10;
  6432  0513  300A               	movlw	10
  6433  0514  00F0               	movwf	___awdiv@divisor
  6434  0515  3000               	movlw	0
  6435  0516  00F1               	movwf	___awdiv@divisor+1
  6436  0517  0821               	movf	LCDWriteInt@value+1,w
  6437  0518  00F3               	movwf	___awdiv@dividend+1
  6438  0519  0820               	movf	LCDWriteInt@value,w
  6439  051A  00F2               	movwf	___awdiv@dividend
  6440  051B  3183  23DA  3184   	fcall	___awdiv
  6441  051E  0871               	movf	?___awdiv+1,w
  6442  051F  0020               	movlb	0	; select bank0
  6443  0520  00A1               	movwf	LCDWriteInt@value+1
  6444  0521  0870               	movf	?___awdiv,w
  6445  0522  00A0               	movwf	LCDWriteInt@value
  6446                           
  6447                           ;lcd.c: 213: i--;
  6448  0523  3001               	movlw	1
  6449  0524  02AF               	subwf	LCDWriteInt@i,f
  6450  0525  2CF9               	goto	l1503
  6451  0526                     l1505:	
  6452                           
  6453                           ;lcd.c: 214: }
  6454                           ;lcd.c: 215: if(fieldLength==-1)
  6455  0526  0A22               	incf	LCDWriteInt@fieldLength,w
  6456  0527  1903               	btfsc	3,2
  6457  0528  2D2E               	goto	l1511
  6458  0529  2D36               	goto	l1513
  6459  052A                     l1509:	
  6460                           ;lcd.c: 216: {
  6461                           ;lcd.c: 217: while(str[j]==0)
  6462                           
  6463                           
  6464                           ;lcd.c: 218: {
  6465                           ;lcd.c: 219: j++;
  6466  052A  3001               	movlw	1
  6467  052B  00A5               	movwf	??_LCDWriteInt
  6468  052C  0825               	movf	??_LCDWriteInt,w
  6469  052D  07AE               	addwf	LCDWriteInt@j,f
  6470  052E                     l1511:	
  6471  052E  082E               	movf	LCDWriteInt@j,w
  6472  052F  3E29               	addlw	(low (LCDWriteInt@str| 0))& (0+255)
  6473  0530  0086               	movwf	6
  6474  0531  0187               	clrf	7
  6475  0532  0801               	movf	1,w
  6476  0533  1D03               	btfss	3,2
  6477  0534  2D3C               	goto	l1515
  6478  0535  2D2A               	goto	l1509
  6479  0536                     l1513:	
  6480                           ;lcd.c: 220: }
  6481                           ;lcd.c: 221: }
  6482                           
  6483                           
  6484                           ;lcd.c: 222: else
  6485                           ;lcd.c: 223: {
  6486                           ;lcd.c: 224: j=(uint8_t)(5-fieldLength);
  6487  0536  0322               	decf	LCDWriteInt@fieldLength,w
  6488  0537  3AFF               	xorlw	255
  6489  0538  3E05               	addlw	5
  6490  0539  00A5               	movwf	??_LCDWriteInt
  6491  053A  0825               	movf	??_LCDWriteInt,w
  6492  053B  00AE               	movwf	LCDWriteInt@j
  6493  053C                     l1515:	
  6494                           
  6495                           ;lcd.c: 225: }
  6496                           ;lcd.c: 227: for(i=j;i<(5-numPlaces);i++)
  6497  053C  082E               	movf	LCDWriteInt@j,w
  6498  053D  00A5               	movwf	??_LCDWriteInt
  6499  053E  0825               	movf	??_LCDWriteInt,w
  6500  053F  00AF               	movwf	LCDWriteInt@i
  6501  0540                     l1521:	
  6502  0540  0823               	movf	LCDWriteInt@numPlaces,w
  6503  0541  00A5               	movwf	??_LCDWriteInt
  6504  0542  01A6               	clrf	??_LCDWriteInt+1
  6505  0543  09A5               	comf	??_LCDWriteInt,f
  6506  0544  09A6               	comf	??_LCDWriteInt+1,f
  6507  0545  0AA5               	incf	??_LCDWriteInt,f
  6508  0546  1903               	skipnz
  6509  0547  0AA6               	incf	??_LCDWriteInt+1,f
  6510  0548  0825               	movf	??_LCDWriteInt,w
  6511  0549  3E05               	addlw	5
  6512  054A  00A7               	movwf	??_LCDWriteInt+2
  6513  054B  3000               	movlw	0
  6514  054C  3D26               	addwfc	??_LCDWriteInt+1,w
  6515  054D  00A8               	movwf	??_LCDWriteInt+3
  6516  054E  0828               	movf	??_LCDWriteInt+3,w
  6517  054F  3A80               	xorlw	128
  6518  0550  3C80               	sublw	128
  6519  0551  1D03               	skipz
  6520  0552  2D55               	goto	u1225
  6521  0553  0827               	movf	??_LCDWriteInt+2,w
  6522  0554  022F               	subwf	LCDWriteInt@i,w
  6523  0555                     u1225:	
  6524  0555  1803               	btfsc	3,0
  6525  0556  2D67               	goto	l1523
  6526                           
  6527                           ;lcd.c: 228: {
  6528                           ;lcd.c: 229: LCDWriteCharacter((uint8_t)(48+str[i]));
  6529  0557  0020               	movlb	0	; select bank0
  6530  0558  082F               	movf	LCDWriteInt@i,w
  6531  0559  3E29               	addlw	(low (LCDWriteInt@str| 0))& (0+255)
  6532  055A  0086               	movwf	6
  6533  055B  0187               	clrf	7
  6534  055C  0801               	movf	1,w
  6535  055D  3E30               	addlw	48
  6536  055E  3184  247D  3184   	fcall	_LCDWriteCharacter
  6537  0561  3001               	movlw	1
  6538  0562  0020               	movlb	0	; select bank0
  6539  0563  00A5               	movwf	??_LCDWriteInt
  6540  0564  0825               	movf	??_LCDWriteInt,w
  6541  0565  07AF               	addwf	LCDWriteInt@i,f
  6542  0566  2D40               	goto	l1521
  6543  0567                     l1523:	
  6544                           
  6545                           ;lcd.c: 230: }
  6546                           ;lcd.c: 232: if(numPlaces == 1)
  6547  0567  0020               	movlb	0	; select bank0
  6548  0568  0323               	decf	LCDWriteInt@numPlaces,w
  6549  0569  1D03               	btfss	3,2
  6550  056A  2D75               	goto	l1527
  6551                           
  6552                           ;lcd.c: 233: {
  6553                           ;lcd.c: 234: LCDWriteCharacter(46);
  6554  056B  302E               	movlw	46
  6555  056C  3184  247D  3184   	fcall	_LCDWriteCharacter
  6556                           
  6557                           ;lcd.c: 235: LCDWriteCharacter ((uint8_t)(48+str[4]));
  6558  056F  0020               	movlb	0	; select bank0
  6559  0570  082D               	movf	LCDWriteInt@str+4,w
  6560  0571  3E30               	addlw	48
  6561  0572  3184  247D  3184   	fcall	_LCDWriteCharacter
  6562  0575                     l1527:	
  6563                           
  6564                           ;lcd.c: 236: }
  6565                           ;lcd.c: 238: if(numPlaces == 2)
  6566  0575  3002               	movlw	2
  6567  0576  0020               	movlb	0	; select bank0
  6568  0577  0623               	xorwf	LCDWriteInt@numPlaces,w
  6569  0578  1D03               	btfss	3,2
  6570  0579  0008               	return
  6571                           
  6572                           ;lcd.c: 239: {
  6573                           ;lcd.c: 240: LCDWriteCharacter(46);
  6574  057A  302E               	movlw	46
  6575  057B  3184  247D  3184   	fcall	_LCDWriteCharacter
  6576                           
  6577                           ;lcd.c: 241: LCDWriteCharacter((uint8_t)(48+str[3]));
  6578  057E  0020               	movlb	0	; select bank0
  6579  057F  082C               	movf	LCDWriteInt@str+3,w
  6580  0580  3E30               	addlw	48
  6581  0581  3184  247D  3184   	fcall	_LCDWriteCharacter
  6582                           
  6583                           ;lcd.c: 242: LCDWriteCharacter((uint8_t)(48+str[4]));
  6584  0584  0020               	movlb	0	; select bank0
  6585  0585  082D               	movf	LCDWriteInt@str+4,w
  6586  0586  3E30               	addlw	48
  6587  0587  3184  247D         	fcall	_LCDWriteCharacter
  6588  0589  0008               	return
  6589  058A                     __end_of_LCDWriteInt:	
  6590                           
  6591                           	psect	text15
  6592  033E                     __ptext15:	
  6593 ;; *************** function ___lwmod *****************
  6594 ;; Defined at:
  6595 ;;		line 6 in file "C:\Program Files (x86)\Microchip\xc8\v1.45\sources\common\lwmod.c"
  6596 ;; Parameters:    Size  Location     Type
  6597 ;;  divisor         2    0[COMMON] unsigned int 
  6598 ;;  dividend        2    2[COMMON] unsigned int 
  6599 ;; Auto vars:     Size  Location     Type
  6600 ;;  counter         1    5[COMMON] unsigned char 
  6601 ;; Return value:  Size  Location     Type
  6602 ;;                  2    0[COMMON] unsigned int 
  6603 ;; Registers used:
  6604 ;;		wreg, status,2, status,0
  6605 ;; Tracked objects:
  6606 ;;		On entry : 0/0
  6607 ;;		On exit  : 0/0
  6608 ;;		Unchanged: 0/0
  6609 ;; Data sizes:     COMMON   BANK0   BANK1   BANK2   BANK3   BANK4   BANK5   BANK6   BANK7   BANK8   BANK9  BANK10  BANK1
      +1  BANK12
  6610 ;;      Params:         4       0       0       0       0       0       0       0       0       0       0       0       
      +0       0
  6611 ;;      Locals:         1       0       0       0       0       0       0       0       0       0       0       0       
      +0       0
  6612 ;;      Temps:          1       0       0       0       0       0       0       0       0       0       0       0       
      +0       0
  6613 ;;      Totals:         6       0       0       0       0       0       0       0       0       0       0       0       
      +0       0
  6614 ;;Total ram usage:        6 bytes
  6615 ;; Hardware stack levels used:    1
  6616 ;; This function calls:
  6617 ;;		Nothing
  6618 ;; This function is called by:
  6619 ;;		_LCDWriteInt
  6620 ;; This function uses a non-reentrant model
  6621 ;;
  6622                           
  6623                           
  6624                           ;psect for function ___lwmod
  6625  033E                     ___lwmod:	
  6626                           
  6627                           ;incstack = 0
  6628                           ; Regs used in ___lwmod: [wreg+status,2+status,0]
  6629  033E  0870               	movf	___lwmod@divisor,w
  6630  033F  0471               	iorwf	___lwmod@divisor+1,w
  6631  0340  1903               	btfsc	3,2
  6632  0341  2B65               	goto	l1443
  6633  0342  01F5               	clrf	___lwmod@counter
  6634  0343  0AF5               	incf	___lwmod@counter,f
  6635  0344                     l1433:	
  6636  0344  1BF1               	btfsc	___lwmod@divisor+1,7
  6637  0345  2B50               	goto	l1435
  6638  0346  3001               	movlw	1
  6639  0347                     u1045:	
  6640  0347  35F0               	lslf	___lwmod@divisor,f
  6641  0348  0DF1               	rlf	___lwmod@divisor+1,f
  6642  0349  0B89               	decfsz	9,f
  6643  034A  2B47               	goto	u1045
  6644  034B  3001               	movlw	1
  6645  034C  00F4               	movwf	??___lwmod
  6646  034D  0874               	movf	??___lwmod,w
  6647  034E  07F5               	addwf	___lwmod@counter,f
  6648  034F  2B44               	goto	l1433
  6649  0350                     l1435:	
  6650  0350  0871               	movf	___lwmod@divisor+1,w
  6651  0351  0273               	subwf	___lwmod@dividend+1,w
  6652  0352  1D03               	skipz
  6653  0353  2B56               	goto	u1065
  6654  0354  0870               	movf	___lwmod@divisor,w
  6655  0355  0272               	subwf	___lwmod@dividend,w
  6656  0356                     u1065:	
  6657  0356  1C03               	skipc
  6658  0357  2B5C               	goto	l1439
  6659  0358  0870               	movf	___lwmod@divisor,w
  6660  0359  02F2               	subwf	___lwmod@dividend,f
  6661  035A  0871               	movf	___lwmod@divisor+1,w
  6662  035B  3BF3               	subwfb	___lwmod@dividend+1,f
  6663  035C                     l1439:	
  6664  035C  3001               	movlw	1
  6665  035D                     u1075:	
  6666  035D  36F1               	lsrf	___lwmod@divisor+1,f
  6667  035E  0CF0               	rrf	___lwmod@divisor,f
  6668  035F  0B89               	decfsz	9,f
  6669  0360  2B5D               	goto	u1075
  6670  0361  3001               	movlw	1
  6671  0362  02F5               	subwf	___lwmod@counter,f
  6672  0363  1D03               	btfss	3,2
  6673  0364  2B50               	goto	l1435
  6674  0365                     l1443:	
  6675  0365  0873               	movf	___lwmod@dividend+1,w
  6676  0366  00F1               	movwf	?___lwmod+1
  6677  0367  0872               	movf	___lwmod@dividend,w
  6678  0368  00F0               	movwf	?___lwmod
  6679  0369  0008               	return
  6680  036A                     __end_of___lwmod:	
  6681                           
  6682                           	psect	text16
  6683  03DA                     __ptext16:	
  6684 ;; *************** function ___awdiv *****************
  6685 ;; Defined at:
  6686 ;;		line 6 in file "C:\Program Files (x86)\Microchip\xc8\v1.45\sources\common\awdiv.c"
  6687 ;; Parameters:    Size  Location     Type
  6688 ;;  divisor         2    0[COMMON] int 
  6689 ;;  dividend        2    2[COMMON] int 
  6690 ;; Auto vars:     Size  Location     Type
  6691 ;;  quotient        2    7[COMMON] int 
  6692 ;;  sign            1    6[COMMON] unsigned char 
  6693 ;;  counter         1    5[COMMON] unsigned char 
  6694 ;; Return value:  Size  Location     Type
  6695 ;;                  2    0[COMMON] int 
  6696 ;; Registers used:
  6697 ;;		wreg, status,2, status,0
  6698 ;; Tracked objects:
  6699 ;;		On entry : 0/0
  6700 ;;		On exit  : 0/0
  6701 ;;		Unchanged: 0/0
  6702 ;; Data sizes:     COMMON   BANK0   BANK1   BANK2   BANK3   BANK4   BANK5   BANK6   BANK7   BANK8   BANK9  BANK10  BANK1
      +1  BANK12
  6703 ;;      Params:         4       0       0       0       0       0       0       0       0       0       0       0       
      +0       0
  6704 ;;      Locals:         4       0       0       0       0       0       0       0       0       0       0       0       
      +0       0
  6705 ;;      Temps:          1       0       0       0       0       0       0       0       0       0       0       0       
      +0       0
  6706 ;;      Totals:         9       0       0       0       0       0       0       0       0       0       0       0       
      +0       0
  6707 ;;Total ram usage:        9 bytes
  6708 ;; Hardware stack levels used:    1
  6709 ;; This function calls:
  6710 ;;		Nothing
  6711 ;; This function is called by:
  6712 ;;		_LCDWriteInt
  6713 ;; This function uses a non-reentrant model
  6714 ;;
  6715                           
  6716                           
  6717                           ;psect for function ___awdiv
  6718  03DA                     ___awdiv:	
  6719                           
  6720                           ;incstack = 0
  6721                           ; Regs used in ___awdiv: [wreg+status,2+status,0]
  6722  03DA  01F6               	clrf	___awdiv@sign
  6723  03DB  1FF1               	btfss	___awdiv@divisor+1,7
  6724  03DC  2BE4               	goto	l1365
  6725  03DD  09F0               	comf	___awdiv@divisor,f
  6726  03DE  09F1               	comf	___awdiv@divisor+1,f
  6727  03DF  0AF0               	incf	___awdiv@divisor,f
  6728  03E0  1903               	skipnz
  6729  03E1  0AF1               	incf	___awdiv@divisor+1,f
  6730  03E2  01F6               	clrf	___awdiv@sign
  6731  03E3  0AF6               	incf	___awdiv@sign,f
  6732  03E4                     l1365:	
  6733  03E4  1FF3               	btfss	___awdiv@dividend+1,7
  6734  03E5  2BEF               	goto	l1371
  6735  03E6  09F2               	comf	___awdiv@dividend,f
  6736  03E7  09F3               	comf	___awdiv@dividend+1,f
  6737  03E8  0AF2               	incf	___awdiv@dividend,f
  6738  03E9  1903               	skipnz
  6739  03EA  0AF3               	incf	___awdiv@dividend+1,f
  6740  03EB  3001               	movlw	1
  6741  03EC  00F4               	movwf	??___awdiv
  6742  03ED  0874               	movf	??___awdiv,w
  6743  03EE  06F6               	xorwf	___awdiv@sign,f
  6744  03EF                     l1371:	
  6745  03EF  01F7               	clrf	___awdiv@quotient
  6746  03F0  01F8               	clrf	___awdiv@quotient+1
  6747  03F1  0870               	movf	___awdiv@divisor,w
  6748  03F2  0471               	iorwf	___awdiv@divisor+1,w
  6749  03F3  1903               	btfsc	3,2
  6750  03F4  2C1E               	goto	l1393
  6751  03F5  01F5               	clrf	___awdiv@counter
  6752  03F6  0AF5               	incf	___awdiv@counter,f
  6753  03F7                     l1381:	
  6754  03F7  1BF1               	btfsc	___awdiv@divisor+1,7
  6755  03F8  2C03               	goto	l1383
  6756  03F9  3001               	movlw	1
  6757  03FA                     u895:	
  6758  03FA  35F0               	lslf	___awdiv@divisor,f
  6759  03FB  0DF1               	rlf	___awdiv@divisor+1,f
  6760  03FC  0B89               	decfsz	9,f
  6761  03FD  2BFA               	goto	u895
  6762  03FE  3001               	movlw	1
  6763  03FF  00F4               	movwf	??___awdiv
  6764  0400  0874               	movf	??___awdiv,w
  6765  0401  07F5               	addwf	___awdiv@counter,f
  6766  0402  2BF7               	goto	l1381
  6767  0403                     l1383:	
  6768  0403  3001               	movlw	1
  6769  0404                     u915:	
  6770  0404  35F7               	lslf	___awdiv@quotient,f
  6771  0405  0DF8               	rlf	___awdiv@quotient+1,f
  6772  0406  0B89               	decfsz	9,f
  6773  0407  2C04               	goto	u915
  6774  0408  0871               	movf	___awdiv@divisor+1,w
  6775  0409  0273               	subwf	___awdiv@dividend+1,w
  6776  040A  1D03               	skipz
  6777  040B  2C0E               	goto	u925
  6778  040C  0870               	movf	___awdiv@divisor,w
  6779  040D  0272               	subwf	___awdiv@dividend,w
  6780  040E                     u925:	
  6781  040E  1C03               	skipc
  6782  040F  2C15               	goto	l1389
  6783  0410  0870               	movf	___awdiv@divisor,w
  6784  0411  02F2               	subwf	___awdiv@dividend,f
  6785  0412  0871               	movf	___awdiv@divisor+1,w
  6786  0413  3BF3               	subwfb	___awdiv@dividend+1,f
  6787  0414  1477               	bsf	___awdiv@quotient,0
  6788  0415                     l1389:	
  6789  0415  3001               	movlw	1
  6790  0416                     u935:	
  6791  0416  36F1               	lsrf	___awdiv@divisor+1,f
  6792  0417  0CF0               	rrf	___awdiv@divisor,f
  6793  0418  0B89               	decfsz	9,f
  6794  0419  2C16               	goto	u935
  6795  041A  3001               	movlw	1
  6796  041B  02F5               	subwf	___awdiv@counter,f
  6797  041C  1D03               	btfss	3,2
  6798  041D  2C03               	goto	l1383
  6799  041E                     l1393:	
  6800  041E  0876               	movf	___awdiv@sign,w
  6801  041F  1903               	btfsc	3,2
  6802  0420  2C26               	goto	l1397
  6803  0421  09F7               	comf	___awdiv@quotient,f
  6804  0422  09F8               	comf	___awdiv@quotient+1,f
  6805  0423  0AF7               	incf	___awdiv@quotient,f
  6806  0424  1903               	skipnz
  6807  0425  0AF8               	incf	___awdiv@quotient+1,f
  6808  0426                     l1397:	
  6809  0426  0878               	movf	___awdiv@quotient+1,w
  6810  0427  00F1               	movwf	?___awdiv+1
  6811  0428  0877               	movf	___awdiv@quotient,w
  6812  0429  00F0               	movwf	?___awdiv
  6813  042A  0008               	return
  6814  042B                     __end_of___awdiv:	
  6815                           
  6816                           	psect	text17
  6817  047D                     __ptext17:	
  6818 ;; *************** function _LCDWriteCharacter *****************
  6819 ;; Defined at:
  6820 ;;		line 140 in file "lcd.c"
  6821 ;; Parameters:    Size  Location     Type
  6822 ;;  character       1    wreg     const unsigned char 
  6823 ;; Auto vars:     Size  Location     Type
  6824 ;;  character       1    9[COMMON] const unsigned char 
  6825 ;;  base            2   10[COMMON] unsigned int 
  6826 ;; Return value:  Size  Location     Type
  6827 ;;                  1    wreg      void 
  6828 ;; Registers used:
  6829 ;;		wreg, fsr0l, fsr0h, status,2, status,0, pclath, cstack
  6830 ;; Tracked objects:
  6831 ;;		On entry : 0/0
  6832 ;;		On exit  : 0/0
  6833 ;;		Unchanged: 0/0
  6834 ;; Data sizes:     COMMON   BANK0   BANK1   BANK2   BANK3   BANK4   BANK5   BANK6   BANK7   BANK8   BANK9  BANK10  BANK1
      +1  BANK12
  6835 ;;      Params:         0       0       0       0       0       0       0       0       0       0       0       0       
      +0       0
  6836 ;;      Locals:         3       0       0       0       0       0       0       0       0       0       0       0       
      +0       0
  6837 ;;      Temps:          3       0       0       0       0       0       0       0       0       0       0       0       
      +0       0
  6838 ;;      Totals:         6       0       0       0       0       0       0       0       0       0       0       0       
      +0       0
  6839 ;;Total ram usage:        6 bytes
  6840 ;; Hardware stack levels used:    1
  6841 ;; Hardware stack levels required when called:    1
  6842 ;; This function calls:
  6843 ;;		_LCDWrite
  6844 ;;		___wmul
  6845 ;; This function is called by:
  6846 ;;		_LCDWriteInt
  6847 ;;		_LCDWriteString
  6848 ;; This function uses a non-reentrant model
  6849 ;;
  6850                           
  6851                           
  6852                           ;psect for function _LCDWriteCharacter
  6853  047D                     _LCDWriteCharacter:	
  6854                           
  6855                           ;incstack = 0
  6856                           ; Regs used in _LCDWriteCharacter: [wreg-fsr0h+status,2+status,0+pclath+cstack]
  6857                           ;LCDWriteCharacter@character stored from wreg
  6858  047D  00F9               	movwf	LCDWriteCharacter@character
  6859                           
  6860                           ;lcd.c: 142: uint16_t base;
  6861                           ;lcd.c: 143: base = character - 0x20;
  6862  047E  0879               	movf	LCDWriteCharacter@character,w
  6863  047F  3EE0               	addlw	224
  6864  0480  00FA               	movwf	LCDWriteCharacter@base
  6865  0481  30FF               	movlw	255
  6866  0482  1803               	skipnc
  6867  0483  3000               	movlw	0
  6868  0484  00FB               	movwf	LCDWriteCharacter@base+1
  6869                           
  6870                           ;lcd.c: 144: base *= 3;
  6871  0485  3003               	movlw	3
  6872  0486  00F0               	movwf	___wmul@multiplier
  6873  0487  3000               	movlw	0
  6874  0488  00F1               	movwf	___wmul@multiplier+1
  6875  0489  087B               	movf	LCDWriteCharacter@base+1,w
  6876  048A  00F3               	movwf	___wmul@multiplicand+1
  6877  048B  087A               	movf	LCDWriteCharacter@base,w
  6878  048C  00F2               	movwf	___wmul@multiplicand
  6879  048D  3182  22B0  3184   	fcall	___wmul
  6880  0490  0871               	movf	?___wmul+1,w
  6881  0491  00FB               	movwf	LCDWriteCharacter@base+1
  6882  0492  0870               	movf	?___wmul,w
  6883  0493  00FA               	movwf	LCDWriteCharacter@base
  6884                           
  6885                           ;lcd.c: 145: LCDWrite(1,fonts[base]);
  6886  0494  087B               	movf	LCDWriteCharacter@base+1,w
  6887  0495  0085               	movwf	5
  6888  0496  087A               	movf	LCDWriteCharacter@base,w
  6889  0497  0084               	movwf	4
  6890  0498  3000               	movlw	low (_fonts| (0+32768))
  6891  0499  0784               	addwf	4,f
  6892  049A  3088               	movlw	high (_fonts| (0+32768))
  6893  049B  3D85               	addwfc	5,f
  6894  049C  0800               	movf	0,w	;code access
  6895  049D  00F6               	movwf	??_LCDWriteCharacter
  6896  049E  0876               	movf	??_LCDWriteCharacter,w
  6897  049F  00F0               	movwf	LCDWrite@data
  6898  04A0  3001               	movlw	1
  6899  04A1  3182  22CB  3184   	fcall	_LCDWrite
  6900                           
  6901                           ;lcd.c: 146: LCDWrite(1,fonts[base + 1]);
  6902  04A4  087A               	movf	LCDWriteCharacter@base,w
  6903  04A5  3E01               	addlw	1
  6904  04A6  00F6               	movwf	??_LCDWriteCharacter
  6905  04A7  3000               	movlw	0
  6906  04A8  3D7B               	addwfc	LCDWriteCharacter@base+1,w
  6907  04A9  00F7               	movwf	??_LCDWriteCharacter+1
  6908  04AA  3000               	movlw	low (_fonts| (0+32768))
  6909  04AB  0776               	addwf	??_LCDWriteCharacter,w
  6910  04AC  0084               	movwf	4
  6911  04AD  3088               	movlw	high (_fonts| (0+32768))
  6912  04AE  3D77               	addwfc	??_LCDWriteCharacter+1,w
  6913  04AF  0085               	movwf	5
  6914  04B0  0800               	movf	0,w	;code access
  6915  04B1  00F8               	movwf	??_LCDWriteCharacter+2
  6916  04B2  0878               	movf	??_LCDWriteCharacter+2,w
  6917  04B3  00F0               	movwf	LCDWrite@data
  6918  04B4  3001               	movlw	1
  6919  04B5  3182  22CB  3184   	fcall	_LCDWrite
  6920                           
  6921                           ;lcd.c: 147: LCDWrite(1,fonts[base + 2]);
  6922  04B8  087A               	movf	LCDWriteCharacter@base,w
  6923  04B9  3E02               	addlw	2
  6924  04BA  00F6               	movwf	??_LCDWriteCharacter
  6925  04BB  3000               	movlw	0
  6926  04BC  3D7B               	addwfc	LCDWriteCharacter@base+1,w
  6927  04BD  00F7               	movwf	??_LCDWriteCharacter+1
  6928  04BE  3000               	movlw	low (_fonts| (0+32768))
  6929  04BF  0776               	addwf	??_LCDWriteCharacter,w
  6930  04C0  0084               	movwf	4
  6931  04C1  3088               	movlw	high (_fonts| (0+32768))
  6932  04C2  3D77               	addwfc	??_LCDWriteCharacter+1,w
  6933  04C3  0085               	movwf	5
  6934  04C4  0800               	movf	0,w	;code access
  6935  04C5  00F8               	movwf	??_LCDWriteCharacter+2
  6936  04C6  0878               	movf	??_LCDWriteCharacter+2,w
  6937  04C7  00F0               	movwf	LCDWrite@data
  6938  04C8  3001               	movlw	1
  6939  04C9  3182  22CB  3184   	fcall	_LCDWrite
  6940                           
  6941                           ;lcd.c: 148: LCDWrite(1, 0x00);
  6942  04CC  01F0               	clrf	LCDWrite@data
  6943  04CD  3001               	movlw	1
  6944  04CE  3182  22CB         	fcall	_LCDWrite
  6945  04D0  0008               	return
  6946  04D1                     __end_of_LCDWriteCharacter:	
  6947                           
  6948                           	psect	text18
  6949  02B0                     __ptext18:	
  6950 ;; *************** function ___wmul *****************
  6951 ;; Defined at:
  6952 ;;		line 15 in file "C:\Program Files (x86)\Microchip\xc8\v1.45\sources\common\Umul16.c"
  6953 ;; Parameters:    Size  Location     Type
  6954 ;;  multiplier      2    0[COMMON] unsigned int 
  6955 ;;  multiplicand    2    2[COMMON] unsigned int 
  6956 ;; Auto vars:     Size  Location     Type
  6957 ;;  product         2    4[COMMON] unsigned int 
  6958 ;; Return value:  Size  Location     Type
  6959 ;;                  2    0[COMMON] unsigned int 
  6960 ;; Registers used:
  6961 ;;		wreg, status,2, status,0
  6962 ;; Tracked objects:
  6963 ;;		On entry : 0/0
  6964 ;;		On exit  : 0/0
  6965 ;;		Unchanged: 0/0
  6966 ;; Data sizes:     COMMON   BANK0   BANK1   BANK2   BANK3   BANK4   BANK5   BANK6   BANK7   BANK8   BANK9  BANK10  BANK1
      +1  BANK12
  6967 ;;      Params:         4       0       0       0       0       0       0       0       0       0       0       0       
      +0       0
  6968 ;;      Locals:         2       0       0       0       0       0       0       0       0       0       0       0       
      +0       0
  6969 ;;      Temps:          0       0       0       0       0       0       0       0       0       0       0       0       
      +0       0
  6970 ;;      Totals:         6       0       0       0       0       0       0       0       0       0       0       0       
      +0       0
  6971 ;;Total ram usage:        6 bytes
  6972 ;; Hardware stack levels used:    1
  6973 ;; This function calls:
  6974 ;;		Nothing
  6975 ;; This function is called by:
  6976 ;;		_readAnalog
  6977 ;;		_LCDWriteCharacter
  6978 ;;		_main
  6979 ;; This function uses a non-reentrant model
  6980 ;;
  6981                           
  6982                           
  6983                           ;psect for function ___wmul
  6984  02B0                     ___wmul:	
  6985                           
  6986                           ;incstack = 0
  6987                           ; Regs used in ___wmul: [wreg+status,2+status,0]
  6988  02B0  01F4               	clrf	___wmul@product
  6989  02B1  01F5               	clrf	___wmul@product+1
  6990  02B2                     l1229:	
  6991  02B2  1C70               	btfss	___wmul@multiplier,0
  6992  02B3  2AB8               	goto	l361
  6993  02B4  0872               	movf	___wmul@multiplicand,w
  6994  02B5  07F4               	addwf	___wmul@product,f
  6995  02B6  0873               	movf	___wmul@multiplicand+1,w
  6996  02B7  3DF5               	addwfc	___wmul@product+1,f
  6997  02B8                     l361:	
  6998  02B8  3001               	movlw	1
  6999  02B9                     u785:	
  7000  02B9  35F2               	lslf	___wmul@multiplicand,f
  7001  02BA  0DF3               	rlf	___wmul@multiplicand+1,f
  7002  02BB  0B89               	decfsz	9,f
  7003  02BC  2AB9               	goto	u785
  7004  02BD  3001               	movlw	1
  7005  02BE                     u795:	
  7006  02BE  36F1               	lsrf	___wmul@multiplier+1,f
  7007  02BF  0CF0               	rrf	___wmul@multiplier,f
  7008  02C0  0B89               	decfsz	9,f
  7009  02C1  2ABE               	goto	u795
  7010  02C2  0870               	movf	___wmul@multiplier,w
  7011  02C3  0471               	iorwf	___wmul@multiplier+1,w
  7012  02C4  1D03               	btfss	3,2
  7013  02C5  2AB2               	goto	l1229
  7014  02C6  0875               	movf	___wmul@product+1,w
  7015  02C7  00F1               	movwf	?___wmul+1
  7016  02C8  0874               	movf	___wmul@product,w
  7017  02C9  00F0               	movwf	?___wmul
  7018  02CA  0008               	return
  7019  02CB                     __end_of___wmul:	
  7020                           
  7021                           	psect	text19
  7022  02CB                     __ptext19:	
  7023 ;; *************** function _LCDWrite *****************
  7024 ;; Defined at:
  7025 ;;		line 280 in file "lcd.c"
  7026 ;; Parameters:    Size  Location     Type
  7027 ;;  data_or_comm    1    wreg     unsigned char 
  7028 ;;  data            1    0[COMMON] unsigned char 
  7029 ;; Auto vars:     Size  Location     Type
  7030 ;;  data_or_comm    1    2[COMMON] unsigned char 
  7031 ;;  i               1    4[COMMON] unsigned char 
  7032 ;;  d               1    3[COMMON] unsigned char 
  7033 ;; Return value:  Size  Location     Type
  7034 ;;                  1    wreg      void 
  7035 ;; Registers used:
  7036 ;;		wreg, status,2, status,0
  7037 ;; Tracked objects:
  7038 ;;		On entry : 0/0
  7039 ;;		On exit  : 0/0
  7040 ;;		Unchanged: 0/0
  7041 ;; Data sizes:     COMMON   BANK0   BANK1   BANK2   BANK3   BANK4   BANK5   BANK6   BANK7   BANK8   BANK9  BANK10  BANK1
      +1  BANK12
  7042 ;;      Params:         1       0       0       0       0       0       0       0       0       0       0       0       
      +0       0
  7043 ;;      Locals:         3       0       0       0       0       0       0       0       0       0       0       0       
      +0       0
  7044 ;;      Temps:          1       0       0       0       0       0       0       0       0       0       0       0       
      +0       0
  7045 ;;      Totals:         5       0       0       0       0       0       0       0       0       0       0       0       
      +0       0
  7046 ;;Total ram usage:        5 bytes
  7047 ;; Hardware stack levels used:    1
  7048 ;; This function calls:
  7049 ;;		Nothing
  7050 ;; This function is called by:
  7051 ;;		_gotoXY
  7052 ;;		_LCDWriteCharacter
  7053 ;;		_LCDClear
  7054 ;;		_LCDInit
  7055 ;;		_LCDBitmap
  7056 ;;		_LCDDrawBox
  7057 ;; This function uses a non-reentrant model
  7058 ;;
  7059                           
  7060                           
  7061                           ;psect for function _LCDWrite
  7062  02CB                     _LCDWrite:	
  7063                           
  7064                           ;incstack = 0
  7065                           ; Regs used in _LCDWrite: [wreg+status,2+status,0]
  7066                           ;LCDWrite@data_or_command stored from wreg
  7067  02CB  00F2               	movwf	LCDWrite@data_or_command
  7068                           
  7069                           ;lcd.c: 282: uint8_t i,d;
  7070                           ;lcd.c: 284: d=data;
  7071  02CC  0870               	movf	LCDWrite@data,w
  7072  02CD  00F1               	movwf	??_LCDWrite
  7073  02CE  0871               	movf	??_LCDWrite,w
  7074  02CF  00F3               	movwf	LCDWrite@d
  7075                           
  7076                           ;lcd.c: 286: if(data_or_command == 0)
  7077  02D0  0872               	movf	LCDWrite@data_or_command,w
  7078  02D1  1D03               	btfss	3,2
  7079  02D2  2AD6               	goto	l158
  7080                           
  7081                           ;lcd.c: 287: {
  7082                           ;lcd.c: 288: LATAbits.LATA2 = 0;
  7083  02D3  0020               	movlb	0	; select bank0
  7084  02D4  1116               	bcf	22,2	;volatile
  7085                           
  7086                           ;lcd.c: 289: }
  7087  02D5  2AD8               	goto	l159
  7088  02D6                     l158:	
  7089                           
  7090                           ;lcd.c: 290: else
  7091                           ;lcd.c: 291: {
  7092                           ;lcd.c: 292: LATAbits.LATA2 = 1;
  7093  02D6  0020               	movlb	0	; select bank0
  7094  02D7  1516               	bsf	22,2	;volatile
  7095  02D8                     l159:	
  7096                           
  7097                           ;lcd.c: 293: }
  7098                           ;lcd.c: 295: LATAbits.LATA1 = 0;
  7099  02D8  1096               	bcf	22,1	;volatile
  7100                           
  7101                           ;lcd.c: 297: for(i=0;i<8;i++)
  7102  02D9  01F4               	clrf	LCDWrite@i
  7103  02DA  3008               	movlw	8
  7104  02DB  0274               	subwf	LCDWrite@i,w
  7105  02DC  1803               	btfsc	3,0
  7106  02DD  2AEE               	goto	l161
  7107  02DE                     l160:	
  7108                           
  7109                           ;lcd.c: 298: {
  7110                           ;lcd.c: 299: LATAbits.LATA3 = 0;
  7111  02DE  1196               	bcf	22,3	;volatile
  7112                           
  7113                           ;lcd.c: 301: if(d&0x80)
  7114  02DF  1FF3               	btfss	LCDWrite@d,7
  7115  02E0  2AE2               	goto	l162
  7116                           
  7117                           ;lcd.c: 302: {
  7118                           ;lcd.c: 303: LATAbits.LATA3 = 1;
  7119  02E1  1596               	bsf	22,3	;volatile
  7120  02E2                     l162:	
  7121                           
  7122                           ;lcd.c: 304: }
  7123                           ;lcd.c: 306: LATAbits.LATA4 = 1;
  7124  02E2  1616               	bsf	22,4	;volatile
  7125                           
  7126                           ;lcd.c: 308: d<<=1;
  7127  02E3  1003               	clrc
  7128  02E4  0DF3               	rlf	LCDWrite@d,f
  7129                           
  7130                           ;lcd.c: 310: LATAbits.LATA4=0;
  7131  02E5  1216               	bcf	22,4	;volatile
  7132  02E6  3001               	movlw	1
  7133  02E7  00F1               	movwf	??_LCDWrite
  7134  02E8  0871               	movf	??_LCDWrite,w
  7135  02E9  07F4               	addwf	LCDWrite@i,f
  7136  02EA  3008               	movlw	8
  7137  02EB  0274               	subwf	LCDWrite@i,w
  7138  02EC  1C03               	skipc
  7139  02ED  2ADE               	goto	l160
  7140  02EE                     l161:	
  7141                           
  7142                           ;lcd.c: 311: }
  7143                           ;lcd.c: 313: LATAbits.LATA1 = 1;
  7144  02EE  1496               	bsf	22,1	;volatile
  7145  02EF  0008               	return
  7146  02F0                     __end_of_LCDWrite:	
  7147  007E                     btemp	set	126	;btemp
  7148  007E                     wtemp0	set	126


Data Sizes:
    Strings     0
    Constant    303
    Data        4
    BSS         32
    Persistent  0
    Stack       0

Auto Spaces:
    Space          Size  Autos    Used
    COMMON           14     14      14
    BANK0            80     53      76
    BANK1            80      0      13
    BANK2            80      0       0
    BANK3            80      0       0
    BANK4            80      0       0
    BANK5            80      0       0
    BANK6            80      0       0
    BANK7            48      0       0
    BANK8             0      0       0
    BANK9             0      0       0
    BANK10            0      0       0
    BANK11            0      0       0
    BANK12            0      0       0

Pointer List with Targets:

    None.

Critical Paths under _main in COMMON

    _readAnalog->___lldiv
    _SYSTEM_Initialize->_LCDClear
    _LCDInit->_LCDWrite
    _LCDClear->_gotoXY
    _gotoXY->_LCDWrite
    _LCDWriteInt->_LCDWriteCharacter
    _LCDWriteCharacter->___wmul

Critical Paths under _main in BANK0

    _main->_readAnalog

Critical Paths under _main in BANK1

    None.

Critical Paths under _main in BANK2

    None.

Critical Paths under _main in BANK3

    None.

Critical Paths under _main in BANK4

    None.

Critical Paths under _main in BANK5

    None.

Critical Paths under _main in BANK6

    None.

Critical Paths under _main in BANK7

    None.

Critical Paths under _main in BANK8

    None.

Critical Paths under _main in BANK9

    None.

Critical Paths under _main in BANK10

    None.

Critical Paths under _main in BANK11

    None.

Critical Paths under _main in BANK12

    None.

Call Graph Tables:

 ---------------------------------------------------------------------------------
 (Depth) Function   	        Calls       Base Space   Used Autos Params    Refs
 ---------------------------------------------------------------------------------
 (0) _main                                                27    27      0   12395
                                             26 BANK0     27    27      0
                        _LCDWriteInt
                 _PWM7_LoadDutyValue
                  _SYSTEM_Initialize
                             ___wmul
                             _gotoXY
                         _readAnalog
 ---------------------------------------------------------------------------------
 (1) _readAnalog                                          26    24      2    1307
                                              0 BANK0     26    24      2
                            _ADCRead
                            ___lldiv
                             ___wmul
 ---------------------------------------------------------------------------------
 (2) ___lldiv                                             14     6      8     268
                                              0 COMMON    14     6      8
 ---------------------------------------------------------------------------------
 (2) _ADCRead                                              4     1      3      22
                                              0 COMMON     4     1      3
 ---------------------------------------------------------------------------------
 (1) _SYSTEM_Initialize                                    1     1      0    3900
                                             11 COMMON     1     1      0
                     _ADC_Initialize
                           _LCDClear
                            _LCDInit
              _OSCILLATOR_Initialize
             _PIN_MANAGER_Initialize
                     _PWM_Initialize
                    _TMR2_Initialize
 ---------------------------------------------------------------------------------
 (2) _TMR2_Initialize                                      0     0      0       0
 ---------------------------------------------------------------------------------
 (2) _PWM_Initialize                                       0     0      0       0
 ---------------------------------------------------------------------------------
 (2) _PIN_MANAGER_Initialize                               1     1      0      23
                                              0 COMMON     1     1      0
 ---------------------------------------------------------------------------------
 (2) _OSCILLATOR_Initialize                                0     0      0       0
 ---------------------------------------------------------------------------------
 (2) _LCDInit                                              1     1      0    1068
                                              5 COMMON     1     1      0
                           _LCDWrite
 ---------------------------------------------------------------------------------
 (2) _LCDClear                                             3     3      0    2809
                                              8 COMMON     3     3      0
                           _LCDWrite
                             _gotoXY
 ---------------------------------------------------------------------------------
 (1) _gotoXY                                               3     2      1    1695
                                              5 COMMON     3     2      1
                           _LCDWrite
 ---------------------------------------------------------------------------------
 (2) _ADC_Initialize                                       0     0      0       0
 ---------------------------------------------------------------------------------
 (1) _PWM7_LoadDutyValue                                   4     2      2      97
                                              0 COMMON     4     2      2
 ---------------------------------------------------------------------------------
 (1) _LCDWriteInt                                         16    11      5    4140
                                              0 BANK0     16    11      5
                  _LCDWriteCharacter
                            ___awdiv
                            ___lwmod
 ---------------------------------------------------------------------------------
 (2) ___lwmod                                              6     2      4     265
                                              0 COMMON     6     2      4
 ---------------------------------------------------------------------------------
 (2) ___awdiv                                              9     5      4     406
                                              0 COMMON     9     5      4
 ---------------------------------------------------------------------------------
 (2) _LCDWriteCharacter                                    6     6      0    1908
                                              6 COMMON     6     6      0
                           _LCDWrite
                             ___wmul
 ---------------------------------------------------------------------------------
 (2) ___wmul                                               6     2      4     728
                                              0 COMMON     6     2      4
 ---------------------------------------------------------------------------------
 (2) _LCDWrite                                             5     4      1    1068
                                              0 COMMON     5     4      1
 ---------------------------------------------------------------------------------
 Estimated maximum stack depth 2
 ---------------------------------------------------------------------------------

 Call Graph Graphs:

 _main (ROOT)
   _LCDWriteInt
     _LCDWriteCharacter
       _LCDWrite
       ___wmul
     ___awdiv
     ___lwmod
   _PWM7_LoadDutyValue
   _SYSTEM_Initialize
     _ADC_Initialize
     _LCDClear
       _LCDWrite
       _gotoXY
         _LCDWrite
     _LCDInit
       _LCDWrite
     _OSCILLATOR_Initialize
     _PIN_MANAGER_Initialize
     _PWM_Initialize
     _TMR2_Initialize
   ___wmul
   _gotoXY
     _LCDWrite
   _readAnalog
     _ADCRead
     ___lldiv
     ___wmul

 Address spaces:
Name               Size   Autos  Total    Cost      Usage
BIGRAM             3F0      0       0       0        0.0%
EEDATA             100      0       0       0        0.0%
NULL                 0      0       0       0        0.0%
CODE                 0      0       0       0        0.0%
BITCOMMON            E      0       0       1        0.0%
BITSFR0              0      0       0       1        0.0%
SFR0                 0      0       0       1        0.0%
COMMON               E      E       E       2      100.0%
BITSFR1              0      0       0       2        0.0%
SFR1                 0      0       0       2        0.0%
BITSFR2              0      0       0       3        0.0%
SFR2                 0      0       0       3        0.0%
STACK                0      0       0       3        0.0%
BITBANK0            50      0       0       4        0.0%
BITSFR3              0      0       0       4        0.0%
SFR3                 0      0       0       4        0.0%
BANK0               50     35      4C       5       95.0%
BITSFR4              0      0       0       5        0.0%
SFR4                 0      0       0       5        0.0%
BITBANK1            50      0       0       6        0.0%
BITSFR5              0      0       0       6        0.0%
SFR5                 0      0       0       6        0.0%
BANK1               50      0       D       7       16.3%
BITSFR6              0      0       0       7        0.0%
SFR6                 0      0       0       7        0.0%
BITBANK2            50      0       0       8        0.0%
BITSFR7              0      0       0       8        0.0%
SFR7                 0      0       0       8        0.0%
BANK2               50      0       0       9        0.0%
BITSFR8              0      0       0       9        0.0%
SFR8                 0      0       0       9        0.0%
BITBANK3            50      0       0      10        0.0%
BITSFR9              0      0       0      10        0.0%
SFR9                 0      0       0      10        0.0%
BANK3               50      0       0      11        0.0%
BITSFR10             0      0       0      11        0.0%
SFR10                0      0       0      11        0.0%
BITBANK4            50      0       0      12        0.0%
BITSFR11             0      0       0      12        0.0%
SFR11                0      0       0      12        0.0%
BANK4               50      0       0      13        0.0%
BITSFR12             0      0       0      13        0.0%
SFR12                0      0       0      13        0.0%
BITBANK5            50      0       0      14        0.0%
BITSFR13             0      0       0      14        0.0%
SFR13                0      0       0      14        0.0%
BANK5               50      0       0      15        0.0%
BITSFR14             0      0       0      15        0.0%
SFR14                0      0       0      15        0.0%
BITBANK6            50      0       0      16        0.0%
BITSFR15             0      0       0      16        0.0%
SFR15                0      0       0      16        0.0%
BANK6               50      0       0      17        0.0%
BITSFR16             0      0       0      17        0.0%
SFR16                0      0       0      17        0.0%
BITBANK7            50      0       0      18        0.0%
BITSFR17             0      0       0      18        0.0%
SFR17                0      0       0      18        0.0%
BANK7               30      0       0      19        0.0%
BITSFR18             0      0       0      19        0.0%
SFR18                0      0       0      19        0.0%
BITSFR19             0      0       0      20        0.0%
SFR19                0      0       0      20        0.0%
ABS                  0      0      67      20        0.0%
BITBANK8            50      0       0      21        0.0%
BITSFR20             0      0       0      21        0.0%
SFR20                0      0       0      21        0.0%
BITSFR21             0      0       0      22        0.0%
SFR21                0      0       0      22        0.0%
BANK8                0      0       0      22        0.0%
BITBANK9            50      0       0      23        0.0%
BITSFR22             0      0       0      23        0.0%
SFR22                0      0       0      23        0.0%
BITSFR23             0      0       0      24        0.0%
SFR23                0      0       0      24        0.0%
BANK9                0      0       0      24        0.0%
BITBANK10           50      0       0      25        0.0%
BITSFR24             0      0       0      25        0.0%
SFR24                0      0       0      25        0.0%
BITSFR25             0      0       0      26        0.0%
SFR25                0      0       0      26        0.0%
BANK10               0      0       0      26        0.0%
BITBANK11           50      0       0      27        0.0%
BITSFR26             0      0       0      27        0.0%
SFR26                0      0       0      27        0.0%
BITSFR27             0      0       0      28        0.0%
SFR27                0      0       0      28        0.0%
BANK11               0      0       0      28        0.0%
BITBANK12           30      0       0      29        0.0%
BITSFR28             0      0       0      29        0.0%
SFR28                0      0       0      29        0.0%
BITSFR29             0      0       0      30        0.0%
SFR29                0      0       0      30        0.0%
BANK12               0      0       0      30        0.0%
BITSFR30             0      0       0      31        0.0%
SFR30                0      0       0      31        0.0%
DATA                 0      0      67      31        0.0%
BITSFR31             0      0       0      32        0.0%
SFR31                0      0       0      32        0.0%


Microchip Technology PIC Macro Assembler V1.45 build -152302408 
Symbol Table                                                                                   Thu May 10 19:56:04 2018

         LCDWriteInt@fieldLength 0022                   main@Batt_V_Old 004D          __size_of_PWM_Initialize 000B  
                    __CFG_CP$OFF 0000                               l89 0266                     ___awdiv@sign 0076  
            ___wmul@multiplicand 0072                      __CFG_LVP$ON 0000                              l160 02DE  
                            l161 02EE                              l162 02E2                              l158 02D6  
                            l159 02D8                              l361 02B8                    LCDClear@index 0079  
                            _GIE 005F                     __CFG_CPD$OFF 0000                              u810 039D  
                            u915 0404                              u835 02FB                              u925 040E  
                            u845 030F                              u935 0416                              u785 02B9  
                            u795 02BE                              u895 03FA                              u975 043E  
                            u995 044A                  __end_of_ADCRead 026D                  _TMR2_Initialize 0251  
                   __CFG_BORV$LO 0000                              wreg 0009                      main@analogs 003D  
                __end_of_LCDInit 03DA                     ?_LCDWriteInt 0020                     __CFG_ZCD$OFF 0000  
                           l1331 0311                             l1229 02B2                             l1325 02FD  
                           l1421 0474                             l1511 052E                             l1503 04F9  
                           l1407 043B                             l1433 0344                             l1521 0540  
                           l1513 0536                             l1505 0526                             l1417 0469  
                           l1409 0449                             l1371 03EF                             l1435 0350  
                           l1443 0365                             l1523 0567                             l1515 053C  
                           l1381 03F7                             l1365 03E4                             l1509 052A  
                           l1383 0403                             l1439 035C                             l1527 0575  
                           l1607 05AC                             l1393 041E                             l1633 0621  
                           l1475 07A6                             l1651 065A                             l1397 0426  
                           l1389 0415                             l1493 04F2                             l1653 0662  
                           l1655 0667                             l1663 0688                             l1639 0636  
                           l1657 066B                             u1005 045E                             u1015 046A  
                           u1105 06FF                             u1115 073B                             u1045 0347  
                           u1125 0785                             u1160 04DC                             u1065 0356  
                           u1225 0555                             u1075 035D                             u1155 07B1  
                           _LATA 0016                             _LATB 0017                             u1255 028F  
                           u1095 06AA                             u1415 064F                             _LATC 0018  
                           u1360 05A4                             u1425 0657                             u1435 0660  
                           u1457 032D                             _T2PR 028D                             u1467 0338  
                           _WPUA 0F39                             _WPUB 0F44                             _WPUC 0F4F  
                           _WPUE 0F65                     __CFG_WRT$OFF 0000                    __CFG_FCMEN$ON 0000  
                           _call 0067                             _main 058A                             fsr0h 0005  
                           fsr1h 0007                             indf0 0000                             fsr0l 0004  
                           indf1 0001                             fsr1l 0006                             btemp 007E  
                           start 0002                    __CFG_CSWEN$ON 0000                    __CFG_MCLRE$ON 0000  
               __end_of_LCDClear 0316   __size_of_OSCILLATOR_Initialize 0008                 __end_of_LCDWrite 02F0  
  __end_of_OSCILLATOR_Initialize 023A                            _ADACQ 009D                            _ADACT 0099  
                          _ADCAP 009B                            ?_main 0070                            _ADCLK 0098  
                          _ADPCH 009E                            _ADREF 009A                  __end_of___awdiv 042B  
                          _ADPRE 009C                    __CFG_WDTE$OFF 0000                            _ADRPT 010D  
                __end_of___lldiv 047D                  ___awdiv@divisor 0070                            _T2CON 028E  
                          _T2HLT 028F                            _T2TMR 028C                            _T2RST 0291  
                __end_of___lwmod 036A                  ___awdiv@counter 0075                            _OSCEN 0891  
                          _TRISA 0011                            _TRISB 0012                            _TRISC 0013  
                          _fonts 0800                            main@j 0052                   __CFG_BOREN$OFF 0000  
                          status 0003                            wtemp0 007E                  __initialization 07CD  
                   __end_of_main 0694                readAnalog@channel 0039          __end_of_TMR2_Initialize 025F  
                      ??_ADCRead 0073                           ??_main 003A                        ??_LCDInit 0075  
        LCDWrite@data_or_command 0072                           _ADCON0 0093                           _ADCON1 0094  
                         _ADCON2 0095                           _ADCON3 0096                           _ADLTHH 010F  
                         _ADLTHL 010E                           _ADRESH 008D                           _ADRESL 008C  
                         _ADSTAT 0097                           _ADUTHH 0111                 ___awdiv@dividend 0072  
                         _ADUTHL 0110                           _ANSELA 0F38                           _ANSELB 0F43  
                         _ANSELC 0F4E               __CFG_RSTOSC$HFINT1 0000                           _RC4PPS 0F24  
                 __CFG_WDTCCS$SC 0000                           _FVRCON 090C                           _OSCFRQ 0893  
                 __CFG_PWRTE$OFF 0000                     _CCPTMRS1bits 021F                    main@loopCount 0051  
                         ___wmul 02B0                        ??___awdiv 0074                   __CFG_STVREN$ON 0000  
                 _PWM_Initialize 023A                        ??___lldiv 0078                        ??___lwmod 0074  
                         _gotoXY 026D                 ___awdiv@quotient 0077                           _totals 0055  
                   LCDWrite@data 0070                     LCDWriteInt@i 002F                     LCDWriteInt@j 002E  
       readAnalog@analog_channel 0036                        ?_LCDClear 0070                _SYSTEM_Initialize 0316  
           __size_of_LCDWriteInt 00B9          __end_of__initialization 07FD                        ?_LCDWrite 0070  
             ?_SYSTEM_Initialize 0070           __end_of_PWM_Initialize 0245                   __pcstackCOMMON 0070  
                   __pidataBANK0 022E              ??_SYSTEM_Initialize 007B                    __end_of_fonts 092F  
                      LCDWrite@d 0073                        LCDWrite@i 0074                 ?_TMR2_Initialize 0070  
    __size_of_PWM7_LoadDutyValue 0016                LCDWriteInt@F14376 00A8        __end_of_SYSTEM_Initialize 033E  
                     __pbssBANK0 0055                       __pbssBANK1 00A0                       ??_LCDClear 0078  
                     ??_LCDWrite 0071                  ?_PWM_Initialize 0070                       __pmaintext 058A  
                        ?___wmul 0070                  __CFG_PPS1WAY$ON 0000                          ?_gotoXY 0075  
                        _ADCRead 025F                          _ADSTPTH 0113                          _ADSTPTL 0112  
        __size_of_ADC_Initialize 001A                          _LCDInit 039F                          _OSCCON1 088D  
                        _OSCCON3 088F                          _OSCTUNE 0892                          _PWM7DCH 0391  
                        _PWM7DCL 0390                          _PWM7CON 0392                          _PPSLOCK 0E8F  
                 main@dutyCycle7 004B                       _readAnalog 0694             __CFG_SCANE$available 0000  
                        ___awdiv 03DA                          ___lldiv 042B                  __size_of___wmul 001B  
                        ___lwmod 033E                  __size_of_gotoXY 0013                          __ptext1 0694  
                        __ptext2 042B                          __ptext3 025F                          __ptext4 0316  
                        __ptext5 0251                          __ptext6 023A                          __ptext7 036A  
                        __ptext8 0232                          __ptext9 039F            _OSCILLATOR_Initialize 0232  
                      _T2CONbits 028E                   ADCRead@channel 0073         ??_PIN_MANAGER_Initialize 0070  
                        _samples 2260       __size_of_SYSTEM_Initialize 0028                          clrloop0 0246  
           end_of_initialization 07FD            LCDWriteCharacter@base 007A                          gotoXY@x 0077  
                        gotoXY@y 0075                  ___lldiv@divisor 0070                  ___lldiv@counter 007D  
                     main@F14429 00A0                _LCDWriteCharacter 047D            __CFG_WDTCPS$WDTCPS_31 0000  
             ?_LCDWriteCharacter 0070                        _TRISAbits 0011                       main@Batt_I 004F  
                     main@Batt_V 0053              ??_LCDWriteCharacter 0076                 __CFG_FEXTOSC$OFF 0000  
              __size_of_LCDClear 0026       LCDWriteCharacter@character 0079                __size_of_LCDWrite 0025  
                    ?_readAnalog 0020        __end_of_LCDWriteCharacter 04D1                   __end_of___wmul 02CB  
                 _ADC_Initialize 0296                   __end_of_gotoXY 0280           ?_OSCILLATOR_Initialize 0070  
            start_initialization 07CD  __size_of_PIN_MANAGER_Initialize 0035                    ??_LCDWriteInt 0025  
               ??_PWM_Initialize 0070                 __CFG_LPBOREN$OFF 0000                         ??___wmul 0074  
         __end_of_ADC_Initialize 02B0                      __pdataBANK0 0068       __end_of_PWM7_LoadDutyValue 0296  
                       ??_gotoXY 0076                         ?_ADCRead 0070     PWM7_LoadDutyValue@dutyCycle7 0070  
                       ?_LCDInit 0070                      __pbssBIGRAM 2260                        ___latbits 0002  
                  __pcstackBANK0 0020         __size_of_TMR2_Initialize 000E              __size_of_readAnalog 0139  
            __end_of_LCDWriteInt 058A           _PIN_MANAGER_Initialize 036A       __size_of_LCDWriteCharacter 0054  
                       ?___awdiv 0070                         ?___lldiv 0070                 LCDWriteInt@value 0020  
                       ?___lwmod 0070                  ?_ADC_Initialize 0070                         _T2CLKCON 0290  
                       _LCDClear 02F0                   ___wmul@product 0074                         _LATAbits 0016  
                       _LCDWrite 02CB                        clear_ram0 0245                         _PIE0bits 0716  
                       _PIR4bits 0710                 __size_of_ADCRead 000E                       _ADCON0bits 0093  
              ___wmul@multiplier 0070                 __size_of_LCDInit 003B                      _LCDWriteInt 04D1  
              ??_TMR2_Initialize 0070                  readAnalog@value 0037                     ??_readAnalog 0022  
        ??_OSCILLATOR_Initialize 0070             LCDWriteInt@numPlaces 0023                 __size_of___awdiv 0051  
               __size_of___lldiv 0052                 __size_of___lwmod 002C                         _channels 0068  
                       __ptext10 02F0                         __ptext11 026D                         __ptext12 0296  
                       __ptext13 0280                         __ptext14 04D1                         __ptext15 033E  
                       __ptext16 03DA                         __ptext17 047D                         __ptext18 02B0  
                       __ptext19 02CB                  LCDWriteInt@sign 0024               __end_of_readAnalog 07CD  
                  __size_of_main 010A             __CFG_WDTCWS$WDTCWS_7 0000                         main@PV_I 0047  
                       main@PV_V 0045      PIN_MANAGER_Initialize@state 0070                      _sampleIndex 0065  
             _PWM7_LoadDutyValue 0280                 ___lwmod@dividend 0072                   LCDWriteInt@str 0029  
               ___lldiv@dividend 0074          ?_PIN_MANAGER_Initialize 0070              ?_PWM7_LoadDutyValue 0070  
                main@powerOutOld 0049                __CFG_CLKOUTEN$OFF 0000                      _PPSLOCKbits 0E8F  
               ??_ADC_Initialize 0070                    __pstringtext1 0800             ??_PWM7_LoadDutyValue 0072  
               ___lldiv@quotient 0079                  ___lwmod@divisor 0070                  ___lwmod@counter 0075  
 __end_of_PIN_MANAGER_Initialize 039F  
