

Microchip Technology PIC LITE Macro Assembler V1.35 build -356382666 
                                                                                               Fri Apr 21 21:58:42 2017

Microchip Technology Omniscient Code Generator v1.35 (Free mode) build 201507080246
     1                           	processor	16F18855
     2                           	opt	pw 120
     3                           	opt	lm
     4                           	psect	stringtext,global,class=STRCODE,delta=2
     5                           	psect	cinit,global,class=CODE,merge=1,delta=2
     6                           	psect	bssBANK0,global,class=BANK0,space=1,delta=1
     7                           	psect	cstackCOMMON,global,class=COMMON,space=1,delta=1
     8                           	psect	cstackBANK0,global,class=BANK0,space=1,delta=1
     9                           	psect	maintext,global,class=CODE,merge=1,split=1,delta=2
    10                           	psect	text1,local,class=CODE,merge=1,delta=2
    11                           	psect	text2,local,class=CODE,merge=1,delta=2
    12                           	psect	text3,local,class=CODE,merge=1,delta=2
    13                           	psect	text4,local,class=CODE,merge=1,delta=2
    14                           	psect	text5,local,class=CODE,merge=1,delta=2
    15                           	psect	text6,local,class=CODE,merge=1,delta=2
    16                           	psect	text7,local,class=CODE,merge=1,delta=2
    17                           	psect	text8,local,class=CODE,merge=1,delta=2
    18                           	psect	text9,local,class=CODE,merge=1,delta=2
    19                           	psect	text10,local,class=CODE,merge=1,delta=2
    20                           	dabs	1,0x7E,2
    21  0000                     	;# 
    22  0001                     	;# 
    23  0002                     	;# 
    24  0003                     	;# 
    25  0004                     	;# 
    26  0005                     	;# 
    27  0006                     	;# 
    28  0007                     	;# 
    29  0008                     	;# 
    30  0009                     	;# 
    31  000A                     	;# 
    32  000B                     	;# 
    33  000C                     	;# 
    34  000D                     	;# 
    35  000E                     	;# 
    36  0010                     	;# 
    37  0011                     	;# 
    38  0012                     	;# 
    39  0013                     	;# 
    40  0016                     	;# 
    41  0017                     	;# 
    42  0018                     	;# 
    43  001C                     	;# 
    44  001C                     	;# 
    45  001D                     	;# 
    46  001D                     	;# 
    47  001E                     	;# 
    48  001F                     	;# 
    49  008C                     	;# 
    50  008C                     	;# 
    51  008D                     	;# 
    52  008E                     	;# 
    53  008E                     	;# 
    54  008F                     	;# 
    55  0090                     	;# 
    56  0090                     	;# 
    57  0091                     	;# 
    58  0093                     	;# 
    59  0094                     	;# 
    60  0095                     	;# 
    61  0096                     	;# 
    62  0097                     	;# 
    63  0098                     	;# 
    64  0099                     	;# 
    65  009A                     	;# 
    66  009B                     	;# 
    67  009C                     	;# 
    68  009D                     	;# 
    69  009E                     	;# 
    70  010C                     	;# 
    71  010D                     	;# 
    72  010E                     	;# 
    73  010E                     	;# 
    74  010F                     	;# 
    75  0110                     	;# 
    76  0110                     	;# 
    77  0111                     	;# 
    78  0112                     	;# 
    79  0112                     	;# 
    80  0113                     	;# 
    81  0114                     	;# 
    82  0114                     	;# 
    83  0115                     	;# 
    84  0116                     	;# 
    85  0116                     	;# 
    86  0117                     	;# 
    87  0119                     	;# 
    88  0119                     	;# 
    89  0119                     	;# 
    90  011A                     	;# 
    91  011A                     	;# 
    92  011A                     	;# 
    93  011B                     	;# 
    94  011B                     	;# 
    95  011B                     	;# 
    96  011B                     	;# 
    97  011B                     	;# 
    98  011C                     	;# 
    99  011C                     	;# 
   100  011C                     	;# 
   101  011D                     	;# 
   102  011D                     	;# 
   103  011D                     	;# 
   104  011E                     	;# 
   105  011E                     	;# 
   106  011E                     	;# 
   107  011F                     	;# 
   108  011F                     	;# 
   109  011F                     	;# 
   110  011F                     	;# 
   111  011F                     	;# 
   112  018C                     	;# 
   113  018D                     	;# 
   114  018E                     	;# 
   115  018F                     	;# 
   116  0190                     	;# 
   117  0191                     	;# 
   118  0192                     	;# 
   119  0196                     	;# 
   120  0197                     	;# 
   121  0198                     	;# 
   122  0199                     	;# 
   123  019A                     	;# 
   124  019B                     	;# 
   125  019C                     	;# 
   126  020C                     	;# 
   127  020D                     	;# 
   128  020E                     	;# 
   129  020F                     	;# 
   130  020F                     	;# 
   131  0210                     	;# 
   132  0210                     	;# 
   133  0211                     	;# 
   134  0211                     	;# 
   135  0212                     	;# 
   136  0213                     	;# 
   137  0214                     	;# 
   138  0215                     	;# 
   139  0215                     	;# 
   140  0216                     	;# 
   141  0216                     	;# 
   142  0217                     	;# 
   143  0217                     	;# 
   144  0218                     	;# 
   145  0219                     	;# 
   146  021A                     	;# 
   147  021B                     	;# 
   148  021B                     	;# 
   149  021C                     	;# 
   150  021C                     	;# 
   151  021D                     	;# 
   152  021D                     	;# 
   153  021E                     	;# 
   154  021F                     	;# 
   155  028C                     	;# 
   156  028C                     	;# 
   157  028D                     	;# 
   158  028D                     	;# 
   159  028E                     	;# 
   160  028F                     	;# 
   161  0290                     	;# 
   162  0291                     	;# 
   163  0292                     	;# 
   164  0292                     	;# 
   165  0293                     	;# 
   166  0293                     	;# 
   167  0294                     	;# 
   168  0295                     	;# 
   169  0296                     	;# 
   170  0297                     	;# 
   171  0298                     	;# 
   172  0298                     	;# 
   173  0299                     	;# 
   174  0299                     	;# 
   175  029A                     	;# 
   176  029B                     	;# 
   177  029C                     	;# 
   178  029D                     	;# 
   179  030C                     	;# 
   180  030C                     	;# 
   181  030D                     	;# 
   182  030E                     	;# 
   183  030F                     	;# 
   184  0310                     	;# 
   185  0310                     	;# 
   186  0311                     	;# 
   187  0312                     	;# 
   188  0313                     	;# 
   189  0314                     	;# 
   190  0314                     	;# 
   191  0315                     	;# 
   192  0316                     	;# 
   193  0317                     	;# 
   194  0318                     	;# 
   195  0318                     	;# 
   196  0319                     	;# 
   197  031A                     	;# 
   198  031B                     	;# 
   199  031C                     	;# 
   200  031C                     	;# 
   201  031D                     	;# 
   202  031E                     	;# 
   203  031F                     	;# 
   204  038C                     	;# 
   205  038C                     	;# 
   206  038D                     	;# 
   207  038E                     	;# 
   208  0390                     	;# 
   209  0390                     	;# 
   210  0391                     	;# 
   211  0392                     	;# 
   212  040C                     	;# 
   213  040D                     	;# 
   214  040E                     	;# 
   215  040F                     	;# 
   216  0410                     	;# 
   217  0411                     	;# 
   218  0416                     	;# 
   219  0416                     	;# 
   220  0417                     	;# 
   221  0418                     	;# 
   222  0418                     	;# 
   223  0419                     	;# 
   224  041A                     	;# 
   225  041A                     	;# 
   226  041B                     	;# 
   227  041C                     	;# 
   228  041C                     	;# 
   229  041D                     	;# 
   230  041E                     	;# 
   231  041F                     	;# 
   232  048C                     	;# 
   233  048C                     	;# 
   234  048D                     	;# 
   235  048E                     	;# 
   236  048F                     	;# 
   237  048F                     	;# 
   238  0490                     	;# 
   239  0491                     	;# 
   240  0492                     	;# 
   241  0492                     	;# 
   242  0493                     	;# 
   243  0494                     	;# 
   244  0495                     	;# 
   245  0495                     	;# 
   246  0496                     	;# 
   247  0497                     	;# 
   248  0498                     	;# 
   249  0499                     	;# 
   250  049A                     	;# 
   251  049B                     	;# 
   252  049C                     	;# 
   253  049D                     	;# 
   254  050C                     	;# 
   255  050C                     	;# 
   256  050D                     	;# 
   257  050E                     	;# 
   258  050F                     	;# 
   259  050F                     	;# 
   260  0510                     	;# 
   261  0511                     	;# 
   262  0512                     	;# 
   263  0512                     	;# 
   264  0513                     	;# 
   265  0514                     	;# 
   266  0515                     	;# 
   267  0515                     	;# 
   268  0516                     	;# 
   269  0517                     	;# 
   270  0518                     	;# 
   271  0519                     	;# 
   272  051A                     	;# 
   273  051B                     	;# 
   274  051C                     	;# 
   275  051D                     	;# 
   276  058C                     	;# 
   277  058C                     	;# 
   278  058D                     	;# 
   279  058E                     	;# 
   280  058F                     	;# 
   281  058F                     	;# 
   282  0590                     	;# 
   283  0591                     	;# 
   284  0592                     	;# 
   285  0593                     	;# 
   286  060C                     	;# 
   287  060D                     	;# 
   288  060E                     	;# 
   289  060F                     	;# 
   290  0610                     	;# 
   291  0611                     	;# 
   292  0612                     	;# 
   293  0613                     	;# 
   294  0614                     	;# 
   295  0616                     	;# 
   296  0617                     	;# 
   297  0618                     	;# 
   298  0619                     	;# 
   299  061A                     	;# 
   300  061B                     	;# 
   301  061C                     	;# 
   302  061D                     	;# 
   303  061E                     	;# 
   304  068C                     	;# 
   305  068D                     	;# 
   306  068E                     	;# 
   307  068F                     	;# 
   308  0690                     	;# 
   309  0691                     	;# 
   310  0692                     	;# 
   311  0693                     	;# 
   312  0694                     	;# 
   313  070C                     	;# 
   314  070D                     	;# 
   315  070E                     	;# 
   316  070F                     	;# 
   317  0710                     	;# 
   318  0711                     	;# 
   319  0712                     	;# 
   320  0713                     	;# 
   321  0714                     	;# 
   322  0716                     	;# 
   323  0717                     	;# 
   324  0718                     	;# 
   325  0719                     	;# 
   326  071A                     	;# 
   327  071B                     	;# 
   328  071C                     	;# 
   329  071D                     	;# 
   330  071E                     	;# 
   331  0796                     	;# 
   332  0797                     	;# 
   333  0798                     	;# 
   334  0799                     	;# 
   335  079A                     	;# 
   336  079B                     	;# 
   337  080C                     	;# 
   338  080D                     	;# 
   339  080E                     	;# 
   340  080F                     	;# 
   341  0810                     	;# 
   342  0811                     	;# 
   343  0812                     	;# 
   344  0813                     	;# 
   345  0814                     	;# 
   346  081A                     	;# 
   347  081B                     	;# 
   348  081C                     	;# 
   349  081D                     	;# 
   350  081E                     	;# 
   351  081F                     	;# 
   352  088C                     	;# 
   353  088D                     	;# 
   354  088E                     	;# 
   355  088F                     	;# 
   356  0890                     	;# 
   357  0891                     	;# 
   358  0892                     	;# 
   359  0893                     	;# 
   360  0895                     	;# 
   361  0896                     	;# 
   362  0897                     	;# 
   363  0898                     	;# 
   364  0899                     	;# 
   365  089A                     	;# 
   366  089B                     	;# 
   367  090C                     	;# 
   368  090E                     	;# 
   369  090F                     	;# 
   370  091F                     	;# 
   371  098F                     	;# 
   372  098F                     	;# 
   373  0990                     	;# 
   374  0991                     	;# 
   375  0992                     	;# 
   376  0993                     	;# 
   377  0994                     	;# 
   378  0995                     	;# 
   379  0996                     	;# 
   380  0997                     	;# 
   381  0E0F                     	;# 
   382  0E10                     	;# 
   383  0E11                     	;# 
   384  0E12                     	;# 
   385  0E13                     	;# 
   386  0E14                     	;# 
   387  0E15                     	;# 
   388  0E16                     	;# 
   389  0E17                     	;# 
   390  0E18                     	;# 
   391  0E19                     	;# 
   392  0E1A                     	;# 
   393  0E1B                     	;# 
   394  0E1C                     	;# 
   395  0E1D                     	;# 
   396  0E1E                     	;# 
   397  0E1F                     	;# 
   398  0E20                     	;# 
   399  0E21                     	;# 
   400  0E22                     	;# 
   401  0E23                     	;# 
   402  0E24                     	;# 
   403  0E25                     	;# 
   404  0E26                     	;# 
   405  0E27                     	;# 
   406  0E28                     	;# 
   407  0E29                     	;# 
   408  0E2A                     	;# 
   409  0E2B                     	;# 
   410  0E2C                     	;# 
   411  0E2D                     	;# 
   412  0E2E                     	;# 
   413  0E2F                     	;# 
   414  0E30                     	;# 
   415  0E31                     	;# 
   416  0E32                     	;# 
   417  0E33                     	;# 
   418  0E34                     	;# 
   419  0E35                     	;# 
   420  0E36                     	;# 
   421  0E37                     	;# 
   422  0E8F                     	;# 
   423  0E90                     	;# 
   424  0E91                     	;# 
   425  0E92                     	;# 
   426  0E93                     	;# 
   427  0E94                     	;# 
   428  0E95                     	;# 
   429  0E96                     	;# 
   430  0E97                     	;# 
   431  0E9C                     	;# 
   432  0E9D                     	;# 
   433  0E9E                     	;# 
   434  0EA1                     	;# 
   435  0EA2                     	;# 
   436  0EA3                     	;# 
   437  0EA4                     	;# 
   438  0EA5                     	;# 
   439  0EA9                     	;# 
   440  0EAA                     	;# 
   441  0EAB                     	;# 
   442  0EAC                     	;# 
   443  0EB1                     	;# 
   444  0EB2                     	;# 
   445  0EB3                     	;# 
   446  0EB8                     	;# 
   447  0EB9                     	;# 
   448  0EBA                     	;# 
   449  0EBB                     	;# 
   450  0EBC                     	;# 
   451  0EBD                     	;# 
   452  0EBE                     	;# 
   453  0EC3                     	;# 
   454  0EC5                     	;# 
   455  0EC6                     	;# 
   456  0EC7                     	;# 
   457  0EC8                     	;# 
   458  0EC9                     	;# 
   459  0ECA                     	;# 
   460  0ECB                     	;# 
   461  0ECC                     	;# 
   462  0F10                     	;# 
   463  0F11                     	;# 
   464  0F12                     	;# 
   465  0F13                     	;# 
   466  0F14                     	;# 
   467  0F15                     	;# 
   468  0F16                     	;# 
   469  0F17                     	;# 
   470  0F18                     	;# 
   471  0F19                     	;# 
   472  0F1A                     	;# 
   473  0F1B                     	;# 
   474  0F1C                     	;# 
   475  0F1D                     	;# 
   476  0F1E                     	;# 
   477  0F1F                     	;# 
   478  0F20                     	;# 
   479  0F21                     	;# 
   480  0F22                     	;# 
   481  0F23                     	;# 
   482  0F24                     	;# 
   483  0F25                     	;# 
   484  0F26                     	;# 
   485  0F27                     	;# 
   486  0F38                     	;# 
   487  0F39                     	;# 
   488  0F3A                     	;# 
   489  0F3B                     	;# 
   490  0F3C                     	;# 
   491  0F3D                     	;# 
   492  0F3E                     	;# 
   493  0F3F                     	;# 
   494  0F40                     	;# 
   495  0F41                     	;# 
   496  0F43                     	;# 
   497  0F44                     	;# 
   498  0F45                     	;# 
   499  0F46                     	;# 
   500  0F47                     	;# 
   501  0F48                     	;# 
   502  0F49                     	;# 
   503  0F4A                     	;# 
   504  0F4B                     	;# 
   505  0F4C                     	;# 
   506  0F4E                     	;# 
   507  0F4F                     	;# 
   508  0F50                     	;# 
   509  0F51                     	;# 
   510  0F52                     	;# 
   511  0F53                     	;# 
   512  0F54                     	;# 
   513  0F55                     	;# 
   514  0F56                     	;# 
   515  0F57                     	;# 
   516  0F65                     	;# 
   517  0F68                     	;# 
   518  0F69                     	;# 
   519  0F6A                     	;# 
   520  0F6B                     	;# 
   521  0FE4                     	;# 
   522  0FE5                     	;# 
   523  0FE6                     	;# 
   524  0FE7                     	;# 
   525  0FE8                     	;# 
   526  0FE9                     	;# 
   527  0FEA                     	;# 
   528  0FEB                     	;# 
   529  0FED                     	;# 
   530  0FEE                     	;# 
   531  0FEF                     	;# 
   532  0000                     	;# 
   533  0001                     	;# 
   534  0002                     	;# 
   535  0003                     	;# 
   536  0004                     	;# 
   537  0005                     	;# 
   538  0006                     	;# 
   539  0007                     	;# 
   540  0008                     	;# 
   541  0009                     	;# 
   542  000A                     	;# 
   543  000B                     	;# 
   544  000C                     	;# 
   545  000D                     	;# 
   546  000E                     	;# 
   547  0010                     	;# 
   548  0011                     	;# 
   549  0012                     	;# 
   550  0013                     	;# 
   551  0016                     	;# 
   552  0017                     	;# 
   553  0018                     	;# 
   554  001C                     	;# 
   555  001C                     	;# 
   556  001D                     	;# 
   557  001D                     	;# 
   558  001E                     	;# 
   559  001F                     	;# 
   560  008C                     	;# 
   561  008C                     	;# 
   562  008D                     	;# 
   563  008E                     	;# 
   564  008E                     	;# 
   565  008F                     	;# 
   566  0090                     	;# 
   567  0090                     	;# 
   568  0091                     	;# 
   569  0093                     	;# 
   570  0094                     	;# 
   571  0095                     	;# 
   572  0096                     	;# 
   573  0097                     	;# 
   574  0098                     	;# 
   575  0099                     	;# 
   576  009A                     	;# 
   577  009B                     	;# 
   578  009C                     	;# 
   579  009D                     	;# 
   580  009E                     	;# 
   581  010C                     	;# 
   582  010D                     	;# 
   583  010E                     	;# 
   584  010E                     	;# 
   585  010F                     	;# 
   586  0110                     	;# 
   587  0110                     	;# 
   588  0111                     	;# 
   589  0112                     	;# 
   590  0112                     	;# 
   591  0113                     	;# 
   592  0114                     	;# 
   593  0114                     	;# 
   594  0115                     	;# 
   595  0116                     	;# 
   596  0116                     	;# 
   597  0117                     	;# 
   598  0119                     	;# 
   599  0119                     	;# 
   600  0119                     	;# 
   601  011A                     	;# 
   602  011A                     	;# 
   603  011A                     	;# 
   604  011B                     	;# 
   605  011B                     	;# 
   606  011B                     	;# 
   607  011B                     	;# 
   608  011B                     	;# 
   609  011C                     	;# 
   610  011C                     	;# 
   611  011C                     	;# 
   612  011D                     	;# 
   613  011D                     	;# 
   614  011D                     	;# 
   615  011E                     	;# 
   616  011E                     	;# 
   617  011E                     	;# 
   618  011F                     	;# 
   619  011F                     	;# 
   620  011F                     	;# 
   621  011F                     	;# 
   622  011F                     	;# 
   623  018C                     	;# 
   624  018D                     	;# 
   625  018E                     	;# 
   626  018F                     	;# 
   627  0190                     	;# 
   628  0191                     	;# 
   629  0192                     	;# 
   630  0196                     	;# 
   631  0197                     	;# 
   632  0198                     	;# 
   633  0199                     	;# 
   634  019A                     	;# 
   635  019B                     	;# 
   636  019C                     	;# 
   637  020C                     	;# 
   638  020D                     	;# 
   639  020E                     	;# 
   640  020F                     	;# 
   641  020F                     	;# 
   642  0210                     	;# 
   643  0210                     	;# 
   644  0211                     	;# 
   645  0211                     	;# 
   646  0212                     	;# 
   647  0213                     	;# 
   648  0214                     	;# 
   649  0215                     	;# 
   650  0215                     	;# 
   651  0216                     	;# 
   652  0216                     	;# 
   653  0217                     	;# 
   654  0217                     	;# 
   655  0218                     	;# 
   656  0219                     	;# 
   657  021A                     	;# 
   658  021B                     	;# 
   659  021B                     	;# 
   660  021C                     	;# 
   661  021C                     	;# 
   662  021D                     	;# 
   663  021D                     	;# 
   664  021E                     	;# 
   665  021F                     	;# 
   666  028C                     	;# 
   667  028C                     	;# 
   668  028D                     	;# 
   669  028D                     	;# 
   670  028E                     	;# 
   671  028F                     	;# 
   672  0290                     	;# 
   673  0291                     	;# 
   674  0292                     	;# 
   675  0292                     	;# 
   676  0293                     	;# 
   677  0293                     	;# 
   678  0294                     	;# 
   679  0295                     	;# 
   680  0296                     	;# 
   681  0297                     	;# 
   682  0298                     	;# 
   683  0298                     	;# 
   684  0299                     	;# 
   685  0299                     	;# 
   686  029A                     	;# 
   687  029B                     	;# 
   688  029C                     	;# 
   689  029D                     	;# 
   690  030C                     	;# 
   691  030C                     	;# 
   692  030D                     	;# 
   693  030E                     	;# 
   694  030F                     	;# 
   695  0310                     	;# 
   696  0310                     	;# 
   697  0311                     	;# 
   698  0312                     	;# 
   699  0313                     	;# 
   700  0314                     	;# 
   701  0314                     	;# 
   702  0315                     	;# 
   703  0316                     	;# 
   704  0317                     	;# 
   705  0318                     	;# 
   706  0318                     	;# 
   707  0319                     	;# 
   708  031A                     	;# 
   709  031B                     	;# 
   710  031C                     	;# 
   711  031C                     	;# 
   712  031D                     	;# 
   713  031E                     	;# 
   714  031F                     	;# 
   715  038C                     	;# 
   716  038C                     	;# 
   717  038D                     	;# 
   718  038E                     	;# 
   719  0390                     	;# 
   720  0390                     	;# 
   721  0391                     	;# 
   722  0392                     	;# 
   723  040C                     	;# 
   724  040D                     	;# 
   725  040E                     	;# 
   726  040F                     	;# 
   727  0410                     	;# 
   728  0411                     	;# 
   729  0416                     	;# 
   730  0416                     	;# 
   731  0417                     	;# 
   732  0418                     	;# 
   733  0418                     	;# 
   734  0419                     	;# 
   735  041A                     	;# 
   736  041A                     	;# 
   737  041B                     	;# 
   738  041C                     	;# 
   739  041C                     	;# 
   740  041D                     	;# 
   741  041E                     	;# 
   742  041F                     	;# 
   743  048C                     	;# 
   744  048C                     	;# 
   745  048D                     	;# 
   746  048E                     	;# 
   747  048F                     	;# 
   748  048F                     	;# 
   749  0490                     	;# 
   750  0491                     	;# 
   751  0492                     	;# 
   752  0492                     	;# 
   753  0493                     	;# 
   754  0494                     	;# 
   755  0495                     	;# 
   756  0495                     	;# 
   757  0496                     	;# 
   758  0497                     	;# 
   759  0498                     	;# 
   760  0499                     	;# 
   761  049A                     	;# 
   762  049B                     	;# 
   763  049C                     	;# 
   764  049D                     	;# 
   765  050C                     	;# 
   766  050C                     	;# 
   767  050D                     	;# 
   768  050E                     	;# 
   769  050F                     	;# 
   770  050F                     	;# 
   771  0510                     	;# 
   772  0511                     	;# 
   773  0512                     	;# 
   774  0512                     	;# 
   775  0513                     	;# 
   776  0514                     	;# 
   777  0515                     	;# 
   778  0515                     	;# 
   779  0516                     	;# 
   780  0517                     	;# 
   781  0518                     	;# 
   782  0519                     	;# 
   783  051A                     	;# 
   784  051B                     	;# 
   785  051C                     	;# 
   786  051D                     	;# 
   787  058C                     	;# 
   788  058C                     	;# 
   789  058D                     	;# 
   790  058E                     	;# 
   791  058F                     	;# 
   792  058F                     	;# 
   793  0590                     	;# 
   794  0591                     	;# 
   795  0592                     	;# 
   796  0593                     	;# 
   797  060C                     	;# 
   798  060D                     	;# 
   799  060E                     	;# 
   800  060F                     	;# 
   801  0610                     	;# 
   802  0611                     	;# 
   803  0612                     	;# 
   804  0613                     	;# 
   805  0614                     	;# 
   806  0616                     	;# 
   807  0617                     	;# 
   808  0618                     	;# 
   809  0619                     	;# 
   810  061A                     	;# 
   811  061B                     	;# 
   812  061C                     	;# 
   813  061D                     	;# 
   814  061E                     	;# 
   815  068C                     	;# 
   816  068D                     	;# 
   817  068E                     	;# 
   818  068F                     	;# 
   819  0690                     	;# 
   820  0691                     	;# 
   821  0692                     	;# 
   822  0693                     	;# 
   823  0694                     	;# 
   824  070C                     	;# 
   825  070D                     	;# 
   826  070E                     	;# 
   827  070F                     	;# 
   828  0710                     	;# 
   829  0711                     	;# 
   830  0712                     	;# 
   831  0713                     	;# 
   832  0714                     	;# 
   833  0716                     	;# 
   834  0717                     	;# 
   835  0718                     	;# 
   836  0719                     	;# 
   837  071A                     	;# 
   838  071B                     	;# 
   839  071C                     	;# 
   840  071D                     	;# 
   841  071E                     	;# 
   842  0796                     	;# 
   843  0797                     	;# 
   844  0798                     	;# 
   845  0799                     	;# 
   846  079A                     	;# 
   847  079B                     	;# 
   848  080C                     	;# 
   849  080D                     	;# 
   850  080E                     	;# 
   851  080F                     	;# 
   852  0810                     	;# 
   853  0811                     	;# 
   854  0812                     	;# 
   855  0813                     	;# 
   856  0814                     	;# 
   857  081A                     	;# 
   858  081B                     	;# 
   859  081C                     	;# 
   860  081D                     	;# 
   861  081E                     	;# 
   862  081F                     	;# 
   863  088C                     	;# 
   864  088D                     	;# 
   865  088E                     	;# 
   866  088F                     	;# 
   867  0890                     	;# 
   868  0891                     	;# 
   869  0892                     	;# 
   870  0893                     	;# 
   871  0895                     	;# 
   872  0896                     	;# 
   873  0897                     	;# 
   874  0898                     	;# 
   875  0899                     	;# 
   876  089A                     	;# 
   877  089B                     	;# 
   878  090C                     	;# 
   879  090E                     	;# 
   880  090F                     	;# 
   881  091F                     	;# 
   882  098F                     	;# 
   883  098F                     	;# 
   884  0990                     	;# 
   885  0991                     	;# 
   886  0992                     	;# 
   887  0993                     	;# 
   888  0994                     	;# 
   889  0995                     	;# 
   890  0996                     	;# 
   891  0997                     	;# 
   892  0E0F                     	;# 
   893  0E10                     	;# 
   894  0E11                     	;# 
   895  0E12                     	;# 
   896  0E13                     	;# 
   897  0E14                     	;# 
   898  0E15                     	;# 
   899  0E16                     	;# 
   900  0E17                     	;# 
   901  0E18                     	;# 
   902  0E19                     	;# 
   903  0E1A                     	;# 
   904  0E1B                     	;# 
   905  0E1C                     	;# 
   906  0E1D                     	;# 
   907  0E1E                     	;# 
   908  0E1F                     	;# 
   909  0E20                     	;# 
   910  0E21                     	;# 
   911  0E22                     	;# 
   912  0E23                     	;# 
   913  0E24                     	;# 
   914  0E25                     	;# 
   915  0E26                     	;# 
   916  0E27                     	;# 
   917  0E28                     	;# 
   918  0E29                     	;# 
   919  0E2A                     	;# 
   920  0E2B                     	;# 
   921  0E2C                     	;# 
   922  0E2D                     	;# 
   923  0E2E                     	;# 
   924  0E2F                     	;# 
   925  0E30                     	;# 
   926  0E31                     	;# 
   927  0E32                     	;# 
   928  0E33                     	;# 
   929  0E34                     	;# 
   930  0E35                     	;# 
   931  0E36                     	;# 
   932  0E37                     	;# 
   933  0E8F                     	;# 
   934  0E90                     	;# 
   935  0E91                     	;# 
   936  0E92                     	;# 
   937  0E93                     	;# 
   938  0E94                     	;# 
   939  0E95                     	;# 
   940  0E96                     	;# 
   941  0E97                     	;# 
   942  0E9C                     	;# 
   943  0E9D                     	;# 
   944  0E9E                     	;# 
   945  0EA1                     	;# 
   946  0EA2                     	;# 
   947  0EA3                     	;# 
   948  0EA4                     	;# 
   949  0EA5                     	;# 
   950  0EA9                     	;# 
   951  0EAA                     	;# 
   952  0EAB                     	;# 
   953  0EAC                     	;# 
   954  0EB1                     	;# 
   955  0EB2                     	;# 
   956  0EB3                     	;# 
   957  0EB8                     	;# 
   958  0EB9                     	;# 
   959  0EBA                     	;# 
   960  0EBB                     	;# 
   961  0EBC                     	;# 
   962  0EBD                     	;# 
   963  0EBE                     	;# 
   964  0EC3                     	;# 
   965  0EC5                     	;# 
   966  0EC6                     	;# 
   967  0EC7                     	;# 
   968  0EC8                     	;# 
   969  0EC9                     	;# 
   970  0ECA                     	;# 
   971  0ECB                     	;# 
   972  0ECC                     	;# 
   973  0F10                     	;# 
   974  0F11                     	;# 
   975  0F12                     	;# 
   976  0F13                     	;# 
   977  0F14                     	;# 
   978  0F15                     	;# 
   979  0F16                     	;# 
   980  0F17                     	;# 
   981  0F18                     	;# 
   982  0F19                     	;# 
   983  0F1A                     	;# 
   984  0F1B                     	;# 
   985  0F1C                     	;# 
   986  0F1D                     	;# 
   987  0F1E                     	;# 
   988  0F1F                     	;# 
   989  0F20                     	;# 
   990  0F21                     	;# 
   991  0F22                     	;# 
   992  0F23                     	;# 
   993  0F24                     	;# 
   994  0F25                     	;# 
   995  0F26                     	;# 
   996  0F27                     	;# 
   997  0F38                     	;# 
   998  0F39                     	;# 
   999  0F3A                     	;# 
  1000  0F3B                     	;# 
  1001  0F3C                     	;# 
  1002  0F3D                     	;# 
  1003  0F3E                     	;# 
  1004  0F3F                     	;# 
  1005  0F40                     	;# 
  1006  0F41                     	;# 
  1007  0F43                     	;# 
  1008  0F44                     	;# 
  1009  0F45                     	;# 
  1010  0F46                     	;# 
  1011  0F47                     	;# 
  1012  0F48                     	;# 
  1013  0F49                     	;# 
  1014  0F4A                     	;# 
  1015  0F4B                     	;# 
  1016  0F4C                     	;# 
  1017  0F4E                     	;# 
  1018  0F4F                     	;# 
  1019  0F50                     	;# 
  1020  0F51                     	;# 
  1021  0F52                     	;# 
  1022  0F53                     	;# 
  1023  0F54                     	;# 
  1024  0F55                     	;# 
  1025  0F56                     	;# 
  1026  0F57                     	;# 
  1027  0F65                     	;# 
  1028  0F68                     	;# 
  1029  0F69                     	;# 
  1030  0F6A                     	;# 
  1031  0F6B                     	;# 
  1032  0FE4                     	;# 
  1033  0FE5                     	;# 
  1034  0FE6                     	;# 
  1035  0FE7                     	;# 
  1036  0FE8                     	;# 
  1037  0FE9                     	;# 
  1038  0FEA                     	;# 
  1039  0FEB                     	;# 
  1040  0FED                     	;# 
  1041  0FEE                     	;# 
  1042  0FEF                     	;# 
  1043  0000                     	;# 
  1044  0001                     	;# 
  1045  0002                     	;# 
  1046  0003                     	;# 
  1047  0004                     	;# 
  1048  0005                     	;# 
  1049  0006                     	;# 
  1050  0007                     	;# 
  1051  0008                     	;# 
  1052  0009                     	;# 
  1053  000A                     	;# 
  1054  000B                     	;# 
  1055  000C                     	;# 
  1056  000D                     	;# 
  1057  000E                     	;# 
  1058  0010                     	;# 
  1059  0011                     	;# 
  1060  0012                     	;# 
  1061  0013                     	;# 
  1062  0016                     	;# 
  1063  0017                     	;# 
  1064  0018                     	;# 
  1065  001C                     	;# 
  1066  001C                     	;# 
  1067  001D                     	;# 
  1068  001D                     	;# 
  1069  001E                     	;# 
  1070  001F                     	;# 
  1071  008C                     	;# 
  1072  008C                     	;# 
  1073  008D                     	;# 
  1074  008E                     	;# 
  1075  008E                     	;# 
  1076  008F                     	;# 
  1077  0090                     	;# 
  1078  0090                     	;# 
  1079  0091                     	;# 
  1080  0093                     	;# 
  1081  0094                     	;# 
  1082  0095                     	;# 
  1083  0096                     	;# 
  1084  0097                     	;# 
  1085  0098                     	;# 
  1086  0099                     	;# 
  1087  009A                     	;# 
  1088  009B                     	;# 
  1089  009C                     	;# 
  1090  009D                     	;# 
  1091  009E                     	;# 
  1092  010C                     	;# 
  1093  010D                     	;# 
  1094  010E                     	;# 
  1095  010E                     	;# 
  1096  010F                     	;# 
  1097  0110                     	;# 
  1098  0110                     	;# 
  1099  0111                     	;# 
  1100  0112                     	;# 
  1101  0112                     	;# 
  1102  0113                     	;# 
  1103  0114                     	;# 
  1104  0114                     	;# 
  1105  0115                     	;# 
  1106  0116                     	;# 
  1107  0116                     	;# 
  1108  0117                     	;# 
  1109  0119                     	;# 
  1110  0119                     	;# 
  1111  0119                     	;# 
  1112  011A                     	;# 
  1113  011A                     	;# 
  1114  011A                     	;# 
  1115  011B                     	;# 
  1116  011B                     	;# 
  1117  011B                     	;# 
  1118  011B                     	;# 
  1119  011B                     	;# 
  1120  011C                     	;# 
  1121  011C                     	;# 
  1122  011C                     	;# 
  1123  011D                     	;# 
  1124  011D                     	;# 
  1125  011D                     	;# 
  1126  011E                     	;# 
  1127  011E                     	;# 
  1128  011E                     	;# 
  1129  011F                     	;# 
  1130  011F                     	;# 
  1131  011F                     	;# 
  1132  011F                     	;# 
  1133  011F                     	;# 
  1134  018C                     	;# 
  1135  018D                     	;# 
  1136  018E                     	;# 
  1137  018F                     	;# 
  1138  0190                     	;# 
  1139  0191                     	;# 
  1140  0192                     	;# 
  1141  0196                     	;# 
  1142  0197                     	;# 
  1143  0198                     	;# 
  1144  0199                     	;# 
  1145  019A                     	;# 
  1146  019B                     	;# 
  1147  019C                     	;# 
  1148  020C                     	;# 
  1149  020D                     	;# 
  1150  020E                     	;# 
  1151  020F                     	;# 
  1152  020F                     	;# 
  1153  0210                     	;# 
  1154  0210                     	;# 
  1155  0211                     	;# 
  1156  0211                     	;# 
  1157  0212                     	;# 
  1158  0213                     	;# 
  1159  0214                     	;# 
  1160  0215                     	;# 
  1161  0215                     	;# 
  1162  0216                     	;# 
  1163  0216                     	;# 
  1164  0217                     	;# 
  1165  0217                     	;# 
  1166  0218                     	;# 
  1167  0219                     	;# 
  1168  021A                     	;# 
  1169  021B                     	;# 
  1170  021B                     	;# 
  1171  021C                     	;# 
  1172  021C                     	;# 
  1173  021D                     	;# 
  1174  021D                     	;# 
  1175  021E                     	;# 
  1176  021F                     	;# 
  1177  028C                     	;# 
  1178  028C                     	;# 
  1179  028D                     	;# 
  1180  028D                     	;# 
  1181  028E                     	;# 
  1182  028F                     	;# 
  1183  0290                     	;# 
  1184  0291                     	;# 
  1185  0292                     	;# 
  1186  0292                     	;# 
  1187  0293                     	;# 
  1188  0293                     	;# 
  1189  0294                     	;# 
  1190  0295                     	;# 
  1191  0296                     	;# 
  1192  0297                     	;# 
  1193  0298                     	;# 
  1194  0298                     	;# 
  1195  0299                     	;# 
  1196  0299                     	;# 
  1197  029A                     	;# 
  1198  029B                     	;# 
  1199  029C                     	;# 
  1200  029D                     	;# 
  1201  030C                     	;# 
  1202  030C                     	;# 
  1203  030D                     	;# 
  1204  030E                     	;# 
  1205  030F                     	;# 
  1206  0310                     	;# 
  1207  0310                     	;# 
  1208  0311                     	;# 
  1209  0312                     	;# 
  1210  0313                     	;# 
  1211  0314                     	;# 
  1212  0314                     	;# 
  1213  0315                     	;# 
  1214  0316                     	;# 
  1215  0317                     	;# 
  1216  0318                     	;# 
  1217  0318                     	;# 
  1218  0319                     	;# 
  1219  031A                     	;# 
  1220  031B                     	;# 
  1221  031C                     	;# 
  1222  031C                     	;# 
  1223  031D                     	;# 
  1224  031E                     	;# 
  1225  031F                     	;# 
  1226  038C                     	;# 
  1227  038C                     	;# 
  1228  038D                     	;# 
  1229  038E                     	;# 
  1230  0390                     	;# 
  1231  0390                     	;# 
  1232  0391                     	;# 
  1233  0392                     	;# 
  1234  040C                     	;# 
  1235  040D                     	;# 
  1236  040E                     	;# 
  1237  040F                     	;# 
  1238  0410                     	;# 
  1239  0411                     	;# 
  1240  0416                     	;# 
  1241  0416                     	;# 
  1242  0417                     	;# 
  1243  0418                     	;# 
  1244  0418                     	;# 
  1245  0419                     	;# 
  1246  041A                     	;# 
  1247  041A                     	;# 
  1248  041B                     	;# 
  1249  041C                     	;# 
  1250  041C                     	;# 
  1251  041D                     	;# 
  1252  041E                     	;# 
  1253  041F                     	;# 
  1254  048C                     	;# 
  1255  048C                     	;# 
  1256  048D                     	;# 
  1257  048E                     	;# 
  1258  048F                     	;# 
  1259  048F                     	;# 
  1260  0490                     	;# 
  1261  0491                     	;# 
  1262  0492                     	;# 
  1263  0492                     	;# 
  1264  0493                     	;# 
  1265  0494                     	;# 
  1266  0495                     	;# 
  1267  0495                     	;# 
  1268  0496                     	;# 
  1269  0497                     	;# 
  1270  0498                     	;# 
  1271  0499                     	;# 
  1272  049A                     	;# 
  1273  049B                     	;# 
  1274  049C                     	;# 
  1275  049D                     	;# 
  1276  050C                     	;# 
  1277  050C                     	;# 
  1278  050D                     	;# 
  1279  050E                     	;# 
  1280  050F                     	;# 
  1281  050F                     	;# 
  1282  0510                     	;# 
  1283  0511                     	;# 
  1284  0512                     	;# 
  1285  0512                     	;# 
  1286  0513                     	;# 
  1287  0514                     	;# 
  1288  0515                     	;# 
  1289  0515                     	;# 
  1290  0516                     	;# 
  1291  0517                     	;# 
  1292  0518                     	;# 
  1293  0519                     	;# 
  1294  051A                     	;# 
  1295  051B                     	;# 
  1296  051C                     	;# 
  1297  051D                     	;# 
  1298  058C                     	;# 
  1299  058C                     	;# 
  1300  058D                     	;# 
  1301  058E                     	;# 
  1302  058F                     	;# 
  1303  058F                     	;# 
  1304  0590                     	;# 
  1305  0591                     	;# 
  1306  0592                     	;# 
  1307  0593                     	;# 
  1308  060C                     	;# 
  1309  060D                     	;# 
  1310  060E                     	;# 
  1311  060F                     	;# 
  1312  0610                     	;# 
  1313  0611                     	;# 
  1314  0612                     	;# 
  1315  0613                     	;# 
  1316  0614                     	;# 
  1317  0616                     	;# 
  1318  0617                     	;# 
  1319  0618                     	;# 
  1320  0619                     	;# 
  1321  061A                     	;# 
  1322  061B                     	;# 
  1323  061C                     	;# 
  1324  061D                     	;# 
  1325  061E                     	;# 
  1326  068C                     	;# 
  1327  068D                     	;# 
  1328  068E                     	;# 
  1329  068F                     	;# 
  1330  0690                     	;# 
  1331  0691                     	;# 
  1332  0692                     	;# 
  1333  0693                     	;# 
  1334  0694                     	;# 
  1335  070C                     	;# 
  1336  070D                     	;# 
  1337  070E                     	;# 
  1338  070F                     	;# 
  1339  0710                     	;# 
  1340  0711                     	;# 
  1341  0712                     	;# 
  1342  0713                     	;# 
  1343  0714                     	;# 
  1344  0716                     	;# 
  1345  0717                     	;# 
  1346  0718                     	;# 
  1347  0719                     	;# 
  1348  071A                     	;# 
  1349  071B                     	;# 
  1350  071C                     	;# 
  1351  071D                     	;# 
  1352  071E                     	;# 
  1353  0796                     	;# 
  1354  0797                     	;# 
  1355  0798                     	;# 
  1356  0799                     	;# 
  1357  079A                     	;# 
  1358  079B                     	;# 
  1359  080C                     	;# 
  1360  080D                     	;# 
  1361  080E                     	;# 
  1362  080F                     	;# 
  1363  0810                     	;# 
  1364  0811                     	;# 
  1365  0812                     	;# 
  1366  0813                     	;# 
  1367  0814                     	;# 
  1368  081A                     	;# 
  1369  081B                     	;# 
  1370  081C                     	;# 
  1371  081D                     	;# 
  1372  081E                     	;# 
  1373  081F                     	;# 
  1374  088C                     	;# 
  1375  088D                     	;# 
  1376  088E                     	;# 
  1377  088F                     	;# 
  1378  0890                     	;# 
  1379  0891                     	;# 
  1380  0892                     	;# 
  1381  0893                     	;# 
  1382  0895                     	;# 
  1383  0896                     	;# 
  1384  0897                     	;# 
  1385  0898                     	;# 
  1386  0899                     	;# 
  1387  089A                     	;# 
  1388  089B                     	;# 
  1389  090C                     	;# 
  1390  090E                     	;# 
  1391  090F                     	;# 
  1392  091F                     	;# 
  1393  098F                     	;# 
  1394  098F                     	;# 
  1395  0990                     	;# 
  1396  0991                     	;# 
  1397  0992                     	;# 
  1398  0993                     	;# 
  1399  0994                     	;# 
  1400  0995                     	;# 
  1401  0996                     	;# 
  1402  0997                     	;# 
  1403  0E0F                     	;# 
  1404  0E10                     	;# 
  1405  0E11                     	;# 
  1406  0E12                     	;# 
  1407  0E13                     	;# 
  1408  0E14                     	;# 
  1409  0E15                     	;# 
  1410  0E16                     	;# 
  1411  0E17                     	;# 
  1412  0E18                     	;# 
  1413  0E19                     	;# 
  1414  0E1A                     	;# 
  1415  0E1B                     	;# 
  1416  0E1C                     	;# 
  1417  0E1D                     	;# 
  1418  0E1E                     	;# 
  1419  0E1F                     	;# 
  1420  0E20                     	;# 
  1421  0E21                     	;# 
  1422  0E22                     	;# 
  1423  0E23                     	;# 
  1424  0E24                     	;# 
  1425  0E25                     	;# 
  1426  0E26                     	;# 
  1427  0E27                     	;# 
  1428  0E28                     	;# 
  1429  0E29                     	;# 
  1430  0E2A                     	;# 
  1431  0E2B                     	;# 
  1432  0E2C                     	;# 
  1433  0E2D                     	;# 
  1434  0E2E                     	;# 
  1435  0E2F                     	;# 
  1436  0E30                     	;# 
  1437  0E31                     	;# 
  1438  0E32                     	;# 
  1439  0E33                     	;# 
  1440  0E34                     	;# 
  1441  0E35                     	;# 
  1442  0E36                     	;# 
  1443  0E37                     	;# 
  1444  0E8F                     	;# 
  1445  0E90                     	;# 
  1446  0E91                     	;# 
  1447  0E92                     	;# 
  1448  0E93                     	;# 
  1449  0E94                     	;# 
  1450  0E95                     	;# 
  1451  0E96                     	;# 
  1452  0E97                     	;# 
  1453  0E9C                     	;# 
  1454  0E9D                     	;# 
  1455  0E9E                     	;# 
  1456  0EA1                     	;# 
  1457  0EA2                     	;# 
  1458  0EA3                     	;# 
  1459  0EA4                     	;# 
  1460  0EA5                     	;# 
  1461  0EA9                     	;# 
  1462  0EAA                     	;# 
  1463  0EAB                     	;# 
  1464  0EAC                     	;# 
  1465  0EB1                     	;# 
  1466  0EB2                     	;# 
  1467  0EB3                     	;# 
  1468  0EB8                     	;# 
  1469  0EB9                     	;# 
  1470  0EBA                     	;# 
  1471  0EBB                     	;# 
  1472  0EBC                     	;# 
  1473  0EBD                     	;# 
  1474  0EBE                     	;# 
  1475  0EC3                     	;# 
  1476  0EC5                     	;# 
  1477  0EC6                     	;# 
  1478  0EC7                     	;# 
  1479  0EC8                     	;# 
  1480  0EC9                     	;# 
  1481  0ECA                     	;# 
  1482  0ECB                     	;# 
  1483  0ECC                     	;# 
  1484  0F10                     	;# 
  1485  0F11                     	;# 
  1486  0F12                     	;# 
  1487  0F13                     	;# 
  1488  0F14                     	;# 
  1489  0F15                     	;# 
  1490  0F16                     	;# 
  1491  0F17                     	;# 
  1492  0F18                     	;# 
  1493  0F19                     	;# 
  1494  0F1A                     	;# 
  1495  0F1B                     	;# 
  1496  0F1C                     	;# 
  1497  0F1D                     	;# 
  1498  0F1E                     	;# 
  1499  0F1F                     	;# 
  1500  0F20                     	;# 
  1501  0F21                     	;# 
  1502  0F22                     	;# 
  1503  0F23                     	;# 
  1504  0F24                     	;# 
  1505  0F25                     	;# 
  1506  0F26                     	;# 
  1507  0F27                     	;# 
  1508  0F38                     	;# 
  1509  0F39                     	;# 
  1510  0F3A                     	;# 
  1511  0F3B                     	;# 
  1512  0F3C                     	;# 
  1513  0F3D                     	;# 
  1514  0F3E                     	;# 
  1515  0F3F                     	;# 
  1516  0F40                     	;# 
  1517  0F41                     	;# 
  1518  0F43                     	;# 
  1519  0F44                     	;# 
  1520  0F45                     	;# 
  1521  0F46                     	;# 
  1522  0F47                     	;# 
  1523  0F48                     	;# 
  1524  0F49                     	;# 
  1525  0F4A                     	;# 
  1526  0F4B                     	;# 
  1527  0F4C                     	;# 
  1528  0F4E                     	;# 
  1529  0F4F                     	;# 
  1530  0F50                     	;# 
  1531  0F51                     	;# 
  1532  0F52                     	;# 
  1533  0F53                     	;# 
  1534  0F54                     	;# 
  1535  0F55                     	;# 
  1536  0F56                     	;# 
  1537  0F57                     	;# 
  1538  0F65                     	;# 
  1539  0F68                     	;# 
  1540  0F69                     	;# 
  1541  0F6A                     	;# 
  1542  0F6B                     	;# 
  1543  0FE4                     	;# 
  1544  0FE5                     	;# 
  1545  0FE6                     	;# 
  1546  0FE7                     	;# 
  1547  0FE8                     	;# 
  1548  0FE9                     	;# 
  1549  0FEA                     	;# 
  1550  0FEB                     	;# 
  1551  0FED                     	;# 
  1552  0FEE                     	;# 
  1553  0FEF                     	;# 
  1554                           
  1555                           	psect	stringtext
  1556  0800                     __pstringtext:	
  1557  0800                     _System5x7:	
  1558  0800  3400               	retlw	0
  1559  0801  3400               	retlw	0
  1560  0802  3405               	retlw	5
  1561  0803  3407               	retlw	7
  1562  0804  3420               	retlw	32
  1563  0805  347F               	retlw	127
  1564  0806  3400               	retlw	0
  1565  0807  3400               	retlw	0
  1566  0808  3400               	retlw	0
  1567  0809  3400               	retlw	0
  1568  080A  3400               	retlw	0
  1569  080B  3400               	retlw	0
  1570  080C  3400               	retlw	0
  1571  080D  345F               	retlw	95
  1572  080E  3400               	retlw	0
  1573  080F  3400               	retlw	0
  1574  0810  3400               	retlw	0
  1575  0811  3407               	retlw	7
  1576  0812  3400               	retlw	0
  1577  0813  3407               	retlw	7
  1578  0814  3400               	retlw	0
  1579  0815  3414               	retlw	20
  1580  0816  347F               	retlw	127
  1581  0817  3414               	retlw	20
  1582  0818  347F               	retlw	127
  1583  0819  3414               	retlw	20
  1584  081A  3424               	retlw	36
  1585  081B  342A               	retlw	42
  1586  081C  347F               	retlw	127
  1587  081D  342A               	retlw	42
  1588  081E  3412               	retlw	18
  1589  081F  3423               	retlw	35
  1590  0820  3413               	retlw	19
  1591  0821  3408               	retlw	8
  1592  0822  3464               	retlw	100
  1593  0823  3462               	retlw	98
  1594  0824  3436               	retlw	54
  1595  0825  3449               	retlw	73
  1596  0826  3455               	retlw	85
  1597  0827  3422               	retlw	34
  1598  0828  3450               	retlw	80
  1599  0829  3400               	retlw	0
  1600  082A  3405               	retlw	5
  1601  082B  3403               	retlw	3
  1602  082C  3400               	retlw	0
  1603  082D  3400               	retlw	0
  1604  082E  3400               	retlw	0
  1605  082F  341C               	retlw	28
  1606  0830  3422               	retlw	34
  1607  0831  3441               	retlw	65
  1608  0832  3400               	retlw	0
  1609  0833  3400               	retlw	0
  1610  0834  3441               	retlw	65
  1611  0835  3422               	retlw	34
  1612  0836  341C               	retlw	28
  1613  0837  3400               	retlw	0
  1614  0838  3408               	retlw	8
  1615  0839  342A               	retlw	42
  1616  083A  341C               	retlw	28
  1617  083B  342A               	retlw	42
  1618  083C  3408               	retlw	8
  1619  083D  3408               	retlw	8
  1620  083E  3408               	retlw	8
  1621  083F  343E               	retlw	62
  1622  0840  3408               	retlw	8
  1623  0841  3408               	retlw	8
  1624  0842  3400               	retlw	0
  1625  0843  3450               	retlw	80
  1626  0844  3430               	retlw	48
  1627  0845  3400               	retlw	0
  1628  0846  3400               	retlw	0
  1629  0847  3408               	retlw	8
  1630  0848  3408               	retlw	8
  1631  0849  3408               	retlw	8
  1632  084A  3408               	retlw	8
  1633  084B  3408               	retlw	8
  1634  084C  3400               	retlw	0
  1635  084D  3460               	retlw	96
  1636  084E  3460               	retlw	96
  1637  084F  3400               	retlw	0
  1638  0850  3400               	retlw	0
  1639  0851  3420               	retlw	32
  1640  0852  3410               	retlw	16
  1641  0853  3408               	retlw	8
  1642  0854  3404               	retlw	4
  1643  0855  3402               	retlw	2
  1644  0856  343E               	retlw	62
  1645  0857  3451               	retlw	81
  1646  0858  3449               	retlw	73
  1647  0859  3445               	retlw	69
  1648  085A  343E               	retlw	62
  1649  085B  3400               	retlw	0
  1650  085C  3442               	retlw	66
  1651  085D  347F               	retlw	127
  1652  085E  3440               	retlw	64
  1653  085F  3400               	retlw	0
  1654  0860  3442               	retlw	66
  1655  0861  3461               	retlw	97
  1656  0862  3451               	retlw	81
  1657  0863  3449               	retlw	73
  1658  0864  3446               	retlw	70
  1659  0865  3421               	retlw	33
  1660  0866  3441               	retlw	65
  1661  0867  3445               	retlw	69
  1662  0868  344B               	retlw	75
  1663  0869  3431               	retlw	49
  1664  086A  3418               	retlw	24
  1665  086B  3414               	retlw	20
  1666  086C  3412               	retlw	18
  1667  086D  347F               	retlw	127
  1668  086E  3410               	retlw	16
  1669  086F  3427               	retlw	39
  1670  0870  3445               	retlw	69
  1671  0871  3445               	retlw	69
  1672  0872  3445               	retlw	69
  1673  0873  3439               	retlw	57
  1674  0874  343C               	retlw	60
  1675  0875  344A               	retlw	74
  1676  0876  3449               	retlw	73
  1677  0877  3449               	retlw	73
  1678  0878  3430               	retlw	48
  1679  0879  3401               	retlw	1
  1680  087A  3471               	retlw	113
  1681  087B  3409               	retlw	9
  1682  087C  3405               	retlw	5
  1683  087D  3403               	retlw	3
  1684  087E  3436               	retlw	54
  1685  087F  3449               	retlw	73
  1686  0880  3449               	retlw	73
  1687  0881  3449               	retlw	73
  1688  0882  3436               	retlw	54
  1689  0883  3406               	retlw	6
  1690  0884  3449               	retlw	73
  1691  0885  3449               	retlw	73
  1692  0886  3429               	retlw	41
  1693  0887  341E               	retlw	30
  1694  0888  3400               	retlw	0
  1695  0889  3436               	retlw	54
  1696  088A  3436               	retlw	54
  1697  088B  3400               	retlw	0
  1698  088C  3400               	retlw	0
  1699  088D  3400               	retlw	0
  1700  088E  3456               	retlw	86
  1701  088F  3436               	retlw	54
  1702  0890  3400               	retlw	0
  1703  0891  3400               	retlw	0
  1704  0892  3400               	retlw	0
  1705  0893  3408               	retlw	8
  1706  0894  3414               	retlw	20
  1707  0895  3422               	retlw	34
  1708  0896  3441               	retlw	65
  1709  0897  3414               	retlw	20
  1710  0898  3414               	retlw	20
  1711  0899  3414               	retlw	20
  1712  089A  3414               	retlw	20
  1713  089B  3414               	retlw	20
  1714  089C  3441               	retlw	65
  1715  089D  3422               	retlw	34
  1716  089E  3414               	retlw	20
  1717  089F  3408               	retlw	8
  1718  08A0  3400               	retlw	0
  1719  08A1  3402               	retlw	2
  1720  08A2  3401               	retlw	1
  1721  08A3  3451               	retlw	81
  1722  08A4  3409               	retlw	9
  1723  08A5  3406               	retlw	6
  1724  08A6  3432               	retlw	50
  1725  08A7  3449               	retlw	73
  1726  08A8  3479               	retlw	121
  1727  08A9  3441               	retlw	65
  1728  08AA  343E               	retlw	62
  1729  08AB  347E               	retlw	126
  1730  08AC  3411               	retlw	17
  1731  08AD  3411               	retlw	17
  1732  08AE  3411               	retlw	17
  1733  08AF  347E               	retlw	126
  1734  08B0  347F               	retlw	127
  1735  08B1  3449               	retlw	73
  1736  08B2  3449               	retlw	73
  1737  08B3  3449               	retlw	73
  1738  08B4  3436               	retlw	54
  1739  08B5  343E               	retlw	62
  1740  08B6  3441               	retlw	65
  1741  08B7  3441               	retlw	65
  1742  08B8  3441               	retlw	65
  1743  08B9  3422               	retlw	34
  1744  08BA  347F               	retlw	127
  1745  08BB  3441               	retlw	65
  1746  08BC  3441               	retlw	65
  1747  08BD  3422               	retlw	34
  1748  08BE  341C               	retlw	28
  1749  08BF  347F               	retlw	127
  1750  08C0  3449               	retlw	73
  1751  08C1  3449               	retlw	73
  1752  08C2  3449               	retlw	73
  1753  08C3  3441               	retlw	65
  1754  08C4  347F               	retlw	127
  1755  08C5  3409               	retlw	9
  1756  08C6  3409               	retlw	9
  1757  08C7  3401               	retlw	1
  1758  08C8  3401               	retlw	1
  1759  08C9  343E               	retlw	62
  1760  08CA  3441               	retlw	65
  1761  08CB  3441               	retlw	65
  1762  08CC  3451               	retlw	81
  1763  08CD  3432               	retlw	50
  1764  08CE  347F               	retlw	127
  1765  08CF  3408               	retlw	8
  1766  08D0  3408               	retlw	8
  1767  08D1  3408               	retlw	8
  1768  08D2  347F               	retlw	127
  1769  08D3  3400               	retlw	0
  1770  08D4  3441               	retlw	65
  1771  08D5  347F               	retlw	127
  1772  08D6  3441               	retlw	65
  1773  08D7  3400               	retlw	0
  1774  08D8  3420               	retlw	32
  1775  08D9  3440               	retlw	64
  1776  08DA  3441               	retlw	65
  1777  08DB  343F               	retlw	63
  1778  08DC  3401               	retlw	1
  1779  08DD  347F               	retlw	127
  1780  08DE  3408               	retlw	8
  1781  08DF  3414               	retlw	20
  1782  08E0  3422               	retlw	34
  1783  08E1  3441               	retlw	65
  1784  08E2  347F               	retlw	127
  1785  08E3  3440               	retlw	64
  1786  08E4  3440               	retlw	64
  1787  08E5  3440               	retlw	64
  1788  08E6  3440               	retlw	64
  1789  08E7  347F               	retlw	127
  1790  08E8  3402               	retlw	2
  1791  08E9  3404               	retlw	4
  1792  08EA  3402               	retlw	2
  1793  08EB  347F               	retlw	127
  1794  08EC  347F               	retlw	127
  1795  08ED  3404               	retlw	4
  1796  08EE  3408               	retlw	8
  1797  08EF  3410               	retlw	16
  1798  08F0  347F               	retlw	127
  1799  08F1  343E               	retlw	62
  1800  08F2  3441               	retlw	65
  1801  08F3  3441               	retlw	65
  1802  08F4  3441               	retlw	65
  1803  08F5  343E               	retlw	62
  1804  08F6  347F               	retlw	127
  1805  08F7  3409               	retlw	9
  1806  08F8  3409               	retlw	9
  1807  08F9  3409               	retlw	9
  1808  08FA  3406               	retlw	6
  1809  08FB  343E               	retlw	62
  1810  08FC  3441               	retlw	65
  1811  08FD  3451               	retlw	81
  1812  08FE  3421               	retlw	33
  1813  08FF  345E               	retlw	94
  1814  0900  347F               	retlw	127
  1815  0901  3409               	retlw	9
  1816  0902  3419               	retlw	25
  1817  0903  3429               	retlw	41
  1818  0904  3446               	retlw	70
  1819  0905  3446               	retlw	70
  1820  0906  3449               	retlw	73
  1821  0907  3449               	retlw	73
  1822  0908  3449               	retlw	73
  1823  0909  3431               	retlw	49
  1824  090A  3401               	retlw	1
  1825  090B  3401               	retlw	1
  1826  090C  347F               	retlw	127
  1827  090D  3401               	retlw	1
  1828  090E  3401               	retlw	1
  1829  090F  343F               	retlw	63
  1830  0910  3440               	retlw	64
  1831  0911  3440               	retlw	64
  1832  0912  3440               	retlw	64
  1833  0913  343F               	retlw	63
  1834  0914  341F               	retlw	31
  1835  0915  3420               	retlw	32
  1836  0916  3440               	retlw	64
  1837  0917  3420               	retlw	32
  1838  0918  341F               	retlw	31
  1839  0919  347F               	retlw	127
  1840  091A  3420               	retlw	32
  1841  091B  3418               	retlw	24
  1842  091C  3420               	retlw	32
  1843  091D  347F               	retlw	127
  1844  091E  3463               	retlw	99
  1845  091F  3414               	retlw	20
  1846  0920  3408               	retlw	8
  1847  0921  3414               	retlw	20
  1848  0922  3463               	retlw	99
  1849  0923  3403               	retlw	3
  1850  0924  3404               	retlw	4
  1851  0925  3478               	retlw	120
  1852  0926  3404               	retlw	4
  1853  0927  3403               	retlw	3
  1854  0928  3461               	retlw	97
  1855  0929  3451               	retlw	81
  1856  092A  3449               	retlw	73
  1857  092B  3445               	retlw	69
  1858  092C  3443               	retlw	67
  1859  092D  3400               	retlw	0
  1860  092E  3400               	retlw	0
  1861  092F  347F               	retlw	127
  1862  0930  3441               	retlw	65
  1863  0931  3441               	retlw	65
  1864  0932  3402               	retlw	2
  1865  0933  3404               	retlw	4
  1866  0934  3408               	retlw	8
  1867  0935  3410               	retlw	16
  1868  0936  3420               	retlw	32
  1869  0937  3441               	retlw	65
  1870  0938  3441               	retlw	65
  1871  0939  347F               	retlw	127
  1872  093A  3400               	retlw	0
  1873  093B  3400               	retlw	0
  1874  093C  3404               	retlw	4
  1875  093D  3402               	retlw	2
  1876  093E  3401               	retlw	1
  1877  093F  3402               	retlw	2
  1878  0940  3404               	retlw	4
  1879  0941  3440               	retlw	64
  1880  0942  3440               	retlw	64
  1881  0943  3440               	retlw	64
  1882  0944  3440               	retlw	64
  1883  0945  3440               	retlw	64
  1884  0946  3400               	retlw	0
  1885  0947  3401               	retlw	1
  1886  0948  3402               	retlw	2
  1887  0949  3404               	retlw	4
  1888  094A  3400               	retlw	0
  1889  094B  3420               	retlw	32
  1890  094C  3454               	retlw	84
  1891  094D  3454               	retlw	84
  1892  094E  3454               	retlw	84
  1893  094F  3478               	retlw	120
  1894  0950  347F               	retlw	127
  1895  0951  3448               	retlw	72
  1896  0952  3444               	retlw	68
  1897  0953  3444               	retlw	68
  1898  0954  3438               	retlw	56
  1899  0955  3438               	retlw	56
  1900  0956  3444               	retlw	68
  1901  0957  3444               	retlw	68
  1902  0958  3444               	retlw	68
  1903  0959  3420               	retlw	32
  1904  095A  3438               	retlw	56
  1905  095B  3444               	retlw	68
  1906  095C  3444               	retlw	68
  1907  095D  3448               	retlw	72
  1908  095E  347F               	retlw	127
  1909  095F  3438               	retlw	56
  1910  0960  3454               	retlw	84
  1911  0961  3454               	retlw	84
  1912  0962  3454               	retlw	84
  1913  0963  3418               	retlw	24
  1914  0964  3408               	retlw	8
  1915  0965  347E               	retlw	126
  1916  0966  3409               	retlw	9
  1917  0967  3401               	retlw	1
  1918  0968  3402               	retlw	2
  1919  0969  3408               	retlw	8
  1920  096A  3414               	retlw	20
  1921  096B  3454               	retlw	84
  1922  096C  3454               	retlw	84
  1923  096D  343C               	retlw	60
  1924  096E  347F               	retlw	127
  1925  096F  3408               	retlw	8
  1926  0970  3404               	retlw	4
  1927  0971  3404               	retlw	4
  1928  0972  3478               	retlw	120
  1929  0973  3400               	retlw	0
  1930  0974  3444               	retlw	68
  1931  0975  347D               	retlw	125
  1932  0976  3440               	retlw	64
  1933  0977  3400               	retlw	0
  1934  0978  3420               	retlw	32
  1935  0979  3440               	retlw	64
  1936  097A  3444               	retlw	68
  1937  097B  343D               	retlw	61
  1938  097C  3400               	retlw	0
  1939  097D  3400               	retlw	0
  1940  097E  347F               	retlw	127
  1941  097F  3410               	retlw	16
  1942  0980  3428               	retlw	40
  1943  0981  3444               	retlw	68
  1944  0982  3400               	retlw	0
  1945  0983  3441               	retlw	65
  1946  0984  347F               	retlw	127
  1947  0985  3440               	retlw	64
  1948  0986  3400               	retlw	0
  1949  0987  347C               	retlw	124
  1950  0988  3404               	retlw	4
  1951  0989  3418               	retlw	24
  1952  098A  3404               	retlw	4
  1953  098B  3478               	retlw	120
  1954  098C  347C               	retlw	124
  1955  098D  3408               	retlw	8
  1956  098E  3404               	retlw	4
  1957  098F  3404               	retlw	4
  1958  0990  3478               	retlw	120
  1959  0991  3438               	retlw	56
  1960  0992  3444               	retlw	68
  1961  0993  3444               	retlw	68
  1962  0994  3444               	retlw	68
  1963  0995  3438               	retlw	56
  1964  0996  347C               	retlw	124
  1965  0997  3414               	retlw	20
  1966  0998  3414               	retlw	20
  1967  0999  3414               	retlw	20
  1968  099A  3408               	retlw	8
  1969  099B  3408               	retlw	8
  1970  099C  3414               	retlw	20
  1971  099D  3414               	retlw	20
  1972  099E  3418               	retlw	24
  1973  099F  347C               	retlw	124
  1974  09A0  347C               	retlw	124
  1975  09A1  3408               	retlw	8
  1976  09A2  3404               	retlw	4
  1977  09A3  3404               	retlw	4
  1978  09A4  3408               	retlw	8
  1979  09A5  3448               	retlw	72
  1980  09A6  3454               	retlw	84
  1981  09A7  3454               	retlw	84
  1982  09A8  3454               	retlw	84
  1983  09A9  3420               	retlw	32
  1984  09AA  3404               	retlw	4
  1985  09AB  343F               	retlw	63
  1986  09AC  3444               	retlw	68
  1987  09AD  3440               	retlw	64
  1988  09AE  3420               	retlw	32
  1989  09AF  343C               	retlw	60
  1990  09B0  3440               	retlw	64
  1991  09B1  3440               	retlw	64
  1992  09B2  3420               	retlw	32
  1993  09B3  347C               	retlw	124
  1994  09B4  341C               	retlw	28
  1995  09B5  3420               	retlw	32
  1996  09B6  3440               	retlw	64
  1997  09B7  3420               	retlw	32
  1998  09B8  341C               	retlw	28
  1999  09B9  343C               	retlw	60
  2000  09BA  3440               	retlw	64
  2001  09BB  3430               	retlw	48
  2002  09BC  3440               	retlw	64
  2003  09BD  343C               	retlw	60
  2004  09BE  3444               	retlw	68
  2005  09BF  3428               	retlw	40
  2006  09C0  3410               	retlw	16
  2007  09C1  3428               	retlw	40
  2008  09C2  3444               	retlw	68
  2009  09C3  340C               	retlw	12
  2010  09C4  3450               	retlw	80
  2011  09C5  3450               	retlw	80
  2012  09C6  3450               	retlw	80
  2013  09C7  343C               	retlw	60
  2014  09C8  3444               	retlw	68
  2015  09C9  3464               	retlw	100
  2016  09CA  3454               	retlw	84
  2017  09CB  344C               	retlw	76
  2018  09CC  3444               	retlw	68
  2019  09CD  3400               	retlw	0
  2020  09CE  3408               	retlw	8
  2021  09CF  3436               	retlw	54
  2022  09D0  3441               	retlw	65
  2023  09D1  3400               	retlw	0
  2024  09D2  3400               	retlw	0
  2025  09D3  3400               	retlw	0
  2026  09D4  347F               	retlw	127
  2027  09D5  3400               	retlw	0
  2028  09D6  3400               	retlw	0
  2029  09D7  3400               	retlw	0
  2030  09D8  3441               	retlw	65
  2031  09D9  3436               	retlw	54
  2032  09DA  3408               	retlw	8
  2033  09DB  3400               	retlw	0
  2034  09DC  3408               	retlw	8
  2035  09DD  3408               	retlw	8
  2036  09DE  342A               	retlw	42
  2037  09DF  341C               	retlw	28
  2038  09E0  3408               	retlw	8
  2039  09E1  3408               	retlw	8
  2040  09E2  341C               	retlw	28
  2041  09E3  342A               	retlw	42
  2042  09E4  3408               	retlw	8
  2043  09E5  3408               	retlw	8
  2044  09E6                     __end_of_System5x7:	
  2045  0016                     _LATA	set	22
  2046  0017                     _LATB	set	23
  2047  0018                     _LATC	set	24
  2048  000C                     _PORTA	set	12
  2049  000D                     _PORTB	set	13
  2050  000D                     _PORTBbits	set	13
  2051  000E                     _PORTC	set	14
  2052  0011                     _TRISA	set	17
  2053  0012                     _TRISB	set	18
  2054  0013                     _TRISC	set	19
  2055  0063                     _RA3	set	99
  2056  0F38                     _ANSELA	set	3896
  2057  0F43                     _ANSELB	set	3907
  2058  0F4E                     _ANSELC	set	3918
  2059                           
  2060                           ; #config settings
  2061  0000                     
  2062                           	psect	cinit
  2063  07F4                     start_initialization:	
  2064  07F4                     __initialization:	
  2065                           
  2066                           ; Clear objects allocated to BANK0
  2067  07F4  01C8               	clrf	__pbssBANK0& (0+127)
  2068  07F5  01C9               	clrf	(__pbssBANK0+1)& (0+127)
  2069  07F6  01CA               	clrf	(__pbssBANK0+2)& (0+127)
  2070  07F7  01CB               	clrf	(__pbssBANK0+3)& (0+127)
  2071  07F8  01CC               	clrf	(__pbssBANK0+4)& (0+127)
  2072  07F9  01CD               	clrf	(__pbssBANK0+5)& (0+127)
  2073  07FA  01CE               	clrf	(__pbssBANK0+6)& (0+127)
  2074  07FB  01CF               	clrf	(__pbssBANK0+7)& (0+127)
  2075  07FC  01D0               	clrf	(__pbssBANK0+8)& (0+127)
  2076  07FD                     end_of_initialization:	
  2077                           ;End of C runtime variable initialization code
  2078                           
  2079  07FD                     __end_of__initialization:	
  2080  07FD  0020               	movlb	0
  2081  07FE  3184  2C17         	ljmp	_main	;jump to C main() function
  2082                           
  2083                           	psect	bssBANK0
  2084  0048                     __pbssBANK0:	
  2085  0048                     _GLCD_Font:	
  2086  0048                     	ds	2
  2087  004A                     _GLCD_FontRead:	
  2088  004A                     	ds	2
  2089  004C                     _GLCD_FontColor:	
  2090  004C                     	ds	1
  2091  004D                     _GLCD_Inverted:	
  2092  004D                     	ds	1
  2093  004E                     _GLCD_Coord:	
  2094  004E                     	ds	3
  2095                           
  2096                           	psect	cstackCOMMON
  2097  0070                     __pcstackCOMMON:	
  2098  0070                     ?_GLCD_WriteData:	
  2099  0070                     ?_Init:	
  2100                           ; 0 bytes @ 0x0
  2101                           
  2102  0070                     ??_Init:	
  2103                           ; 0 bytes @ 0x0
  2104                           
  2105  0070                     ?_GLCD_ClearScreen:	
  2106                           ; 0 bytes @ 0x0
  2107                           
  2108  0070                     ?_GLCD_Init:	
  2109                           ; 0 bytes @ 0x0
  2110                           
  2111  0070                     ?_main:	
  2112                           ; 0 bytes @ 0x0
  2113                           
  2114  0070                     ?_GLCD_DoReadData:	
  2115                           ; 0 bytes @ 0x0
  2116                           
  2117  0070                     ?___awdiv:	
  2118                           ; 1 bytes @ 0x0
  2119                           
  2120  0070                     ___awdiv@divisor:	
  2121                           ; 2 bytes @ 0x0
  2122                           
  2123                           
  2124                           ; 2 bytes @ 0x0
  2125  0070                     	ds	2
  2126  0072                     ___awdiv@dividend:	
  2127                           
  2128                           ; 2 bytes @ 0x2
  2129  0072                     	ds	2
  2130  0074                     ??___awdiv:	
  2131                           
  2132                           ; 0 bytes @ 0x4
  2133  0074                     	ds	1
  2134  0075                     ___awdiv@counter:	
  2135                           
  2136                           ; 1 bytes @ 0x5
  2137  0075                     	ds	1
  2138  0076                     ___awdiv@sign:	
  2139                           
  2140                           ; 1 bytes @ 0x6
  2141  0076                     	ds	1
  2142  0077                     ___awdiv@quotient:	
  2143                           
  2144                           ; 2 bytes @ 0x7
  2145  0077                     	ds	2
  2146  0079                     ?_GLCD_GotoXY:	
  2147  0079                     GLCD_GotoXY@y:	
  2148                           ; 0 bytes @ 0x9
  2149                           
  2150                           
  2151                           ; 1 bytes @ 0x9
  2152  0079                     	ds	1
  2153  007A                     ??_GLCD_GotoXY:	
  2154                           
  2155                           ; 0 bytes @ 0xA
  2156  007A                     	ds	3
  2157  007D                     ?_GLCD_ClearPage:	
  2158  007D                     GLCD_ClearPage@color:	
  2159                           ; 0 bytes @ 0xD
  2160                           
  2161  007D                     GLCD_DrawRect@x:	
  2162                           ; 1 bytes @ 0xD
  2163                           
  2164                           
  2165                           ; 1 bytes @ 0xD
  2166  007D                     	ds	1
  2167                           
  2168                           	psect	cstackBANK0
  2169  0020                     __pcstackBANK0:	
  2170  0020                     GLCD_GotoXY@cmd:	
  2171                           
  2172                           ; 1 bytes @ 0x0
  2173  0020                     	ds	1
  2174  0021                     GLCD_GotoXY@x:	
  2175                           
  2176                           ; 1 bytes @ 0x1
  2177  0021                     	ds	1
  2178  0022                     GLCD_GotoXY@chip:	
  2179                           
  2180                           ; 1 bytes @ 0x2
  2181  0022                     	ds	1
  2182  0023                     ??_GLCD_DoReadData:	
  2183                           
  2184                           ; 0 bytes @ 0x3
  2185  0023                     	ds	3
  2186  0026                     GLCD_DoReadData@first:	
  2187                           
  2188                           ; 1 bytes @ 0x6
  2189  0026                     	ds	1
  2190  0027                     GLCD_DoReadData@data:	
  2191                           
  2192                           ; 1 bytes @ 0x7
  2193  0027                     	ds	1
  2194  0028                     GLCD_DoReadData@chip:	
  2195                           
  2196                           ; 1 bytes @ 0x8
  2197  0028                     	ds	1
  2198  0029                     ??_GLCD_WriteData:	
  2199                           
  2200                           ; 0 bytes @ 0x9
  2201  0029                     	ds	3
  2202  002C                     GLCD_WriteData@yOffset:	
  2203                           
  2204                           ; 1 bytes @ 0xC
  2205  002C                     	ds	1
  2206  002D                     GLCD_WriteData@data:	
  2207                           
  2208                           ; 1 bytes @ 0xD
  2209  002D                     	ds	1
  2210  002E                     GLCD_WriteData@displayData:	
  2211                           
  2212                           ; 1 bytes @ 0xE
  2213  002E                     	ds	1
  2214  002F                     GLCD_WriteData@chip:	
  2215                           
  2216                           ; 1 bytes @ 0xF
  2217  002F                     	ds	1
  2218  0030                     ?_GLCD_FillRect:	
  2219  0030                     ??_GLCD_ClearPage:	
  2220                           ; 0 bytes @ 0x10
  2221                           
  2222  0030                     GLCD_FillRect@y:	
  2223                           ; 0 bytes @ 0x10
  2224                           
  2225                           
  2226                           ; 1 bytes @ 0x10
  2227  0030                     	ds	1
  2228  0031                     GLCD_FillRect@width:	
  2229                           
  2230                           ; 1 bytes @ 0x11
  2231  0031                     	ds	1
  2232  0032                     GLCD_ClearPage@page:	
  2233  0032                     GLCD_FillRect@height:	
  2234                           ; 1 bytes @ 0x12
  2235                           
  2236                           
  2237                           ; 1 bytes @ 0x12
  2238  0032                     	ds	1
  2239  0033                     GLCD_ClearPage@x:	
  2240  0033                     GLCD_FillRect@color:	
  2241                           ; 1 bytes @ 0x13
  2242                           
  2243                           
  2244                           ; 1 bytes @ 0x13
  2245  0033                     	ds	1
  2246  0034                     ??_GLCD_FillRect:	
  2247  0034                     ??_GLCD_ClearScreen:	
  2248                           ; 0 bytes @ 0x14
  2249                           
  2250                           
  2251                           ; 0 bytes @ 0x14
  2252  0034                     	ds	2
  2253  0036                     GLCD_ClearScreen@color:	
  2254                           
  2255                           ; 1 bytes @ 0x16
  2256  0036                     	ds	1
  2257  0037                     GLCD_ClearScreen@page:	
  2258                           
  2259                           ; 1 bytes @ 0x17
  2260  0037                     	ds	1
  2261  0038                     ??_GLCD_Init:	
  2262  0038                     GLCD_FillRect@x:	
  2263                           ; 0 bytes @ 0x18
  2264                           
  2265                           
  2266                           ; 1 bytes @ 0x18
  2267  0038                     	ds	1
  2268  0039                     GLCD_FillRect@data:	
  2269                           
  2270                           ; 1 bytes @ 0x19
  2271  0039                     	ds	1
  2272  003A                     GLCD_FillRect@h:	
  2273  003A                     _GLCD_Init$270:	
  2274                           ; 1 bytes @ 0x1A
  2275                           
  2276                           
  2277                           ; 2 bytes @ 0x1A
  2278  003A                     	ds	1
  2279  003B                     GLCD_FillRect@pageOffset:	
  2280                           
  2281                           ; 1 bytes @ 0x1B
  2282  003B                     	ds	1
  2283  003C                     GLCD_FillRect@i:	
  2284  003C                     GLCD_Init@invert:	
  2285                           ; 1 bytes @ 0x1C
  2286                           
  2287                           
  2288                           ; 1 bytes @ 0x1C
  2289  003C                     	ds	1
  2290  003D                     GLCD_FillRect@mask:	
  2291  003D                     GLCD_Init@chip:	
  2292                           ; 1 bytes @ 0x1D
  2293                           
  2294                           
  2295                           ; 1 bytes @ 0x1D
  2296  003D                     	ds	1
  2297  003E                     ?_GLCD_DrawRect:	
  2298  003E                     GLCD_DrawRect@y:	
  2299                           ; 0 bytes @ 0x1E
  2300                           
  2301                           
  2302                           ; 1 bytes @ 0x1E
  2303  003E                     	ds	1
  2304  003F                     GLCD_DrawRect@width:	
  2305                           
  2306                           ; 1 bytes @ 0x1F
  2307  003F                     	ds	1
  2308  0040                     GLCD_DrawRect@height:	
  2309                           
  2310                           ; 1 bytes @ 0x20
  2311  0040                     	ds	1
  2312  0041                     GLCD_DrawRect@color:	
  2313                           
  2314                           ; 1 bytes @ 0x21
  2315  0041                     	ds	1
  2316  0042                     ??_GLCD_DrawRect:	
  2317                           
  2318                           ; 0 bytes @ 0x22
  2319  0042                     	ds	3
  2320  0045                     ??_main:	
  2321                           
  2322                           ; 0 bytes @ 0x25
  2323  0045                     	ds	3
  2324                           
  2325                           	psect	maintext
  2326  0417                     __pmaintext:	
  2327 ;;
  2328 ;;Main: autosize = 0, tempsize = 3, incstack = 0, save=0
  2329 ;;
  2330 ;; *************** function _main *****************
  2331 ;; Defined at:
  2332 ;;		line 8 in file "main.c"
  2333 ;; Parameters:    Size  Location     Type
  2334 ;;		None
  2335 ;; Auto vars:     Size  Location     Type
  2336 ;;		None
  2337 ;; Return value:  Size  Location     Type
  2338 ;;		None               void
  2339 ;; Registers used:
  2340 ;;		wreg, status,2, status,0, pclath, cstack
  2341 ;; Tracked objects:
  2342 ;;		On entry : B1F/0
  2343 ;;		On exit  : 0/0
  2344 ;;		Unchanged: 0/0
  2345 ;; Data sizes:     COMMON   BANK0   BANK1   BANK2   BANK3   BANK4   BANK5   BANK6   BANK7   BANK8   BANK9  BANK10  BANK1
      +1  BANK12
  2346 ;;      Params:         0       0       0       0       0       0       0       0       0       0       0       0       
      +0       0
  2347 ;;      Locals:         0       0       0       0       0       0       0       0       0       0       0       0       
      +0       0
  2348 ;;      Temps:          0       3       0       0       0       0       0       0       0       0       0       0       
      +0       0
  2349 ;;      Totals:         0       3       0       0       0       0       0       0       0       0       0       0       
      +0       0
  2350 ;;Total ram usage:        3 bytes
  2351 ;; Hardware stack levels required when called:    7
  2352 ;; This function calls:
  2353 ;;		_GLCD_DrawRect
  2354 ;;		_GLCD_Init
  2355 ;;		_Init
  2356 ;; This function is called by:
  2357 ;;		Startup code after reset
  2358 ;; This function uses a non-reentrant model
  2359 ;;
  2360                           
  2361                           
  2362                           ;psect for function _main
  2363  0417                     _main:	
  2364                           
  2365                           ;main.c: 10: Init();
  2366                           
  2367                           ;incstack = 0
  2368                           ; Regs used in _main: [wreg+status,2+status,0+pclath+cstack]
  2369  0417  3183  2325  3184   	fcall	_Init
  2370                           
  2371                           ;main.c: 11: RA3 = 1;
  2372  041A  0020               	movlb	0	; select bank0
  2373  041B  158C               	bsf	12,3	;volatile
  2374                           
  2375                           ;main.c: 12: _delay((unsigned long)((5000)*(1000000/4000.0)));
  2376  041C  3007               	movlw	7
  2377  041D  00C7               	movwf	??_main+2
  2378  041E  3058               	movlw	88
  2379  041F  00C6               	movwf	??_main+1
  2380  0420  305E               	movlw	94
  2381  0421  00C5               	movwf	??_main
  2382  0422                     u3307:	
  2383  0422  0BC5               	decfsz	??_main,f
  2384  0423  2C22               	goto	u3307
  2385  0424  0BC6               	decfsz	??_main+1,f
  2386  0425  2C22               	goto	u3307
  2387  0426  0BC7               	decfsz	??_main+2,f
  2388  0427  2C22               	goto	u3307
  2389  0428  3200               	nop2
  2390                           
  2391                           ;main.c: 13: RA3 = 0;
  2392  0429  0020               	movlb	0	; select bank0
  2393  042A  118C               	bcf	12,3	;volatile
  2394                           
  2395                           ;main.c: 14: _delay((unsigned long)((5000)*(1000000/4000.0)));
  2396  042B  3007               	movlw	7
  2397  042C  00C7               	movwf	??_main+2
  2398  042D  3058               	movlw	88
  2399  042E  00C6               	movwf	??_main+1
  2400  042F  305E               	movlw	94
  2401  0430  00C5               	movwf	??_main
  2402  0431                     u3317:	
  2403  0431  0BC5               	decfsz	??_main,f
  2404  0432  2C31               	goto	u3317
  2405  0433  0BC6               	decfsz	??_main+1,f
  2406  0434  2C31               	goto	u3317
  2407  0435  0BC7               	decfsz	??_main+2,f
  2408  0436  2C31               	goto	u3317
  2409  0437  3200               	nop2
  2410                           
  2411                           ;main.c: 15: GLCD_Init(1);
  2412  0438  3001               	movlw	1
  2413  0439  3184  24EB  3184   	fcall	_GLCD_Init
  2414                           
  2415                           ;main.c: 16: RA3 = 1;
  2416  043C  0020               	movlb	0	; select bank0
  2417  043D  158C               	bsf	12,3	;volatile
  2418                           
  2419                           ;main.c: 17: _delay((unsigned long)((5000)*(1000000/4000.0)));
  2420  043E  3007               	movlw	7
  2421  043F  00C7               	movwf	??_main+2
  2422  0440  3058               	movlw	88
  2423  0441  00C6               	movwf	??_main+1
  2424  0442  305E               	movlw	94
  2425  0443  00C5               	movwf	??_main
  2426  0444                     u3327:	
  2427  0444  0BC5               	decfsz	??_main,f
  2428  0445  2C44               	goto	u3327
  2429  0446  0BC6               	decfsz	??_main+1,f
  2430  0447  2C44               	goto	u3327
  2431  0448  0BC7               	decfsz	??_main+2,f
  2432  0449  2C44               	goto	u3327
  2433  044A  3200               	nop2
  2434                           
  2435                           ;main.c: 18: RA3 = 0;
  2436  044B  0020               	movlb	0	; select bank0
  2437  044C  118C               	bcf	12,3	;volatile
  2438  044D                     l2816:	
  2439                           ;main.c: 28: while(1)
  2440                           
  2441                           
  2442                           ;main.c: 29: {
  2443                           ;main.c: 30: RA3 = 1;
  2444  044D  0020               	movlb	0	; select bank0
  2445  044E  158C               	bsf	12,3	;volatile
  2446                           
  2447                           ;main.c: 31: _delay((unsigned long)((1000)*(1000000/4000.0)));
  2448  044F  3002               	movlw	2
  2449  0450  00C7               	movwf	??_main+2
  2450  0451  3045               	movlw	69
  2451  0452  00C6               	movwf	??_main+1
  2452  0453  30A9               	movlw	169
  2453  0454  00C5               	movwf	??_main
  2454  0455                     u3337:	
  2455  0455  0BC5               	decfsz	??_main,f
  2456  0456  2C55               	goto	u3337
  2457  0457  0BC6               	decfsz	??_main+1,f
  2458  0458  2C55               	goto	u3337
  2459  0459  0BC7               	decfsz	??_main+2,f
  2460  045A  2C55               	goto	u3337
  2461  045B  3200               	nop2
  2462                           
  2463                           ;main.c: 32: RA3 = 0;
  2464  045C  0020               	movlb	0	; select bank0
  2465  045D  118C               	bcf	12,3	;volatile
  2466                           
  2467                           ;main.c: 33: _delay((unsigned long)((1000)*(1000000/4000.0)));
  2468  045E  3002               	movlw	2
  2469  045F  00C7               	movwf	??_main+2
  2470  0460  3045               	movlw	69
  2471  0461  00C6               	movwf	??_main+1
  2472  0462  30A9               	movlw	169
  2473  0463  00C5               	movwf	??_main
  2474  0464                     u3347:	
  2475  0464  0BC5               	decfsz	??_main,f
  2476  0465  2C64               	goto	u3347
  2477  0466  0BC6               	decfsz	??_main+1,f
  2478  0467  2C64               	goto	u3347
  2479  0468  0BC7               	decfsz	??_main+2,f
  2480  0469  2C64               	goto	u3347
  2481  046A  3200               	nop2
  2482                           
  2483                           ;main.c: 34: GLCD_DrawRect(0, 0, 64, 61, 0xFF);
  2484  046B  0020               	movlb	0	; select bank0
  2485  046C  01BE               	clrf	GLCD_DrawRect@y
  2486  046D  3040               	movlw	64
  2487  046E  00C5               	movwf	??_main
  2488  046F  0845               	movf	??_main,w
  2489  0470  00BF               	movwf	GLCD_DrawRect@width
  2490  0471  303D               	movlw	61
  2491  0472  00C6               	movwf	??_main+1
  2492  0473  0846               	movf	??_main+1,w
  2493  0474  00C0               	movwf	GLCD_DrawRect@height
  2494  0475  30FF               	movlw	255
  2495  0476  00C7               	movwf	??_main+2
  2496  0477  0847               	movf	??_main+2,w
  2497  0478  00C1               	movwf	GLCD_DrawRect@color
  2498  0479  3000               	movlw	0
  2499  047A  3183  237B  3184   	fcall	_GLCD_DrawRect
  2500  047D  2C4D               	goto	l2816
  2501  047E                     __end_of_main:	
  2502                           
  2503                           	psect	text1
  2504  0325                     __ptext1:	
  2505 ;; *************** function _Init *****************
  2506 ;; Defined at:
  2507 ;;		line 42 in file "system.c"
  2508 ;; Parameters:    Size  Location     Type
  2509 ;;		None
  2510 ;; Auto vars:     Size  Location     Type
  2511 ;;		None
  2512 ;; Return value:  Size  Location     Type
  2513 ;;		None               void
  2514 ;; Registers used:
  2515 ;;		wreg, status,2
  2516 ;; Tracked objects:
  2517 ;;		On entry : 0/0
  2518 ;;		On exit  : 0/0
  2519 ;;		Unchanged: 0/0
  2520 ;; Data sizes:     COMMON   BANK0   BANK1   BANK2   BANK3   BANK4   BANK5   BANK6   BANK7   BANK8   BANK9  BANK10  BANK1
      +1  BANK12
  2521 ;;      Params:         0       0       0       0       0       0       0       0       0       0       0       0       
      +0       0
  2522 ;;      Locals:         0       0       0       0       0       0       0       0       0       0       0       0       
      +0       0
  2523 ;;      Temps:          0       0       0       0       0       0       0       0       0       0       0       0       
      +0       0
  2524 ;;      Totals:         0       0       0       0       0       0       0       0       0       0       0       0       
      +0       0
  2525 ;;Total ram usage:        0 bytes
  2526 ;; Hardware stack levels used:    1
  2527 ;; This function calls:
  2528 ;;		Nothing
  2529 ;; This function is called by:
  2530 ;;		_main
  2531 ;; This function uses a non-reentrant model
  2532 ;;
  2533                           
  2534                           
  2535                           ;psect for function _Init
  2536  0325                     _Init:	
  2537                           
  2538                           ;system.c: 44: TRISA = 0x00;
  2539                           
  2540                           ;incstack = 0
  2541                           ; Regs used in _Init: [wreg+status,2]
  2542  0325  0020               	movlb	0	; select bank0
  2543  0326  0191               	clrf	17	;volatile
  2544                           
  2545                           ;system.c: 45: TRISB = 0xFF;
  2546  0327  30FF               	movlw	255
  2547  0328  0092               	movwf	18	;volatile
  2548                           
  2549                           ;system.c: 46: TRISC = 0xFF;
  2550  0329  30FF               	movlw	255
  2551  032A  0093               	movwf	19	;volatile
  2552                           
  2553                           ;system.c: 48: PORTA = 0x00;
  2554  032B  018C               	clrf	12	;volatile
  2555                           
  2556                           ;system.c: 49: PORTB = 0x00;
  2557  032C  018D               	clrf	13	;volatile
  2558                           
  2559                           ;system.c: 50: PORTC = 0x00;
  2560  032D  018E               	clrf	14	;volatile
  2561                           
  2562                           ;system.c: 52: LATA = 0x00;
  2563  032E  0196               	clrf	22	;volatile
  2564                           
  2565                           ;system.c: 53: LATB = 0x00;
  2566  032F  0197               	clrf	23	;volatile
  2567                           
  2568                           ;system.c: 54: LATC = 0x00;
  2569  0330  0198               	clrf	24	;volatile
  2570                           
  2571                           ;system.c: 56: ANSELA = 0x00;
  2572  0331  003E               	movlb	30	; select bank30
  2573  0332  01B8               	clrf	56	;volatile
  2574                           
  2575                           ;system.c: 57: ANSELB = 0x00;
  2576  0333  01C3               	clrf	67	;volatile
  2577                           
  2578                           ;system.c: 58: ANSELC = 0x00;
  2579  0334  01CE               	clrf	78	;volatile
  2580  0335  0008               	return
  2581  0336                     __end_of_Init:	
  2582                           
  2583                           	psect	text2
  2584  04EB                     __ptext2:	
  2585 ;; *************** function _GLCD_Init *****************
  2586 ;; Defined at:
  2587 ;;		line 825 in file "GLCD.c"
  2588 ;; Parameters:    Size  Location     Type
  2589 ;;  invert          1    wreg     unsigned char 
  2590 ;; Auto vars:     Size  Location     Type
  2591 ;;  invert          1   28[BANK0 ] unsigned char 
  2592 ;;  chip            1   29[BANK0 ] unsigned char 
  2593 ;; Return value:  Size  Location     Type
  2594 ;;		None               void
  2595 ;; Registers used:
  2596 ;;		wreg, status,2, status,0, pclath, cstack
  2597 ;; Tracked objects:
  2598 ;;		On entry : 0/0
  2599 ;;		On exit  : 0/0
  2600 ;;		Unchanged: 0/0
  2601 ;; Data sizes:     COMMON   BANK0   BANK1   BANK2   BANK3   BANK4   BANK5   BANK6   BANK7   BANK8   BANK9  BANK10  BANK1
      +1  BANK12
  2602 ;;      Params:         0       0       0       0       0       0       0       0       0       0       0       0       
      +0       0
  2603 ;;      Locals:         0       4       0       0       0       0       0       0       0       0       0       0       
      +0       0
  2604 ;;      Temps:          0       2       0       0       0       0       0       0       0       0       0       0       
      +0       0
  2605 ;;      Totals:         0       6       0       0       0       0       0       0       0       0       0       0       
      +0       0
  2606 ;;Total ram usage:        6 bytes
  2607 ;; Hardware stack levels used:    1
  2608 ;; Hardware stack levels required when called:    6
  2609 ;; This function calls:
  2610 ;;		_GLCD_ClearScreen
  2611 ;;		_GLCD_GotoXY
  2612 ;; This function is called by:
  2613 ;;		_main
  2614 ;; This function uses a non-reentrant model
  2615 ;;
  2616                           
  2617                           
  2618                           ;psect for function _GLCD_Init
  2619  04EB                     _GLCD_Init:	
  2620                           
  2621                           ;incstack = 0
  2622                           ; Regs used in _GLCD_Init: [wreg+status,2+status,0+pclath+cstack]
  2623                           ;GLCD_Init@invert stored from wreg
  2624  04EB  0020               	movlb	0	; select bank0
  2625  04EC  00BC               	movwf	GLCD_Init@invert
  2626                           
  2627                           ;GLCD.c: 829: _delay((unsigned long)((10)*(1000000/4000.0)));
  2628  04ED  3004               	movlw	4
  2629  04EE  00B9               	movwf	??_GLCD_Init+1
  2630  04EF  303D               	movlw	61
  2631  04F0  00B8               	movwf	??_GLCD_Init
  2632  04F1                     u3357:	
  2633  04F1  0BB8               	decfsz	??_GLCD_Init,f
  2634  04F2  2CF1               	goto	u3357
  2635  04F3  0BB9               	decfsz	??_GLCD_Init+1,f
  2636  04F4  2CF1               	goto	u3357
  2637  04F5  3200               	nop2
  2638                           
  2639                           ;GLCD.c: 831: PORTBbits.RB2 = 0;
  2640  04F6  0020               	movlb	0	; select bank0
  2641  04F7  110D               	bcf	13,2	;volatile
  2642                           
  2643                           ;GLCD.c: 832: PORTBbits.RB3 = 0;
  2644  04F8  118D               	bcf	13,3	;volatile
  2645                           
  2646                           ;GLCD.c: 833: PORTBbits.RB4 = 0;
  2647  04F9  120D               	bcf	13,4	;volatile
  2648                           
  2649                           ;GLCD.c: 839: PORTBbits.RB5 = 0;
  2650  04FA  128D               	bcf	13,5	;volatile
  2651                           
  2652                           ;GLCD.c: 840: _delay((unsigned long)((2)*(1000000/4000.0)));
  2653  04FB  30A6               	movlw	166
  2654  04FC  00B8               	movwf	??_GLCD_Init
  2655  04FD                     u3367:	
  2656  04FD  0BB8               	decfsz	??_GLCD_Init,f
  2657  04FE  2CFD               	goto	u3367
  2658  04FF  0000               	nop
  2659                           
  2660                           ;GLCD.c: 841: PORTBbits.RB5 = 1;
  2661  0500  0020               	movlb	0	; select bank0
  2662  0501  168D               	bsf	13,5	;volatile
  2663                           
  2664                           ;GLCD.c: 855: _delay((unsigned long)((50)*(1000000/4000.0)));
  2665  0502  3011               	movlw	17
  2666  0503  00B9               	movwf	??_GLCD_Init+1
  2667  0504  303A               	movlw	58
  2668  0505  00B8               	movwf	??_GLCD_Init
  2669  0506                     u3377:	
  2670  0506  0BB8               	decfsz	??_GLCD_Init,f
  2671  0507  2D06               	goto	u3377
  2672  0508  0BB9               	decfsz	??_GLCD_Init+1,f
  2673  0509  2D06               	goto	u3377
  2674  050A  0000               	nop
  2675                           
  2676                           ;GLCD.c: 858: GLCD_Coord.x = 0;
  2677  050B  0020               	movlb	0	; select bank0
  2678  050C  01CE               	clrf	_GLCD_Coord
  2679                           
  2680                           ;GLCD.c: 859: GLCD_Coord.y = 0;
  2681  050D  01CF               	clrf	_GLCD_Coord+1
  2682                           
  2683                           ;GLCD.c: 860: GLCD_Coord.page = 0;
  2684  050E  01D0               	clrf	_GLCD_Coord+2
  2685                           
  2686                           ;GLCD.c: 862: GLCD_Inverted = invert;
  2687  050F  083C               	movf	GLCD_Init@invert,w
  2688  0510  00B8               	movwf	??_GLCD_Init
  2689  0511  0838               	movf	??_GLCD_Init,w
  2690  0512  00CD               	movwf	_GLCD_Inverted
  2691                           
  2692                           ;GLCD.c: 864: for (uint8_t chip = 0; chip < 128 / 64; chip++) {
  2693  0513  01BD               	clrf	GLCD_Init@chip
  2694  0514  3002               	movlw	2
  2695  0515  023D               	subwf	GLCD_Init@chip,w
  2696  0516  1803               	btfsc	3,0
  2697  0517  2D6E               	goto	l2598
  2698  0518                     l2524:	
  2699                           
  2700                           ;GLCD.c: 865: _delay((unsigned long)((10)*(1000000/4000.0)));
  2701  0518  3004               	movlw	4
  2702  0519  00B9               	movwf	??_GLCD_Init+1
  2703  051A  303D               	movlw	61
  2704  051B  00B8               	movwf	??_GLCD_Init
  2705  051C                     u3387:	
  2706  051C  0BB8               	decfsz	??_GLCD_Init,f
  2707  051D  2D1C               	goto	u3387
  2708  051E  0BB9               	decfsz	??_GLCD_Init+1,f
  2709  051F  2D1C               	goto	u3387
  2710  0520  3200               	nop2
  2711                           
  2712                           ;GLCD.c: 866: do { do { do { PORTBbits.RB0 = chip; PORTBbits.RB1 = !chip; } while (0); T
      +                          RISC = 0xFF; PORTBbits.RB2 = 0; PORTBbits.RB3 = 1; PORTBbits.RB4 = 1; _delay((unsigned l
      +                          ong)((2)*(1000000/4000000.0))); while (PORTC & 0x80); PORTBbits.RB4 = 0; } while (0); PO
  2713  0521  0020               	movlb	0	; select bank0
  2714  0522  083D               	movf	GLCD_Init@chip,w
  2715  0523  1D03               	skipz
  2716  0524  140D               	bsf	13,0	;volatile
  2717  0525  1903               	skipnz
  2718  0526  100D               	bcf	13,0	;volatile
  2719  0527  083D               	movf	GLCD_Init@chip,w
  2720  0528  1D03               	btfss	3,2
  2721  0529  2D2D               	goto	u2810
  2722  052A  0020               	movlb	0	; select bank0
  2723  052B  148D               	bsf	13,1	;volatile
  2724  052C  2D2F               	goto	l2528
  2725  052D                     u2810:	
  2726  052D  0020               	movlb	0	; select bank0
  2727  052E  108D               	bcf	13,1	;volatile
  2728  052F                     l2528:	
  2729  052F  30FF               	movlw	255
  2730  0530  0093               	movwf	19	;volatile
  2731  0531  110D               	bcf	13,2	;volatile
  2732  0532  158D               	bsf	13,3	;volatile
  2733  0533  160D               	bsf	13,4	;volatile
  2734  0534                     l327:	
  2735  0534  0020               	movlb	0	; select bank0
  2736  0535  1B8E               	btfsc	14,7	;volatile
  2737  0536  2D34               	goto	l327
  2738  0537  120D               	bcf	13,4	;volatile
  2739  0538  110D               	bcf	13,2	;volatile
  2740  0539  118D               	bcf	13,3	;volatile
  2741  053A  0193               	clrf	19	;volatile
  2742  053B  303F               	movlw	63
  2743  053C  0020               	movlb	0	; select bank0
  2744  053D  008E               	movwf	14	;volatile
  2745  053E  0020               	movlb	0	; select bank0
  2746  053F  160D               	bsf	13,4	;volatile
  2747  0540  0020               	movlb	0	; select bank0
  2748  0541  120D               	bcf	13,4	;volatile
  2749  0542  0020               	movlb	0	; select bank0
  2750  0543  018E               	clrf	14	;volatile
  2751                           
  2752                           ;GLCD.c: 867: do { do { do { PORTBbits.RB0 = chip; PORTBbits.RB1 = !chip; } while (0); T
      +                          RISC = 0xFF; PORTBbits.RB2 = 0; PORTBbits.RB3 = 1; PORTBbits.RB4 = 1; _delay((unsigned l
      +                          ong)((2)*(1000000/4000000.0))); while (PORTC & 0x80); PORTBbits.RB4 = 0; } while (0); PO
  2753  0544  083D               	movf	GLCD_Init@chip,w
  2754  0545  1D03               	skipz
  2755  0546  140D               	bsf	13,0	;volatile
  2756  0547  1903               	skipnz
  2757  0548  100D               	bcf	13,0	;volatile
  2758  0549  083D               	movf	GLCD_Init@chip,w
  2759  054A  1D03               	btfss	3,2
  2760  054B  2D4F               	goto	u2840
  2761  054C  0020               	movlb	0	; select bank0
  2762  054D  148D               	bsf	13,1	;volatile
  2763  054E  2D51               	goto	l2562
  2764  054F                     u2840:	
  2765  054F  0020               	movlb	0	; select bank0
  2766  0550  108D               	bcf	13,1	;volatile
  2767  0551                     l2562:	
  2768  0551  30FF               	movlw	255
  2769  0552  0093               	movwf	19	;volatile
  2770  0553  110D               	bcf	13,2	;volatile
  2771  0554  158D               	bsf	13,3	;volatile
  2772  0555  160D               	bsf	13,4	;volatile
  2773  0556                     l338:	
  2774  0556  0020               	movlb	0	; select bank0
  2775  0557  1B8E               	btfsc	14,7	;volatile
  2776  0558  2D56               	goto	l338
  2777  0559  120D               	bcf	13,4	;volatile
  2778  055A  110D               	bcf	13,2	;volatile
  2779  055B  118D               	bcf	13,3	;volatile
  2780  055C  0193               	clrf	19	;volatile
  2781  055D  30C0               	movlw	192
  2782  055E  0020               	movlb	0	; select bank0
  2783  055F  008E               	movwf	14	;volatile
  2784  0560  0020               	movlb	0	; select bank0
  2785  0561  160D               	bsf	13,4	;volatile
  2786  0562  0020               	movlb	0	; select bank0
  2787  0563  120D               	bcf	13,4	;volatile
  2788  0564  0020               	movlb	0	; select bank0
  2789  0565  018E               	clrf	14	;volatile
  2790  0566  3001               	movlw	1
  2791  0567  00B8               	movwf	??_GLCD_Init
  2792  0568  0838               	movf	??_GLCD_Init,w
  2793  0569  07BD               	addwf	GLCD_Init@chip,f
  2794  056A  3002               	movlw	2
  2795  056B  023D               	subwf	GLCD_Init@chip,w
  2796  056C  1C03               	skipc
  2797  056D  2D18               	goto	l2524
  2798  056E                     l2598:	
  2799                           
  2800                           ;GLCD.c: 868: }
  2801                           ;GLCD.c: 877: _delay((unsigned long)((50)*(1000000/4000.0)));
  2802  056E  3011               	movlw	17
  2803  056F  00B9               	movwf	??_GLCD_Init+1
  2804  0570  303A               	movlw	58
  2805  0571  00B8               	movwf	??_GLCD_Init
  2806  0572                     u3397:	
  2807  0572  0BB8               	decfsz	??_GLCD_Init,f
  2808  0573  2D72               	goto	u3397
  2809  0574  0BB9               	decfsz	??_GLCD_Init+1,f
  2810  0575  2D72               	goto	u3397
  2811  0576  0000               	nop
  2812                           
  2813                           ;GLCD.c: 880: GLCD_ClearScreen(invert ? 0xFF : 0x00);
  2814  0577  0020               	movlb	0	; select bank0
  2815  0578  083C               	movf	GLCD_Init@invert,w
  2816  0579  1D03               	btfss	3,2
  2817  057A  2D7E               	goto	l2604
  2818  057B  01BA               	clrf	_GLCD_Init$270
  2819  057C  01BB               	clrf	_GLCD_Init$270+1
  2820  057D  2D82               	goto	l2606
  2821  057E                     l2604:	
  2822  057E  30FF               	movlw	255
  2823  057F  00BA               	movwf	_GLCD_Init$270
  2824  0580  3000               	movlw	0
  2825  0581  00BB               	movwf	_GLCD_Init$270+1
  2826  0582                     l2606:	
  2827  0582  083A               	movf	_GLCD_Init$270,w
  2828  0583  3183  2356  3184   	fcall	_GLCD_ClearScreen
  2829                           
  2830                           ;GLCD.c: 881: GLCD_GotoXY(0, 0);
  2831  0586  01F9               	clrf	GLCD_GotoXY@y
  2832  0587  3000               	movlw	0
  2833  0588  3185  258B         	fcall	_GLCD_GotoXY
  2834  058A  0008               	return
  2835  058B                     __end_of_GLCD_Init:	
  2836                           
  2837                           	psect	text3
  2838  0356                     __ptext3:	
  2839 ;; *************** function _GLCD_ClearScreen *****************
  2840 ;; Defined at:
  2841 ;;		line 90 in file "GLCD.c"
  2842 ;; Parameters:    Size  Location     Type
  2843 ;;  color           1    wreg     unsigned char 
  2844 ;; Auto vars:     Size  Location     Type
  2845 ;;  color           1   22[BANK0 ] unsigned char 
  2846 ;;  page            1   23[BANK0 ] unsigned char 
  2847 ;; Return value:  Size  Location     Type
  2848 ;;		None               void
  2849 ;; Registers used:
  2850 ;;		wreg, status,2, status,0, pclath, cstack
  2851 ;; Tracked objects:
  2852 ;;		On entry : 0/0
  2853 ;;		On exit  : 0/0
  2854 ;;		Unchanged: 0/0
  2855 ;; Data sizes:     COMMON   BANK0   BANK1   BANK2   BANK3   BANK4   BANK5   BANK6   BANK7   BANK8   BANK9  BANK10  BANK1
      +1  BANK12
  2856 ;;      Params:         0       0       0       0       0       0       0       0       0       0       0       0       
      +0       0
  2857 ;;      Locals:         0       2       0       0       0       0       0       0       0       0       0       0       
      +0       0
  2858 ;;      Temps:          0       2       0       0       0       0       0       0       0       0       0       0       
      +0       0
  2859 ;;      Totals:         0       4       0       0       0       0       0       0       0       0       0       0       
      +0       0
  2860 ;;Total ram usage:        4 bytes
  2861 ;; Hardware stack levels used:    1
  2862 ;; Hardware stack levels required when called:    5
  2863 ;; This function calls:
  2864 ;;		_GLCD_ClearPage
  2865 ;;		_GLCD_GotoXY
  2866 ;; This function is called by:
  2867 ;;		_GLCD_Init
  2868 ;; This function uses a non-reentrant model
  2869 ;;
  2870                           
  2871                           
  2872                           ;psect for function _GLCD_ClearScreen
  2873  0356                     _GLCD_ClearScreen:	
  2874                           
  2875                           ;incstack = 0
  2876                           ; Regs used in _GLCD_ClearScreen: [wreg+status,2+status,0+pclath+cstack]
  2877                           ;GLCD_ClearScreen@color stored from wreg
  2878  0356  0020               	movlb	0	; select bank0
  2879  0357  00B6               	movwf	GLCD_ClearScreen@color
  2880                           
  2881                           ;GLCD.c: 92: uint8_t page;
  2882                           ;GLCD.c: 93: for (page = 0; page < 8; page++) {
  2883  0358  01B7               	clrf	GLCD_ClearScreen@page
  2884  0359                     L1:	
  2885  0359  3008               	movlw	8
  2886  035A  0237               	subwf	GLCD_ClearScreen@page,w
  2887  035B  1803               	btfsc	3,0
  2888  035C  0008               	return
  2889                           
  2890                           ;GLCD.c: 94: GLCD_GotoXY(0, page * 8);
  2891  035D  0837               	movf	GLCD_ClearScreen@page,w
  2892  035E  00B4               	movwf	??_GLCD_ClearScreen
  2893  035F  3002               	movlw	2
  2894  0360                     u2175:	
  2895  0360  35B4               	lslf	??_GLCD_ClearScreen,f
  2896  0361  3EFF               	addlw	-1
  2897  0362  1D03               	skipz
  2898  0363  2B60               	goto	u2175
  2899  0364  3534               	lslf	??_GLCD_ClearScreen,w
  2900  0365  00B5               	movwf	??_GLCD_ClearScreen+1
  2901  0366  0835               	movf	??_GLCD_ClearScreen+1,w
  2902  0367  00F9               	movwf	GLCD_GotoXY@y
  2903  0368  3000               	movlw	0
  2904  0369  3185  258B  3183   	fcall	_GLCD_GotoXY
  2905                           
  2906                           ;GLCD.c: 95: GLCD_ClearPage(page, color);
  2907  036C  0020               	movlb	0	; select bank0
  2908  036D  0836               	movf	GLCD_ClearScreen@color,w
  2909  036E  00B4               	movwf	??_GLCD_ClearScreen
  2910  036F  0834               	movf	??_GLCD_ClearScreen,w
  2911  0370  00FD               	movwf	GLCD_ClearPage@color
  2912  0371  0837               	movf	GLCD_ClearScreen@page,w
  2913  0372  3183  2336  3183   	fcall	_GLCD_ClearPage
  2914  0375  3001               	movlw	1
  2915  0376  0020               	movlb	0	; select bank0
  2916  0377  00B4               	movwf	??_GLCD_ClearScreen
  2917  0378  0834               	movf	??_GLCD_ClearScreen,w
  2918  0379  07B7               	addwf	GLCD_ClearScreen@page,f
  2919  037A  2B59               	goto	L1
  2920  037B                     __end_of_GLCD_ClearScreen:	
  2921                           
  2922                           	psect	text4
  2923  0336                     __ptext4:	
  2924 ;; *************** function _GLCD_ClearPage *****************
  2925 ;; Defined at:
  2926 ;;		line 82 in file "GLCD.c"
  2927 ;; Parameters:    Size  Location     Type
  2928 ;;  page            1    wreg     unsigned char 
  2929 ;;  color           1   13[COMMON] unsigned char 
  2930 ;; Auto vars:     Size  Location     Type
  2931 ;;  page            1   18[BANK0 ] unsigned char 
  2932 ;;  x               1   19[BANK0 ] unsigned char 
  2933 ;; Return value:  Size  Location     Type
  2934 ;;		None               void
  2935 ;; Registers used:
  2936 ;;		wreg, status,2, status,0, pclath, cstack
  2937 ;; Tracked objects:
  2938 ;;		On entry : 0/0
  2939 ;;		On exit  : 0/0
  2940 ;;		Unchanged: 0/0
  2941 ;; Data sizes:     COMMON   BANK0   BANK1   BANK2   BANK3   BANK4   BANK5   BANK6   BANK7   BANK8   BANK9  BANK10  BANK1
      +1  BANK12
  2942 ;;      Params:         1       0       0       0       0       0       0       0       0       0       0       0       
      +0       0
  2943 ;;      Locals:         0       2       0       0       0       0       0       0       0       0       0       0       
      +0       0
  2944 ;;      Temps:          0       2       0       0       0       0       0       0       0       0       0       0       
      +0       0
  2945 ;;      Totals:         1       4       0       0       0       0       0       0       0       0       0       0       
      +0       0
  2946 ;;Total ram usage:        5 bytes
  2947 ;; Hardware stack levels used:    1
  2948 ;; Hardware stack levels required when called:    4
  2949 ;; This function calls:
  2950 ;;		_GLCD_GotoXY
  2951 ;;		_GLCD_WriteData
  2952 ;; This function is called by:
  2953 ;;		_GLCD_ClearScreen
  2954 ;; This function uses a non-reentrant model
  2955 ;;
  2956                           
  2957                           
  2958                           ;psect for function _GLCD_ClearPage
  2959  0336                     _GLCD_ClearPage:	
  2960                           
  2961                           ;incstack = 0
  2962                           ; Regs used in _GLCD_ClearPage: [wreg+status,2+status,0+pclath+cstack]
  2963                           ;GLCD_ClearPage@page stored from wreg
  2964  0336  0020               	movlb	0	; select bank0
  2965  0337  00B2               	movwf	GLCD_ClearPage@page
  2966                           
  2967                           ;GLCD.c: 84: for (uint8_t x = 0; x < 128; x++) {
  2968  0338  01B3               	clrf	GLCD_ClearPage@x
  2969  0339                     L2:	
  2970  0339  3080               	movlw	128
  2971  033A  0233               	subwf	GLCD_ClearPage@x,w
  2972  033B  1803               	btfsc	3,0
  2973  033C  0008               	return
  2974                           
  2975                           ;GLCD.c: 85: GLCD_GotoXY(x, page * 8);
  2976  033D  0832               	movf	GLCD_ClearPage@page,w
  2977  033E  00B0               	movwf	??_GLCD_ClearPage
  2978  033F  3002               	movlw	2
  2979  0340                     u2145:	
  2980  0340  35B0               	lslf	??_GLCD_ClearPage,f
  2981  0341  3EFF               	addlw	-1
  2982  0342  1D03               	skipz
  2983  0343  2B40               	goto	u2145
  2984  0344  3530               	lslf	??_GLCD_ClearPage,w
  2985  0345  00B1               	movwf	??_GLCD_ClearPage+1
  2986  0346  0831               	movf	??_GLCD_ClearPage+1,w
  2987  0347  00F9               	movwf	GLCD_GotoXY@y
  2988  0348  0833               	movf	GLCD_ClearPage@x,w
  2989  0349  3185  258B  3183   	fcall	_GLCD_GotoXY
  2990                           
  2991                           ;GLCD.c: 86: GLCD_WriteData(color);
  2992  034C  087D               	movf	GLCD_ClearPage@color,w
  2993  034D  3186  2638  3183   	fcall	_GLCD_WriteData
  2994  0350  3001               	movlw	1
  2995  0351  0020               	movlb	0	; select bank0
  2996  0352  00B0               	movwf	??_GLCD_ClearPage
  2997  0353  0830               	movf	??_GLCD_ClearPage,w
  2998  0354  07B3               	addwf	GLCD_ClearPage@x,f
  2999  0355  2B39               	goto	L2
  3000  0356                     __end_of_GLCD_ClearPage:	
  3001                           
  3002                           	psect	text5
  3003  037B                     __ptext5:	
  3004 ;; *************** function _GLCD_DrawRect *****************
  3005 ;; Defined at:
  3006 ;;		line 149 in file "GLCD.c"
  3007 ;; Parameters:    Size  Location     Type
  3008 ;;  x               1    wreg     unsigned char 
  3009 ;;  y               1   30[BANK0 ] unsigned char 
  3010 ;;  width           1   31[BANK0 ] unsigned char 
  3011 ;;  height          1   32[BANK0 ] unsigned char 
  3012 ;;  color           1   33[BANK0 ] unsigned char 
  3013 ;; Auto vars:     Size  Location     Type
  3014 ;;  x               1   13[COMMON] unsigned char 
  3015 ;; Return value:  Size  Location     Type
  3016 ;;		None               void
  3017 ;; Registers used:
  3018 ;;		wreg, status,2, status,0, pclath, cstack
  3019 ;; Tracked objects:
  3020 ;;		On entry : 0/0
  3021 ;;		On exit  : 0/0
  3022 ;;		Unchanged: 0/0
  3023 ;; Data sizes:     COMMON   BANK0   BANK1   BANK2   BANK3   BANK4   BANK5   BANK6   BANK7   BANK8   BANK9  BANK10  BANK1
      +1  BANK12
  3024 ;;      Params:         0       4       0       0       0       0       0       0       0       0       0       0       
      +0       0
  3025 ;;      Locals:         1       0       0       0       0       0       0       0       0       0       0       0       
      +0       0
  3026 ;;      Temps:          0       3       0       0       0       0       0       0       0       0       0       0       
      +0       0
  3027 ;;      Totals:         1       7       0       0       0       0       0       0       0       0       0       0       
      +0       0
  3028 ;;Total ram usage:        8 bytes
  3029 ;; Hardware stack levels used:    1
  3030 ;; Hardware stack levels required when called:    5
  3031 ;; This function calls:
  3032 ;;		_GLCD_FillRect
  3033 ;; This function is called by:
  3034 ;;		_main
  3035 ;; This function uses a non-reentrant model
  3036 ;;
  3037                           
  3038                           
  3039                           ;psect for function _GLCD_DrawRect
  3040  037B                     _GLCD_DrawRect:	
  3041                           
  3042                           ;incstack = 0
  3043                           ; Regs used in _GLCD_DrawRect: [wreg+status,2+status,0+pclath+cstack]
  3044                           ;GLCD_DrawRect@x stored from wreg
  3045  037B  00FD               	movwf	GLCD_DrawRect@x
  3046                           
  3047                           ;GLCD.c: 151: GLCD_FillRect(x, y, width, 0, color);
  3048  037C  0020               	movlb	0	; select bank0
  3049  037D  083E               	movf	GLCD_DrawRect@y,w
  3050  037E  00C2               	movwf	??_GLCD_DrawRect
  3051  037F  0842               	movf	??_GLCD_DrawRect,w
  3052  0380  00B0               	movwf	GLCD_FillRect@y
  3053  0381  083F               	movf	GLCD_DrawRect@width,w
  3054  0382  00C3               	movwf	??_GLCD_DrawRect+1
  3055  0383  0843               	movf	??_GLCD_DrawRect+1,w
  3056  0384  00B1               	movwf	GLCD_FillRect@width
  3057  0385  01B2               	clrf	GLCD_FillRect@height
  3058  0386  0841               	movf	GLCD_DrawRect@color,w
  3059  0387  00C4               	movwf	??_GLCD_DrawRect+2
  3060  0388  0844               	movf	??_GLCD_DrawRect+2,w
  3061  0389  00B3               	movwf	GLCD_FillRect@color
  3062  038A  087D               	movf	GLCD_DrawRect@x,w
  3063  038B  3187  270B  3183   	fcall	_GLCD_FillRect
  3064                           
  3065                           ;GLCD.c: 152: GLCD_FillRect(x, y + height, width, 0, color);
  3066  038E  0020               	movlb	0	; select bank0
  3067  038F  083E               	movf	GLCD_DrawRect@y,w
  3068  0390  0740               	addwf	GLCD_DrawRect@height,w
  3069  0391  00C2               	movwf	??_GLCD_DrawRect
  3070  0392  0842               	movf	??_GLCD_DrawRect,w
  3071  0393  00B0               	movwf	GLCD_FillRect@y
  3072  0394  083F               	movf	GLCD_DrawRect@width,w
  3073  0395  00C3               	movwf	??_GLCD_DrawRect+1
  3074  0396  0843               	movf	??_GLCD_DrawRect+1,w
  3075  0397  00B1               	movwf	GLCD_FillRect@width
  3076  0398  01B2               	clrf	GLCD_FillRect@height
  3077  0399  0841               	movf	GLCD_DrawRect@color,w
  3078  039A  00C4               	movwf	??_GLCD_DrawRect+2
  3079  039B  0844               	movf	??_GLCD_DrawRect+2,w
  3080  039C  00B3               	movwf	GLCD_FillRect@color
  3081  039D  087D               	movf	GLCD_DrawRect@x,w
  3082  039E  3187  270B  3183   	fcall	_GLCD_FillRect
  3083                           
  3084                           ;GLCD.c: 153: GLCD_FillRect(x, y, 0, height, color);
  3085  03A1  0020               	movlb	0	; select bank0
  3086  03A2  083E               	movf	GLCD_DrawRect@y,w
  3087  03A3  00C2               	movwf	??_GLCD_DrawRect
  3088  03A4  0842               	movf	??_GLCD_DrawRect,w
  3089  03A5  00B0               	movwf	GLCD_FillRect@y
  3090  03A6  01B1               	clrf	GLCD_FillRect@width
  3091  03A7  0840               	movf	GLCD_DrawRect@height,w
  3092  03A8  00C3               	movwf	??_GLCD_DrawRect+1
  3093  03A9  0843               	movf	??_GLCD_DrawRect+1,w
  3094  03AA  00B2               	movwf	GLCD_FillRect@height
  3095  03AB  0841               	movf	GLCD_DrawRect@color,w
  3096  03AC  00C4               	movwf	??_GLCD_DrawRect+2
  3097  03AD  0844               	movf	??_GLCD_DrawRect+2,w
  3098  03AE  00B3               	movwf	GLCD_FillRect@color
  3099  03AF  087D               	movf	GLCD_DrawRect@x,w
  3100  03B0  3187  270B  3183   	fcall	_GLCD_FillRect
  3101                           
  3102                           ;GLCD.c: 154: GLCD_FillRect(x + width, y, 0, height, color);
  3103  03B3  0020               	movlb	0	; select bank0
  3104  03B4  083E               	movf	GLCD_DrawRect@y,w
  3105  03B5  00C2               	movwf	??_GLCD_DrawRect
  3106  03B6  0842               	movf	??_GLCD_DrawRect,w
  3107  03B7  00B0               	movwf	GLCD_FillRect@y
  3108  03B8  01B1               	clrf	GLCD_FillRect@width
  3109  03B9  0840               	movf	GLCD_DrawRect@height,w
  3110  03BA  00C3               	movwf	??_GLCD_DrawRect+1
  3111  03BB  0843               	movf	??_GLCD_DrawRect+1,w
  3112  03BC  00B2               	movwf	GLCD_FillRect@height
  3113  03BD  0841               	movf	GLCD_DrawRect@color,w
  3114  03BE  00C4               	movwf	??_GLCD_DrawRect+2
  3115  03BF  0844               	movf	??_GLCD_DrawRect+2,w
  3116  03C0  00B3               	movwf	GLCD_FillRect@color
  3117  03C1  087D               	movf	GLCD_DrawRect@x,w
  3118  03C2  073F               	addwf	GLCD_DrawRect@width,w
  3119  03C3  3187  270B         	fcall	_GLCD_FillRect
  3120  03C5  0008               	return
  3121  03C6                     __end_of_GLCD_DrawRect:	
  3122                           
  3123                           	psect	text6
  3124  070B                     __ptext6:	
  3125 ;; *************** function _GLCD_FillRect *****************
  3126 ;; Defined at:
  3127 ;;		line 193 in file "GLCD.c"
  3128 ;; Parameters:    Size  Location     Type
  3129 ;;  x               1    wreg     unsigned char 
  3130 ;;  y               1   16[BANK0 ] unsigned char 
  3131 ;;  width           1   17[BANK0 ] unsigned char 
  3132 ;;  height          1   18[BANK0 ] unsigned char 
  3133 ;;  color           1   19[BANK0 ] unsigned char 
  3134 ;; Auto vars:     Size  Location     Type
  3135 ;;  x               1   24[BANK0 ] unsigned char 
  3136 ;;  mask            1   29[BANK0 ] unsigned char 
  3137 ;;  i               1   28[BANK0 ] unsigned char 
  3138 ;;  pageOffset      1   27[BANK0 ] unsigned char 
  3139 ;;  h               1   26[BANK0 ] unsigned char 
  3140 ;;  data            1   25[BANK0 ] unsigned char 
  3141 ;; Return value:  Size  Location     Type
  3142 ;;		None               void
  3143 ;; Registers used:
  3144 ;;		wreg, status,2, status,0, pclath, cstack
  3145 ;; Tracked objects:
  3146 ;;		On entry : 0/0
  3147 ;;		On exit  : 0/0
  3148 ;;		Unchanged: 0/0
  3149 ;; Data sizes:     COMMON   BANK0   BANK1   BANK2   BANK3   BANK4   BANK5   BANK6   BANK7   BANK8   BANK9  BANK10  BANK1
      +1  BANK12
  3150 ;;      Params:         0       4       0       0       0       0       0       0       0       0       0       0       
      +0       0
  3151 ;;      Locals:         0       6       0       0       0       0       0       0       0       0       0       0       
      +0       0
  3152 ;;      Temps:          0       4       0       0       0       0       0       0       0       0       0       0       
      +0       0
  3153 ;;      Totals:         0      14       0       0       0       0       0       0       0       0       0       0       
      +0       0
  3154 ;;Total ram usage:       14 bytes
  3155 ;; Hardware stack levels used:    1
  3156 ;; Hardware stack levels required when called:    4
  3157 ;; This function calls:
  3158 ;;		_GLCD_DoReadData
  3159 ;;		_GLCD_GotoXY
  3160 ;;		_GLCD_WriteData
  3161 ;; This function is called by:
  3162 ;;		_GLCD_DrawRect
  3163 ;;		_GLCD_DrawRoundRect
  3164 ;; This function uses a non-reentrant model
  3165 ;;
  3166                           
  3167                           
  3168                           ;psect for function _GLCD_FillRect
  3169  070B                     _GLCD_FillRect:	
  3170                           
  3171                           ;incstack = 0
  3172                           ; Regs used in _GLCD_FillRect: [wreg+status,2+status,0+pclath+cstack]
  3173                           ;GLCD_FillRect@x stored from wreg
  3174  070B  0020               	movlb	0	; select bank0
  3175  070C  00B8               	movwf	GLCD_FillRect@x
  3176                           
  3177                           ;GLCD.c: 195: uint8_t mask, pageOffset, h, i, data;
  3178                           ;GLCD.c: 196: height++;
  3179  070D  3001               	movlw	1
  3180  070E  00B4               	movwf	??_GLCD_FillRect
  3181  070F  0834               	movf	??_GLCD_FillRect,w
  3182  0710  07B2               	addwf	GLCD_FillRect@height,f
  3183                           
  3184                           ;GLCD.c: 198: pageOffset = y % 8;
  3185  0711  0830               	movf	GLCD_FillRect@y,w
  3186  0712  3907               	andlw	7
  3187  0713  00B4               	movwf	??_GLCD_FillRect
  3188  0714  0834               	movf	??_GLCD_FillRect,w
  3189  0715  00BB               	movwf	GLCD_FillRect@pageOffset
  3190                           
  3191                           ;GLCD.c: 199: y -= pageOffset;
  3192  0716  083B               	movf	GLCD_FillRect@pageOffset,w
  3193  0717  02B0               	subwf	GLCD_FillRect@y,f
  3194                           
  3195                           ;GLCD.c: 200: mask = 0xFF;
  3196  0718  30FF               	movlw	255
  3197  0719  00B4               	movwf	??_GLCD_FillRect
  3198  071A  0834               	movf	??_GLCD_FillRect,w
  3199  071B  00BD               	movwf	GLCD_FillRect@mask
  3200                           
  3201                           ;GLCD.c: 201: if (height < 8 - pageOffset) {
  3202  071C  083B               	movf	GLCD_FillRect@pageOffset,w
  3203  071D  00B4               	movwf	??_GLCD_FillRect
  3204  071E  01B5               	clrf	??_GLCD_FillRect+1
  3205  071F  09B4               	comf	??_GLCD_FillRect,f
  3206  0720  09B5               	comf	??_GLCD_FillRect+1,f
  3207  0721  0AB4               	incf	??_GLCD_FillRect,f
  3208  0722  1903               	skipnz
  3209  0723  0AB5               	incf	??_GLCD_FillRect+1,f
  3210  0724  0834               	movf	??_GLCD_FillRect,w
  3211  0725  3E08               	addlw	8
  3212  0726  00B6               	movwf	??_GLCD_FillRect+2
  3213  0727  3000               	movlw	0
  3214  0728  3D35               	addwfc	??_GLCD_FillRect+1,w
  3215  0729  00B7               	movwf	??_GLCD_FillRect+3
  3216  072A  0837               	movf	??_GLCD_FillRect+3,w
  3217  072B  3A80               	xorlw	128
  3218  072C  3C80               	sublw	128
  3219  072D  1D03               	skipz
  3220  072E  2F31               	goto	u2195
  3221  072F  0836               	movf	??_GLCD_FillRect+2,w
  3222  0730  0232               	subwf	GLCD_FillRect@height,w
  3223  0731                     u2195:	
  3224  0731  1803               	skipnc
  3225  0732  2F40               	goto	l2192
  3226                           
  3227                           ;GLCD.c: 202: mask >>= (8 - height);
  3228  0733  0020               	movlb	0	; select bank0
  3229  0734  0332               	decf	GLCD_FillRect@height,w
  3230  0735  3AFF               	xorlw	255
  3231  0736  3E08               	addlw	8
  3232  0737  0A89               	incf	9,f
  3233  0738  2F3B               	goto	u2200
  3234  0739                     u2205:	
  3235  0739  1003               	clrc
  3236  073A  0CBD               	rrf	GLCD_FillRect@mask,f
  3237  073B                     u2200:	
  3238  073B  3EFF               	addlw	-1
  3239  073C  1D03               	skipz
  3240  073D  2F39               	goto	u2205
  3241                           
  3242                           ;GLCD.c: 203: h = height;
  3243  073E  0832               	movf	GLCD_FillRect@height,w
  3244  073F  2F44               	goto	L3
  3245  0740                     l2192:	
  3246                           ;GLCD.c: 204: } else {
  3247                           
  3248                           
  3249                           ;GLCD.c: 205: h = 8 - pageOffset;
  3250  0740  0020               	movlb	0	; select bank0
  3251  0741  033B               	decf	GLCD_FillRect@pageOffset,w
  3252  0742  3AFF               	xorlw	255
  3253  0743  3E08               	addlw	8
  3254  0744                     L3:	
  3255  0744  00B4               	movwf	??_GLCD_FillRect
  3256  0745  0834               	movf	??_GLCD_FillRect,w
  3257  0746  00BA               	movwf	GLCD_FillRect@h
  3258                           
  3259                           ;GLCD.c: 206: }
  3260                           ;GLCD.c: 207: mask <<= pageOffset;
  3261  0747  0A3B               	incf	GLCD_FillRect@pageOffset,w
  3262  0748  2F4B               	goto	u2210
  3263  0749                     u2215:	
  3264  0749  1003               	clrc
  3265  074A  0DBD               	rlf	GLCD_FillRect@mask,f
  3266  074B                     u2210:	
  3267  074B  3EFF               	addlw	-1
  3268  074C  1D03               	skipz
  3269  074D  2F49               	goto	u2215
  3270                           
  3271                           ;GLCD.c: 209: GLCD_GotoXY(x, y);
  3272  074E  0830               	movf	GLCD_FillRect@y,w
  3273  074F  00B4               	movwf	??_GLCD_FillRect
  3274  0750  0834               	movf	??_GLCD_FillRect,w
  3275  0751  00F9               	movwf	GLCD_GotoXY@y
  3276  0752  0838               	movf	GLCD_FillRect@x,w
  3277  0753  3185  258B  3187   	fcall	_GLCD_GotoXY
  3278                           
  3279                           ;GLCD.c: 210: for (i = 0; i <= width; i++) {
  3280  0756  0020               	movlb	0	; select bank0
  3281  0757  01BC               	clrf	GLCD_FillRect@i
  3282  0758                     l2210:	
  3283  0758  083C               	movf	GLCD_FillRect@i,w
  3284  0759  0231               	subwf	GLCD_FillRect@width,w
  3285  075A  1C03               	btfss	3,0
  3286  075B  2F9F               	goto	l2224
  3287                           
  3288                           ;GLCD.c: 211: do { GLCD_DoReadData(1); data = GLCD_DoReadData(0); } while (0);
  3289  075C  3001               	movlw	1
  3290  075D  3184  247E  3187   	fcall	_GLCD_DoReadData
  3291  0760  3000               	movlw	0
  3292  0761  3184  247E  3187   	fcall	_GLCD_DoReadData
  3293  0764  0020               	movlb	0	; select bank0
  3294  0765  00B4               	movwf	??_GLCD_FillRect
  3295  0766  0834               	movf	??_GLCD_FillRect,w
  3296  0767  00B9               	movwf	GLCD_FillRect@data
  3297                           
  3298                           ;GLCD.c: 213: if (color == 0xFF) {
  3299  0768  0A33               	incf	GLCD_FillRect@color,w
  3300  0769  1D03               	btfss	3,2
  3301  076A  2F70               	goto	l2204
  3302                           
  3303                           ;GLCD.c: 214: data |= mask;
  3304  076B  083D               	movf	GLCD_FillRect@mask,w
  3305  076C  00B4               	movwf	??_GLCD_FillRect
  3306  076D  0834               	movf	??_GLCD_FillRect,w
  3307  076E  04B9               	iorwf	GLCD_FillRect@data,f
  3308                           
  3309                           ;GLCD.c: 215: } else {
  3310  076F  2F74               	goto	l2206
  3311  0770                     l2204:	
  3312                           
  3313                           ;GLCD.c: 216: data &= ~mask;
  3314  0770  093D               	comf	GLCD_FillRect@mask,w
  3315  0771  00B4               	movwf	??_GLCD_FillRect
  3316  0772  0834               	movf	??_GLCD_FillRect,w
  3317  0773  05B9               	andwf	GLCD_FillRect@data,f
  3318  0774                     l2206:	
  3319                           
  3320                           ;GLCD.c: 217: }
  3321                           ;GLCD.c: 219: GLCD_WriteData(data);
  3322  0774  0839               	movf	GLCD_FillRect@data,w
  3323  0775  3186  2638  3187   	fcall	_GLCD_WriteData
  3324  0778  3001               	movlw	1
  3325  0779  0020               	movlb	0	; select bank0
  3326  077A  00B4               	movwf	??_GLCD_FillRect
  3327  077B  0834               	movf	??_GLCD_FillRect,w
  3328  077C  07BC               	addwf	GLCD_FillRect@i,f
  3329  077D  2F58               	goto	l2210
  3330  077E                     l2212:	
  3331                           ;GLCD.c: 220: }
  3332                           ;GLCD.c: 222: while (h + 8 <= height) {
  3333                           
  3334                           
  3335                           ;GLCD.c: 223: h += 8;
  3336  077E  3008               	movlw	8
  3337  077F  0020               	movlb	0	; select bank0
  3338  0780  00B4               	movwf	??_GLCD_FillRect
  3339  0781  0834               	movf	??_GLCD_FillRect,w
  3340  0782  07BA               	addwf	GLCD_FillRect@h,f
  3341                           
  3342                           ;GLCD.c: 224: y += 8;
  3343  0783  3008               	movlw	8
  3344  0784  00B4               	movwf	??_GLCD_FillRect
  3345  0785  0834               	movf	??_GLCD_FillRect,w
  3346  0786  07B0               	addwf	GLCD_FillRect@y,f
  3347                           
  3348                           ;GLCD.c: 225: GLCD_GotoXY(x, y);
  3349  0787  0830               	movf	GLCD_FillRect@y,w
  3350  0788  00B4               	movwf	??_GLCD_FillRect
  3351  0789  0834               	movf	??_GLCD_FillRect,w
  3352  078A  00F9               	movwf	GLCD_GotoXY@y
  3353  078B  0838               	movf	GLCD_FillRect@x,w
  3354  078C  3185  258B  3187   	fcall	_GLCD_GotoXY
  3355                           
  3356                           ;GLCD.c: 227: for (i = 0; i <= width; i++) {
  3357  078F  0020               	movlb	0	; select bank0
  3358  0790  01BC               	clrf	GLCD_FillRect@i
  3359  0791                     l2222:	
  3360  0791  083C               	movf	GLCD_FillRect@i,w
  3361  0792  0231               	subwf	GLCD_FillRect@width,w
  3362  0793  1C03               	btfss	3,0
  3363  0794  2F9F               	goto	l2224
  3364                           
  3365                           ;GLCD.c: 228: GLCD_WriteData(color);
  3366  0795  0833               	movf	GLCD_FillRect@color,w
  3367  0796  3186  2638  3187   	fcall	_GLCD_WriteData
  3368  0799  3001               	movlw	1
  3369  079A  0020               	movlb	0	; select bank0
  3370  079B  00B4               	movwf	??_GLCD_FillRect
  3371  079C  0834               	movf	??_GLCD_FillRect,w
  3372  079D  07BC               	addwf	GLCD_FillRect@i,f
  3373  079E  2F91               	goto	l2222
  3374  079F                     l2224:	
  3375  079F  083A               	movf	GLCD_FillRect@h,w
  3376  07A0  3E08               	addlw	8
  3377  07A1  00B4               	movwf	??_GLCD_FillRect
  3378  07A2  3000               	movlw	0
  3379  07A3  1803               	skipnc
  3380  07A4  3001               	movlw	1
  3381  07A5  00B5               	movwf	??_GLCD_FillRect+1
  3382  07A6  0835               	movf	??_GLCD_FillRect+1,w
  3383  07A7  3A80               	xorlw	128
  3384  07A8  3C80               	sublw	128
  3385  07A9  1D03               	skipz
  3386  07AA  2FAD               	goto	u2255
  3387  07AB  0834               	movf	??_GLCD_FillRect,w
  3388  07AC  0232               	subwf	GLCD_FillRect@height,w
  3389  07AD                     u2255:	
  3390  07AD  1803               	skipnc
  3391  07AE  2F7E               	goto	l2212
  3392                           
  3393                           ;GLCD.c: 229: }
  3394                           ;GLCD.c: 230: }
  3395                           ;GLCD.c: 232: if (h < height) {
  3396  07AF  0020               	movlb	0	; select bank0
  3397  07B0  0832               	movf	GLCD_FillRect@height,w
  3398  07B1  023A               	subwf	GLCD_FillRect@h,w
  3399  07B2  1803               	skipnc
  3400  07B3  0008               	return
  3401                           
  3402                           ;GLCD.c: 233: mask = ~(0xFF << (height - h));
  3403  07B4  30FF               	movlw	255
  3404  07B5  00B4               	movwf	??_GLCD_FillRect
  3405  07B6  033A               	decf	GLCD_FillRect@h,w
  3406  07B7  3AFF               	xorlw	255
  3407  07B8  0732               	addwf	GLCD_FillRect@height,w
  3408  07B9  0A89               	incf	9,f
  3409  07BA  2FBC               	goto	u2274
  3410  07BB                     u2275:	
  3411  07BB  35B4               	lslf	??_GLCD_FillRect,f
  3412  07BC                     u2274:	
  3413  07BC  0B89               	decfsz	9,f
  3414  07BD  2FBB               	goto	u2275
  3415  07BE  0834               	movf	??_GLCD_FillRect,w
  3416  07BF  3AFF               	xorlw	255
  3417  07C0  00B5               	movwf	??_GLCD_FillRect+1
  3418  07C1  0835               	movf	??_GLCD_FillRect+1,w
  3419  07C2  00BD               	movwf	GLCD_FillRect@mask
  3420                           
  3421                           ;GLCD.c: 234: GLCD_GotoXY(x, y + 8);
  3422  07C3  0830               	movf	GLCD_FillRect@y,w
  3423  07C4  3E08               	addlw	8
  3424  07C5  00B4               	movwf	??_GLCD_FillRect
  3425  07C6  0834               	movf	??_GLCD_FillRect,w
  3426  07C7  00F9               	movwf	GLCD_GotoXY@y
  3427  07C8  0838               	movf	GLCD_FillRect@x,w
  3428  07C9  3185  258B  3187   	fcall	_GLCD_GotoXY
  3429                           
  3430                           ;GLCD.c: 236: for (i = 0; i <= width; i++) {
  3431  07CC  0020               	movlb	0	; select bank0
  3432  07CD  01BC               	clrf	GLCD_FillRect@i
  3433  07CE                     l2246:	
  3434  07CE  083C               	movf	GLCD_FillRect@i,w
  3435  07CF  0231               	subwf	GLCD_FillRect@width,w
  3436  07D0  1C03               	btfss	3,0
  3437  07D1  0008               	return
  3438                           
  3439                           ;GLCD.c: 237: do { GLCD_DoReadData(1); data = GLCD_DoReadData(0); } while (0);
  3440  07D2  3001               	movlw	1
  3441  07D3  3184  247E  3187   	fcall	_GLCD_DoReadData
  3442  07D6  3000               	movlw	0
  3443  07D7  3184  247E  3187   	fcall	_GLCD_DoReadData
  3444  07DA  0020               	movlb	0	; select bank0
  3445  07DB  00B4               	movwf	??_GLCD_FillRect
  3446  07DC  0834               	movf	??_GLCD_FillRect,w
  3447  07DD  00B9               	movwf	GLCD_FillRect@data
  3448                           
  3449                           ;GLCD.c: 239: if (color == 0xFF) {
  3450  07DE  0A33               	incf	GLCD_FillRect@color,w
  3451  07DF  1D03               	btfss	3,2
  3452  07E0  2FE6               	goto	l2240
  3453                           
  3454                           ;GLCD.c: 240: data |= mask;
  3455  07E1  083D               	movf	GLCD_FillRect@mask,w
  3456  07E2  00B4               	movwf	??_GLCD_FillRect
  3457  07E3  0834               	movf	??_GLCD_FillRect,w
  3458  07E4  04B9               	iorwf	GLCD_FillRect@data,f
  3459                           
  3460                           ;GLCD.c: 241: } else {
  3461  07E5  2FEA               	goto	l2242
  3462  07E6                     l2240:	
  3463                           
  3464                           ;GLCD.c: 242: data &= ~mask;
  3465  07E6  093D               	comf	GLCD_FillRect@mask,w
  3466  07E7  00B4               	movwf	??_GLCD_FillRect
  3467  07E8  0834               	movf	??_GLCD_FillRect,w
  3468  07E9  05B9               	andwf	GLCD_FillRect@data,f
  3469  07EA                     l2242:	
  3470                           
  3471                           ;GLCD.c: 243: }
  3472                           ;GLCD.c: 245: GLCD_WriteData(data);
  3473  07EA  0839               	movf	GLCD_FillRect@data,w
  3474  07EB  3186  2638  3187   	fcall	_GLCD_WriteData
  3475  07EE  3001               	movlw	1
  3476  07EF  0020               	movlb	0	; select bank0
  3477  07F0  00B4               	movwf	??_GLCD_FillRect
  3478  07F1  0834               	movf	??_GLCD_FillRect,w
  3479  07F2  07BC               	addwf	GLCD_FillRect@i,f
  3480  07F3  2FCE               	goto	l2246
  3481  07F4                     __end_of_GLCD_FillRect:	
  3482                           
  3483                           	psect	text7
  3484  0638                     __ptext7:	
  3485 ;; *************** function _GLCD_WriteData *****************
  3486 ;; Defined at:
  3487 ;;		line 912 in file "GLCD.c"
  3488 ;; Parameters:    Size  Location     Type
  3489 ;;  data            1    wreg     unsigned char 
  3490 ;; Auto vars:     Size  Location     Type
  3491 ;;  data            1   13[BANK0 ] unsigned char 
  3492 ;;  chip            1   15[BANK0 ] unsigned char 
  3493 ;;  displayData     1   14[BANK0 ] unsigned char 
  3494 ;;  yOffset         1   12[BANK0 ] unsigned char 
  3495 ;; Return value:  Size  Location     Type
  3496 ;;		None               void
  3497 ;; Registers used:
  3498 ;;		wreg, status,2, status,0, pclath, cstack
  3499 ;; Tracked objects:
  3500 ;;		On entry : 0/0
  3501 ;;		On exit  : 0/0
  3502 ;;		Unchanged: 0/0
  3503 ;; Data sizes:     COMMON   BANK0   BANK1   BANK2   BANK3   BANK4   BANK5   BANK6   BANK7   BANK8   BANK9  BANK10  BANK1
      +1  BANK12
  3504 ;;      Params:         0       0       0       0       0       0       0       0       0       0       0       0       
      +0       0
  3505 ;;      Locals:         0       4       0       0       0       0       0       0       0       0       0       0       
      +0       0
  3506 ;;      Temps:          0       3       0       0       0       0       0       0       0       0       0       0       
      +0       0
  3507 ;;      Totals:         0       7       0       0       0       0       0       0       0       0       0       0       
      +0       0
  3508 ;;Total ram usage:        7 bytes
  3509 ;; Hardware stack levels used:    1
  3510 ;; Hardware stack levels required when called:    3
  3511 ;; This function calls:
  3512 ;;		_GLCD_DoReadData
  3513 ;;		_GLCD_GotoXY
  3514 ;;		___awdiv
  3515 ;; This function is called by:
  3516 ;;		_GLCD_ClearPage
  3517 ;;		_GLCD_FillRect
  3518 ;;		_GLCD_InvertRect
  3519 ;;		_GLCD_SetDot
  3520 ;;		_GLCD_PutChar
  3521 ;;		_GLCD_DrawBitmap
  3522 ;; This function uses a non-reentrant model
  3523 ;;
  3524                           
  3525                           
  3526                           ;psect for function _GLCD_WriteData
  3527  0638                     _GLCD_WriteData:	
  3528                           
  3529                           ;incstack = 0
  3530                           ; Regs used in _GLCD_WriteData: [wreg+status,2+status,0+pclath+cstack]
  3531                           ;GLCD_WriteData@data stored from wreg
  3532  0638  0020               	movlb	0	; select bank0
  3533  0639  00AD               	movwf	GLCD_WriteData@data
  3534                           
  3535                           ;GLCD.c: 914: uint8_t displayData, yOffset, chip;
  3536                           ;GLCD.c: 927: if (GLCD_Coord.x >= 128)
  3537  063A  3080               	movlw	128
  3538  063B  024E               	subwf	_GLCD_Coord,w
  3539  063C  1803               	btfsc	3,0
  3540  063D  0008               	return
  3541                           
  3542                           ;GLCD.c: 929: chip = GLCD_Coord.x / 64;
  3543                           
  3544                           ;GLCD.c: 928: return;
  3545  063E  3040               	movlw	64
  3546  063F  00F0               	movwf	___awdiv@divisor
  3547  0640  3000               	movlw	0
  3548  0641  00F1               	movwf	___awdiv@divisor+1
  3549  0642  084E               	movf	_GLCD_Coord,w
  3550  0643  00A9               	movwf	??_GLCD_WriteData
  3551  0644  01AA               	clrf	??_GLCD_WriteData+1
  3552  0645  0829               	movf	??_GLCD_WriteData,w
  3553  0646  00F2               	movwf	___awdiv@dividend
  3554  0647  082A               	movf	??_GLCD_WriteData+1,w
  3555  0648  00F3               	movwf	___awdiv@dividend+1
  3556  0649  3183  23C6  3186   	fcall	___awdiv
  3557  064C  0870               	movf	?___awdiv,w
  3558  064D  0020               	movlb	0	; select bank0
  3559  064E  00AB               	movwf	??_GLCD_WriteData+2
  3560  064F  082B               	movf	??_GLCD_WriteData+2,w
  3561  0650  00AF               	movwf	GLCD_WriteData@chip
  3562                           
  3563                           ;GLCD.c: 930: do { do { PORTBbits.RB0 = chip; PORTBbits.RB1 = !chip; } while (0); TRISC 
      +                          = 0xFF; PORTBbits.RB2 = 0; PORTBbits.RB3 = 1; PORTBbits.RB4 = 1; _delay((unsigned long)(
      +                          (2)*(1000000/4000000.0))); while (PORTC & 0x80); PORTBbits.RB4 = 0; } while (0);
  3564  0651  082F               	movf	GLCD_WriteData@chip,w
  3565  0652  1D03               	skipz
  3566  0653  140D               	bsf	13,0	;volatile
  3567  0654  1903               	skipnz
  3568  0655  100D               	bcf	13,0	;volatile
  3569  0656  082F               	movf	GLCD_WriteData@chip,w
  3570  0657  1D03               	btfss	3,2
  3571  0658  2E5C               	goto	u1980
  3572  0659  0020               	movlb	0	; select bank0
  3573  065A  148D               	bsf	13,1	;volatile
  3574  065B  2E5E               	goto	l2044
  3575  065C                     u1980:	
  3576  065C  0020               	movlb	0	; select bank0
  3577  065D  108D               	bcf	13,1	;volatile
  3578  065E                     l2044:	
  3579  065E  30FF               	movlw	255
  3580  065F  0093               	movwf	19	;volatile
  3581  0660  110D               	bcf	13,2	;volatile
  3582  0661  158D               	bsf	13,3	;volatile
  3583  0662  160D               	bsf	13,4	;volatile
  3584  0663                     l378:	
  3585  0663  0020               	movlb	0	; select bank0
  3586  0664  1B8E               	btfsc	14,7	;volatile
  3587  0665  2E63               	goto	l378
  3588  0666  120D               	bcf	13,4	;volatile
  3589                           
  3590                           ;GLCD.c: 933: if (GLCD_Coord.x % 64 == 0 && chip > 0) {
  3591  0667  084E               	movf	_GLCD_Coord,w
  3592  0668  393F               	andlw	63
  3593  0669  1D03               	btfss	3,2
  3594  066A  2E76               	goto	l2060
  3595  066B  082F               	movf	GLCD_WriteData@chip,w
  3596  066C  1903               	btfsc	3,2
  3597  066D  2E76               	goto	l2060
  3598                           
  3599                           ;GLCD.c: 934: GLCD_GotoXY(GLCD_Coord.x, GLCD_Coord.y);
  3600  066E  084F               	movf	_GLCD_Coord+1,w
  3601  066F  00A9               	movwf	??_GLCD_WriteData
  3602  0670  0829               	movf	??_GLCD_WriteData,w
  3603  0671  00F9               	movwf	GLCD_GotoXY@y
  3604  0672  084E               	movf	_GLCD_Coord,w
  3605  0673  3185  258B  3186   	fcall	_GLCD_GotoXY
  3606  0676                     l2060:	
  3607                           
  3608                           ;GLCD.c: 935: }
  3609                           ;GLCD.c: 937: PORTBbits.RB2 = 1;
  3610  0676  0020               	movlb	0	; select bank0
  3611  0677  150D               	bsf	13,2	;volatile
  3612                           
  3613                           ;GLCD.c: 938: PORTBbits.RB3 = 0;
  3614  0678  118D               	bcf	13,3	;volatile
  3615                           
  3616                           ;GLCD.c: 939: TRISC = 0x00;
  3617  0679  0193               	clrf	19	;volatile
  3618                           
  3619                           ;GLCD.c: 941: yOffset = GLCD_Coord.y % 8;
  3620  067A  084F               	movf	_GLCD_Coord+1,w
  3621  067B  3907               	andlw	7
  3622  067C  00A9               	movwf	??_GLCD_WriteData
  3623  067D  0829               	movf	??_GLCD_WriteData,w
  3624  067E  00AC               	movwf	GLCD_WriteData@yOffset
  3625                           
  3626                           ;GLCD.c: 943: if (yOffset != 0) {
  3627  067F  082C               	movf	GLCD_WriteData@yOffset,w
  3628  0680  1903               	btfsc	3,2
  3629  0681  2EFA               	goto	l2136
  3630                           
  3631                           ;GLCD.c: 948: do { GLCD_DoReadData(1); data = GLCD_DoReadData(0); } while (0);
  3632  0682  3001               	movlw	1
  3633  0683  3184  247E  3186   	fcall	_GLCD_DoReadData
  3634  0686  3000               	movlw	0
  3635  0687  3184  247E  3186   	fcall	_GLCD_DoReadData
  3636  068A  0020               	movlb	0	; select bank0
  3637  068B  00A9               	movwf	??_GLCD_WriteData
  3638  068C  0829               	movf	??_GLCD_WriteData,w
  3639  068D  00AD               	movwf	GLCD_WriteData@data
  3640                           
  3641                           ;GLCD.c: 952: PORTBbits.RB2 = 1;
  3642  068E  150D               	bsf	13,2	;volatile
  3643                           
  3644                           ;GLCD.c: 953: PORTBbits.RB3 = 0;
  3645  068F  118D               	bcf	13,3	;volatile
  3646                           
  3647                           ;GLCD.c: 954: do { PORTBbits.RB0 = chip; PORTBbits.RB1 = !chip; } while (0);
  3648  0690  082F               	movf	GLCD_WriteData@chip,w
  3649  0691  1D03               	skipz
  3650  0692  140D               	bsf	13,0	;volatile
  3651  0693  1903               	skipnz
  3652  0694  100D               	bcf	13,0	;volatile
  3653  0695  082F               	movf	GLCD_WriteData@chip,w
  3654  0696  1D03               	btfss	3,2
  3655  0697  2E9B               	goto	u2040
  3656  0698  0020               	movlb	0	; select bank0
  3657  0699  148D               	bsf	13,1	;volatile
  3658  069A  2E9D               	goto	l2080
  3659  069B                     u2040:	
  3660  069B  0020               	movlb	0	; select bank0
  3661  069C  108D               	bcf	13,1	;volatile
  3662  069D                     l2080:	
  3663                           
  3664                           ;GLCD.c: 956: TRISC = 0x00;
  3665  069D  0193               	clrf	19	;volatile
  3666                           
  3667                           ;GLCD.c: 958: displayData |= data << yOffset;
  3668  069E  082D               	movf	GLCD_WriteData@data,w
  3669  069F  00A9               	movwf	??_GLCD_WriteData
  3670  06A0  0A2C               	incf	GLCD_WriteData@yOffset,w
  3671  06A1  2EA3               	goto	u2064
  3672  06A2                     u2065:	
  3673  06A2  35A9               	lslf	??_GLCD_WriteData,f
  3674  06A3                     u2064:	
  3675  06A3  0B89               	decfsz	9,f
  3676  06A4  2EA2               	goto	u2065
  3677  06A5  0829               	movf	??_GLCD_WriteData,w
  3678  06A6  00AA               	movwf	??_GLCD_WriteData+1
  3679  06A7  082A               	movf	??_GLCD_WriteData+1,w
  3680  06A8  04AE               	iorwf	GLCD_WriteData@displayData,f
  3681                           
  3682                           ;GLCD.c: 959: if (GLCD_Inverted)
  3683  06A9  084D               	movf	_GLCD_Inverted,w
  3684  06AA  1D03               	btfss	3,2
  3685                           
  3686                           ;GLCD.c: 960: displayData = ~displayData;
  3687  06AB  09AE               	comf	GLCD_WriteData@displayData,f
  3688                           
  3689                           ;GLCD.c: 961: PORTC = displayData;
  3690  06AC  082E               	movf	GLCD_WriteData@displayData,w
  3691  06AD  008E               	movwf	14	;volatile
  3692                           
  3693                           ;GLCD.c: 962: do { _delay((unsigned long)((2)*(1000000/4000000.0))); PORTBbits.RB4 = 1; 
      +                          _delay((unsigned long)((2)*(1000000/4000000.0))); PORTBbits.RB4 = 0; _delay((unsigned lo
      +                          ng)((2)*(1000000/4000000.0))); } while (0);
  3694  06AE  0020               	movlb	0	; select bank0
  3695  06AF  160D               	bsf	13,4	;volatile
  3696  06B0  0020               	movlb	0	; select bank0
  3697  06B1  120D               	bcf	13,4	;volatile
  3698                           
  3699                           ;GLCD.c: 965: GLCD_GotoXY(GLCD_Coord.x, GLCD_Coord.y + 8);
  3700  06B2  0020               	movlb	0	; select bank0
  3701  06B3  084F               	movf	_GLCD_Coord+1,w
  3702  06B4  3E08               	addlw	8
  3703  06B5  00A9               	movwf	??_GLCD_WriteData
  3704  06B6  0829               	movf	??_GLCD_WriteData,w
  3705  06B7  00F9               	movwf	GLCD_GotoXY@y
  3706  06B8  084E               	movf	_GLCD_Coord,w
  3707  06B9  3185  258B  3186   	fcall	_GLCD_GotoXY
  3708                           
  3709                           ;GLCD.c: 967: do { GLCD_DoReadData(1); displayData = GLCD_DoReadData(0); } while (0);
  3710  06BC  3001               	movlw	1
  3711  06BD  3184  247E  3186   	fcall	_GLCD_DoReadData
  3712  06C0  3000               	movlw	0
  3713  06C1  3184  247E  3186   	fcall	_GLCD_DoReadData
  3714  06C4  0020               	movlb	0	; select bank0
  3715  06C5  00A9               	movwf	??_GLCD_WriteData
  3716  06C6  0829               	movf	??_GLCD_WriteData,w
  3717  06C7  00AE               	movwf	GLCD_WriteData@displayData
  3718                           
  3719                           ;GLCD.c: 972: PORTBbits.RB2 = 1;
  3720  06C8  150D               	bsf	13,2	;volatile
  3721                           
  3722                           ;GLCD.c: 973: PORTBbits.RB3 = 0;
  3723  06C9  118D               	bcf	13,3	;volatile
  3724                           
  3725                           ;GLCD.c: 974: do { PORTBbits.RB0 = chip; PORTBbits.RB1 = !chip; } while (0);
  3726  06CA  082F               	movf	GLCD_WriteData@chip,w
  3727  06CB  1D03               	skipz
  3728  06CC  140D               	bsf	13,0	;volatile
  3729  06CD  1903               	skipnz
  3730  06CE  100D               	bcf	13,0	;volatile
  3731  06CF  082F               	movf	GLCD_WriteData@chip,w
  3732  06D0  1D03               	btfss	3,2
  3733  06D1  2ED5               	goto	u2080
  3734  06D2  0020               	movlb	0	; select bank0
  3735  06D3  148D               	bsf	13,1	;volatile
  3736  06D4  2ED7               	goto	l2114
  3737  06D5                     u2080:	
  3738  06D5  0020               	movlb	0	; select bank0
  3739  06D6  108D               	bcf	13,1	;volatile
  3740  06D7                     l2114:	
  3741                           
  3742                           ;GLCD.c: 976: TRISC = 0x00;
  3743  06D7  0193               	clrf	19	;volatile
  3744                           
  3745                           ;GLCD.c: 978: displayData |= data >> (8 - yOffset);
  3746  06D8  082D               	movf	GLCD_WriteData@data,w
  3747  06D9  00A9               	movwf	??_GLCD_WriteData
  3748  06DA  032C               	decf	GLCD_WriteData@yOffset,w
  3749  06DB  3AFF               	xorlw	255
  3750  06DC  3E08               	addlw	8
  3751  06DD  0A89               	incf	9,f
  3752  06DE  2EE0               	goto	u2104
  3753  06DF                     u2105:	
  3754  06DF  36A9               	lsrf	??_GLCD_WriteData,f
  3755  06E0                     u2104:	
  3756  06E0  0B89               	decfsz	9,f
  3757  06E1  2EDF               	goto	u2105
  3758  06E2  0829               	movf	??_GLCD_WriteData,w
  3759  06E3  00AA               	movwf	??_GLCD_WriteData+1
  3760  06E4  082A               	movf	??_GLCD_WriteData+1,w
  3761  06E5  04AE               	iorwf	GLCD_WriteData@displayData,f
  3762                           
  3763                           ;GLCD.c: 979: if (GLCD_Inverted)
  3764  06E6  084D               	movf	_GLCD_Inverted,w
  3765  06E7  1D03               	btfss	3,2
  3766                           
  3767                           ;GLCD.c: 980: displayData = ~displayData;
  3768  06E8  09AE               	comf	GLCD_WriteData@displayData,f
  3769                           
  3770                           ;GLCD.c: 981: PORTC = displayData;
  3771  06E9  082E               	movf	GLCD_WriteData@displayData,w
  3772  06EA  008E               	movwf	14	;volatile
  3773                           
  3774                           ;GLCD.c: 982: do { _delay((unsigned long)((2)*(1000000/4000000.0))); PORTBbits.RB4 = 1; 
      +                          _delay((unsigned long)((2)*(1000000/4000000.0))); PORTBbits.RB4 = 0; _delay((unsigned lo
      +                          ng)((2)*(1000000/4000000.0))); } while (0);
  3775  06EB  0020               	movlb	0	; select bank0
  3776  06EC  160D               	bsf	13,4	;volatile
  3777  06ED  0020               	movlb	0	; select bank0
  3778  06EE  120D               	bcf	13,4	;volatile
  3779                           
  3780                           ;GLCD.c: 984: GLCD_GotoXY(GLCD_Coord.x + 1, GLCD_Coord.y - 8);
  3781  06EF  0020               	movlb	0	; select bank0
  3782  06F0  084F               	movf	_GLCD_Coord+1,w
  3783  06F1  3EF8               	addlw	248
  3784  06F2  00A9               	movwf	??_GLCD_WriteData
  3785  06F3  0829               	movf	??_GLCD_WriteData,w
  3786  06F4  00F9               	movwf	GLCD_GotoXY@y
  3787  06F5  084E               	movf	_GLCD_Coord,w
  3788  06F6  3E01               	addlw	1
  3789  06F7  3185  258B         	fcall	_GLCD_GotoXY
  3790                           
  3791                           ;GLCD.c: 985: } else {
  3792  06F9  0008               	return
  3793  06FA                     l2136:	
  3794                           
  3795                           ;GLCD.c: 987: if (GLCD_Inverted)
  3796  06FA  0020               	movlb	0	; select bank0
  3797  06FB  084D               	movf	_GLCD_Inverted,w
  3798  06FC  1D03               	btfss	3,2
  3799                           
  3800                           ;GLCD.c: 988: data = ~data;
  3801  06FD  09AD               	comf	GLCD_WriteData@data,f
  3802                           
  3803                           ;GLCD.c: 990: PORTC = data;
  3804                           
  3805                           ;GLCD.c: 989: _delay((unsigned long)((2)*(1000000/4000000.0)));
  3806  06FE  0020               	movlb	0	; select bank0
  3807  06FF  082D               	movf	GLCD_WriteData@data,w
  3808  0700  008E               	movwf	14	;volatile
  3809                           
  3810                           ;GLCD.c: 991: do { _delay((unsigned long)((2)*(1000000/4000000.0))); PORTBbits.RB4 = 1; 
      +                          _delay((unsigned long)((2)*(1000000/4000000.0))); PORTBbits.RB4 = 0; _delay((unsigned lo
      +                          ng)((2)*(1000000/4000000.0))); } while (0);
  3811  0701  0020               	movlb	0	; select bank0
  3812  0702  160D               	bsf	13,4	;volatile
  3813  0703  0020               	movlb	0	; select bank0
  3814  0704  120D               	bcf	13,4	;volatile
  3815                           
  3816                           ;GLCD.c: 992: GLCD_Coord.x++;
  3817  0705  3001               	movlw	1
  3818  0706  0020               	movlb	0	; select bank0
  3819  0707  00A9               	movwf	??_GLCD_WriteData
  3820  0708  0829               	movf	??_GLCD_WriteData,w
  3821  0709  07CE               	addwf	_GLCD_Coord,f
  3822  070A  0008               	return
  3823  070B                     __end_of_GLCD_WriteData:	
  3824                           
  3825                           	psect	text8
  3826  047E                     __ptext8:	
  3827 ;; *************** function _GLCD_DoReadData *****************
  3828 ;; Defined at:
  3829 ;;		line 884 in file "GLCD.c"
  3830 ;; Parameters:    Size  Location     Type
  3831 ;;  first           1    wreg     unsigned char 
  3832 ;; Auto vars:     Size  Location     Type
  3833 ;;  first           1    6[BANK0 ] unsigned char 
  3834 ;;  chip            1    8[BANK0 ] unsigned char 
  3835 ;;  data            1    7[BANK0 ] unsigned char 
  3836 ;; Return value:  Size  Location     Type
  3837 ;;                  1    wreg      unsigned char 
  3838 ;; Registers used:
  3839 ;;		wreg, status,2, status,0, pclath, cstack
  3840 ;; Tracked objects:
  3841 ;;		On entry : 0/0
  3842 ;;		On exit  : 0/0
  3843 ;;		Unchanged: 0/0
  3844 ;; Data sizes:     COMMON   BANK0   BANK1   BANK2   BANK3   BANK4   BANK5   BANK6   BANK7   BANK8   BANK9  BANK10  BANK1
      +1  BANK12
  3845 ;;      Params:         0       0       0       0       0       0       0       0       0       0       0       0       
      +0       0
  3846 ;;      Locals:         0       3       0       0       0       0       0       0       0       0       0       0       
      +0       0
  3847 ;;      Temps:          0       3       0       0       0       0       0       0       0       0       0       0       
      +0       0
  3848 ;;      Totals:         0       6       0       0       0       0       0       0       0       0       0       0       
      +0       0
  3849 ;;Total ram usage:        6 bytes
  3850 ;; Hardware stack levels used:    1
  3851 ;; Hardware stack levels required when called:    2
  3852 ;; This function calls:
  3853 ;;		_GLCD_GotoXY
  3854 ;;		___awdiv
  3855 ;; This function is called by:
  3856 ;;		_GLCD_FillRect
  3857 ;;		_GLCD_WriteData
  3858 ;;		_GLCD_InvertRect
  3859 ;;		_GLCD_SetDot
  3860 ;;		_GLCD_PutChar
  3861 ;; This function uses a non-reentrant model
  3862 ;;
  3863                           
  3864                           
  3865                           ;psect for function _GLCD_DoReadData
  3866  047E                     _GLCD_DoReadData:	
  3867                           
  3868                           ;incstack = 0
  3869                           ; Regs used in _GLCD_DoReadData: [wreg+status,2+status,0+pclath+cstack]
  3870                           ;GLCD_DoReadData@first stored from wreg
  3871  047E  0020               	movlb	0	; select bank0
  3872  047F  00A6               	movwf	GLCD_DoReadData@first
  3873                           
  3874                           ;GLCD.c: 886: uint8_t data, chip;
  3875                           ;GLCD.c: 888: chip = GLCD_Coord.x / 64;
  3876  0480  3040               	movlw	64
  3877  0481  00F0               	movwf	___awdiv@divisor
  3878  0482  3000               	movlw	0
  3879  0483  00F1               	movwf	___awdiv@divisor+1
  3880  0484  084E               	movf	_GLCD_Coord,w
  3881  0485  00A3               	movwf	??_GLCD_DoReadData
  3882  0486  01A4               	clrf	??_GLCD_DoReadData+1
  3883  0487  0823               	movf	??_GLCD_DoReadData,w
  3884  0488  00F2               	movwf	___awdiv@dividend
  3885  0489  0824               	movf	??_GLCD_DoReadData+1,w
  3886  048A  00F3               	movwf	___awdiv@dividend+1
  3887  048B  3183  23C6  3184   	fcall	___awdiv
  3888  048E  0870               	movf	?___awdiv,w
  3889  048F  0020               	movlb	0	; select bank0
  3890  0490  00A5               	movwf	??_GLCD_DoReadData+2
  3891  0491  0825               	movf	??_GLCD_DoReadData+2,w
  3892  0492  00A8               	movwf	GLCD_DoReadData@chip
  3893                           
  3894                           ;GLCD.c: 889: do { do { PORTBbits.RB0 = chip; PORTBbits.RB1 = !chip; } while (0); TRISC 
      +                          = 0xFF; PORTBbits.RB2 = 0; PORTBbits.RB3 = 1; PORTBbits.RB4 = 1; _delay((unsigned long)(
      +                          (2)*(1000000/4000000.0))); while (PORTC & 0x80); PORTBbits.RB4 = 0; } while (0);
  3895  0493  0828               	movf	GLCD_DoReadData@chip,w
  3896  0494  1D03               	skipz
  3897  0495  140D               	bsf	13,0	;volatile
  3898  0496  1903               	skipnz
  3899  0497  100D               	bcf	13,0	;volatile
  3900  0498  0828               	movf	GLCD_DoReadData@chip,w
  3901  0499  1D03               	btfss	3,2
  3902  049A  2C9E               	goto	u1860
  3903  049B  0020               	movlb	0	; select bank0
  3904  049C  148D               	bsf	13,1	;volatile
  3905  049D  2CA0               	goto	l1986
  3906  049E                     u1860:	
  3907  049E  0020               	movlb	0	; select bank0
  3908  049F  108D               	bcf	13,1	;volatile
  3909  04A0                     l1986:	
  3910  04A0  30FF               	movlw	255
  3911  04A1  0093               	movwf	19	;volatile
  3912  04A2  110D               	bcf	13,2	;volatile
  3913  04A3  158D               	bsf	13,3	;volatile
  3914  04A4  160D               	bsf	13,4	;volatile
  3915  04A5                     l355:	
  3916  04A5  0020               	movlb	0	; select bank0
  3917  04A6  1B8E               	btfsc	14,7	;volatile
  3918  04A7  2CA5               	goto	l355
  3919  04A8  120D               	bcf	13,4	;volatile
  3920                           
  3921                           ;GLCD.c: 890: if (first) {
  3922  04A9  0826               	movf	GLCD_DoReadData@first,w
  3923  04AA  1903               	btfsc	3,2
  3924  04AB  2CD2               	goto	l359
  3925                           
  3926                           ;GLCD.c: 891: if (GLCD_Coord.x % 64 == 0 && chip > 0) {
  3927  04AC  084E               	movf	_GLCD_Coord,w
  3928  04AD  393F               	andlw	63
  3929  04AE  1D03               	btfss	3,2
  3930  04AF  2CD2               	goto	l359
  3931  04B0  0828               	movf	GLCD_DoReadData@chip,w
  3932  04B1  1903               	btfsc	3,2
  3933  04B2  2CD2               	goto	l359
  3934                           
  3935                           ;GLCD.c: 892: GLCD_GotoXY(GLCD_Coord.x, GLCD_Coord.y);
  3936  04B3  084F               	movf	_GLCD_Coord+1,w
  3937  04B4  00A3               	movwf	??_GLCD_DoReadData
  3938  04B5  0823               	movf	??_GLCD_DoReadData,w
  3939  04B6  00F9               	movwf	GLCD_GotoXY@y
  3940  04B7  084E               	movf	_GLCD_Coord,w
  3941  04B8  3185  258B  3184   	fcall	_GLCD_GotoXY
  3942                           
  3943                           ;GLCD.c: 893: do { do { PORTBbits.RB0 = chip; PORTBbits.RB1 = !chip; } while (0); TRISC 
      +                          = 0xFF; PORTBbits.RB2 = 0; PORTBbits.RB3 = 1; PORTBbits.RB4 = 1; _delay((unsigned long)(
      +                          (2)*(1000000/4000000.0))); while (PORTC & 0x80); PORTBbits.RB4 = 0; } while (0);
  3944  04BB  0020               	movlb	0	; select bank0
  3945  04BC  0828               	movf	GLCD_DoReadData@chip,w
  3946  04BD  1D03               	skipz
  3947  04BE  140D               	bsf	13,0	;volatile
  3948  04BF  1903               	skipnz
  3949  04C0  100D               	bcf	13,0	;volatile
  3950  04C1  0828               	movf	GLCD_DoReadData@chip,w
  3951  04C2  1D03               	btfss	3,2
  3952  04C3  2CC7               	goto	u1920
  3953  04C4  0020               	movlb	0	; select bank0
  3954  04C5  148D               	bsf	13,1	;volatile
  3955  04C6  2CC9               	goto	l2008
  3956  04C7                     u1920:	
  3957  04C7  0020               	movlb	0	; select bank0
  3958  04C8  108D               	bcf	13,1	;volatile
  3959  04C9                     l2008:	
  3960  04C9  30FF               	movlw	255
  3961  04CA  0093               	movwf	19	;volatile
  3962  04CB  110D               	bcf	13,2	;volatile
  3963  04CC  158D               	bsf	13,3	;volatile
  3964  04CD  160D               	bsf	13,4	;volatile
  3965  04CE                     l364:	
  3966  04CE  0020               	movlb	0	; select bank0
  3967  04CF  1B8E               	btfsc	14,7	;volatile
  3968  04D0  2CCE               	goto	l364
  3969  04D1  120D               	bcf	13,4	;volatile
  3970  04D2                     l359:	
  3971                           
  3972                           ;GLCD.c: 894: }
  3973                           ;GLCD.c: 895: }
  3974                           ;GLCD.c: 896: PORTBbits.RB2 = 1;
  3975  04D2  150D               	bsf	13,2	;volatile
  3976                           
  3977                           ;GLCD.c: 897: PORTBbits.RB3 = 1;
  3978  04D3  158D               	bsf	13,3	;volatile
  3979                           
  3980                           ;GLCD.c: 899: PORTBbits.RB4 = 1;
  3981  04D4  160D               	bsf	13,4	;volatile
  3982                           
  3983                           ;GLCD.c: 902: data = PORTC;
  3984                           
  3985                           ;GLCD.c: 900: _delay((unsigned long)((2)*(1000000/4000000.0)));
  3986  04D5  0020               	movlb	0	; select bank0
  3987  04D6  080E               	movf	14,w	;volatile
  3988  04D7  00A3               	movwf	??_GLCD_DoReadData
  3989  04D8  0823               	movf	??_GLCD_DoReadData,w
  3990  04D9  00A7               	movwf	GLCD_DoReadData@data
  3991                           
  3992                           ;GLCD.c: 904: PORTBbits.RB4 = 0;
  3993  04DA  120D               	bcf	13,4	;volatile
  3994                           
  3995                           ;GLCD.c: 905: if (first == 0)
  3996  04DB  0826               	movf	GLCD_DoReadData@first,w
  3997  04DC  1D03               	btfss	3,2
  3998  04DD  2CE5               	goto	l2026
  3999                           
  4000                           ;GLCD.c: 906: GLCD_GotoXY(GLCD_Coord.x, GLCD_Coord.y);
  4001  04DE  084F               	movf	_GLCD_Coord+1,w
  4002  04DF  00A3               	movwf	??_GLCD_DoReadData
  4003  04E0  0823               	movf	??_GLCD_DoReadData,w
  4004  04E1  00F9               	movwf	GLCD_GotoXY@y
  4005  04E2  084E               	movf	_GLCD_Coord,w
  4006  04E3  3185  258B         	fcall	_GLCD_GotoXY
  4007  04E5                     l2026:	
  4008                           
  4009                           ;GLCD.c: 907: if (GLCD_Inverted)
  4010  04E5  0020               	movlb	0	; select bank0
  4011  04E6  084D               	movf	_GLCD_Inverted,w
  4012  04E7  1D03               	btfss	3,2
  4013                           
  4014                           ;GLCD.c: 908: data = ~data;
  4015  04E8  09A7               	comf	GLCD_DoReadData@data,f
  4016                           
  4017                           ;GLCD.c: 909: return data;
  4018  04E9  0827               	movf	GLCD_DoReadData@data,w
  4019  04EA  0008               	return
  4020  04EB                     __end_of_GLCD_DoReadData:	
  4021                           
  4022                           	psect	text9
  4023  058B                     __ptext9:	
  4024 ;; *************** function _GLCD_GotoXY *****************
  4025 ;; Defined at:
  4026 ;;		line 803 in file "GLCD.c"
  4027 ;; Parameters:    Size  Location     Type
  4028 ;;  x               1    wreg     unsigned char 
  4029 ;;  y               1    9[COMMON] unsigned char 
  4030 ;; Auto vars:     Size  Location     Type
  4031 ;;  x               1    1[BANK0 ] unsigned char 
  4032 ;;  chip            1    2[BANK0 ] unsigned char 
  4033 ;;  cmd             1    0[BANK0 ] unsigned char 
  4034 ;; Return value:  Size  Location     Type
  4035 ;;		None               void
  4036 ;; Registers used:
  4037 ;;		wreg, status,2, status,0, pclath, cstack
  4038 ;; Tracked objects:
  4039 ;;		On entry : 0/0
  4040 ;;		On exit  : 0/0
  4041 ;;		Unchanged: 0/0
  4042 ;; Data sizes:     COMMON   BANK0   BANK1   BANK2   BANK3   BANK4   BANK5   BANK6   BANK7   BANK8   BANK9  BANK10  BANK1
      +1  BANK12
  4043 ;;      Params:         1       0       0       0       0       0       0       0       0       0       0       0       
      +0       0
  4044 ;;      Locals:         0       3       0       0       0       0       0       0       0       0       0       0       
      +0       0
  4045 ;;      Temps:          3       0       0       0       0       0       0       0       0       0       0       0       
      +0       0
  4046 ;;      Totals:         4       3       0       0       0       0       0       0       0       0       0       0       
      +0       0
  4047 ;;Total ram usage:        7 bytes
  4048 ;; Hardware stack levels used:    1
  4049 ;; Hardware stack levels required when called:    1
  4050 ;; This function calls:
  4051 ;;		___awdiv
  4052 ;; This function is called by:
  4053 ;;		_GLCD_ClearPage
  4054 ;;		_GLCD_ClearScreen
  4055 ;;		_GLCD_FillRect
  4056 ;;		_GLCD_Init
  4057 ;;		_GLCD_DoReadData
  4058 ;;		_GLCD_WriteData
  4059 ;;		_GLCD_InvertRect
  4060 ;;		_GLCD_SetDot
  4061 ;;		_GLCD_PutChar
  4062 ;;		_GLCD_Puts
  4063 ;;		_GLCD_CursorTo
  4064 ;;		_GLCD_DrawBitmap
  4065 ;; This function uses a non-reentrant model
  4066 ;;
  4067                           
  4068                           
  4069                           ;psect for function _GLCD_GotoXY
  4070  058B                     _GLCD_GotoXY:	
  4071                           
  4072                           ;incstack = 0
  4073                           ; Regs used in _GLCD_GotoXY: [wreg+status,2+status,0+pclath+cstack]
  4074                           ;GLCD_GotoXY@x stored from wreg
  4075  058B  0020               	movlb	0	; select bank0
  4076  058C  00A1               	movwf	GLCD_GotoXY@x
  4077                           
  4078                           ;GLCD.c: 805: uint8_t chip, cmd;
  4079                           ;GLCD.c: 807: if ((x > 128 - 1) || (y > 64 - 1))
  4080  058D  3080               	movlw	128
  4081  058E  0221               	subwf	GLCD_GotoXY@x,w
  4082  058F  1803               	skipnc
  4083  0590  0008               	return
  4084  0591  3040               	movlw	64
  4085  0592  0279               	subwf	GLCD_GotoXY@y,w
  4086  0593  1803               	btfsc	3,0
  4087  0594  0008               	return
  4088                           
  4089                           ;GLCD.c: 809: GLCD_Coord.x = x;
  4090                           
  4091                           ;GLCD.c: 808: return;
  4092  0595  0821               	movf	GLCD_GotoXY@x,w
  4093  0596  00FA               	movwf	??_GLCD_GotoXY
  4094  0597  087A               	movf	??_GLCD_GotoXY,w
  4095  0598  00CE               	movwf	_GLCD_Coord
  4096                           
  4097                           ;GLCD.c: 810: GLCD_Coord.y = y;
  4098  0599  0879               	movf	GLCD_GotoXY@y,w
  4099  059A  00FA               	movwf	??_GLCD_GotoXY
  4100  059B  087A               	movf	??_GLCD_GotoXY,w
  4101  059C  00CF               	movwf	_GLCD_Coord+1
  4102                           
  4103                           ;GLCD.c: 812: if (y / 8 != GLCD_Coord.page) {
  4104  059D  3008               	movlw	8
  4105  059E  00F0               	movwf	___awdiv@divisor
  4106  059F  3000               	movlw	0
  4107  05A0  00F1               	movwf	___awdiv@divisor+1
  4108  05A1  0879               	movf	GLCD_GotoXY@y,w
  4109  05A2  00FA               	movwf	??_GLCD_GotoXY
  4110  05A3  01FB               	clrf	??_GLCD_GotoXY+1
  4111  05A4  087A               	movf	??_GLCD_GotoXY,w
  4112  05A5  00F2               	movwf	___awdiv@dividend
  4113  05A6  087B               	movf	??_GLCD_GotoXY+1,w
  4114  05A7  00F3               	movwf	___awdiv@dividend+1
  4115  05A8  3183  23C6  3185   	fcall	___awdiv
  4116  05AB  0020               	movlb	0	; select bank0
  4117  05AC  0850               	movf	_GLCD_Coord+2,w
  4118  05AD  0670               	xorwf	?___awdiv,w
  4119  05AE  0471               	iorwf	?___awdiv+1,w
  4120  05AF  1903               	skipnz
  4121  05B0  2DF8               	goto	l1938
  4122                           
  4123                           ;GLCD.c: 813: GLCD_Coord.page = y / 8;
  4124  05B1  3008               	movlw	8
  4125  05B2  00F0               	movwf	___awdiv@divisor
  4126  05B3  3000               	movlw	0
  4127  05B4  00F1               	movwf	___awdiv@divisor+1
  4128  05B5  0879               	movf	GLCD_GotoXY@y,w
  4129  05B6  00FA               	movwf	??_GLCD_GotoXY
  4130  05B7  01FB               	clrf	??_GLCD_GotoXY+1
  4131  05B8  087A               	movf	??_GLCD_GotoXY,w
  4132  05B9  00F2               	movwf	___awdiv@dividend
  4133  05BA  087B               	movf	??_GLCD_GotoXY+1,w
  4134  05BB  00F3               	movwf	___awdiv@dividend+1
  4135  05BC  3183  23C6  3185   	fcall	___awdiv
  4136  05BF  0870               	movf	?___awdiv,w
  4137  05C0  00FC               	movwf	??_GLCD_GotoXY+2
  4138  05C1  087C               	movf	??_GLCD_GotoXY+2,w
  4139  05C2  0020               	movlb	0	; select bank0
  4140  05C3  00D0               	movwf	_GLCD_Coord+2
  4141                           
  4142                           ;GLCD.c: 814: cmd = 0xB8 | GLCD_Coord.page;
  4143  05C4  0850               	movf	_GLCD_Coord+2,w
  4144  05C5  38B8               	iorlw	184
  4145  05C6  00FA               	movwf	??_GLCD_GotoXY
  4146  05C7  087A               	movf	??_GLCD_GotoXY,w
  4147  05C8  00A0               	movwf	GLCD_GotoXY@cmd
  4148                           
  4149                           ;GLCD.c: 815: for (chip = 0; chip < 128 / 64; chip++) {
  4150  05C9  01A2               	clrf	GLCD_GotoXY@chip
  4151  05CA  3002               	movlw	2
  4152  05CB  0222               	subwf	GLCD_GotoXY@chip,w
  4153  05CC  1803               	btfsc	3,0
  4154  05CD  2DF8               	goto	l1938
  4155  05CE                     l1898:	
  4156                           ;GLCD.c: 816: do { do { do { PORTBbits.RB0 = chip; PORTBbits.RB1 = !chip; } while (0); T
      +                          RISC = 0xFF; PORTBbits.RB2 = 0; PORTBbits.RB3 = 1; PORTBbits.RB4 = 1; _delay((unsigned l
      +                          ong)((2)*(1000000/4000000.0))); while (PORTC & 0x80); PORTBbits.RB4 = 0; } while (0); PO
  4157                           
  4158  05CE  0822               	movf	GLCD_GotoXY@chip,w
  4159  05CF  1D03               	skipz
  4160  05D0  140D               	bsf	13,0	;volatile
  4161  05D1  1903               	skipnz
  4162  05D2  100D               	bcf	13,0	;volatile
  4163  05D3  0822               	movf	GLCD_GotoXY@chip,w
  4164  05D4  1D03               	btfss	3,2
  4165  05D5  2DD9               	goto	u1790
  4166  05D6  0020               	movlb	0	; select bank0
  4167  05D7  148D               	bsf	13,1	;volatile
  4168  05D8  2DDB               	goto	l1902
  4169  05D9                     u1790:	
  4170  05D9  0020               	movlb	0	; select bank0
  4171  05DA  108D               	bcf	13,1	;volatile
  4172  05DB                     l1902:	
  4173  05DB  30FF               	movlw	255
  4174  05DC  0093               	movwf	19	;volatile
  4175  05DD  110D               	bcf	13,2	;volatile
  4176  05DE  158D               	bsf	13,3	;volatile
  4177  05DF  160D               	bsf	13,4	;volatile
  4178  05E0                     l301:	
  4179  05E0  0020               	movlb	0	; select bank0
  4180  05E1  1B8E               	btfsc	14,7	;volatile
  4181  05E2  2DE0               	goto	l301
  4182  05E3  120D               	bcf	13,4	;volatile
  4183  05E4  110D               	bcf	13,2	;volatile
  4184  05E5  118D               	bcf	13,3	;volatile
  4185  05E6  0193               	clrf	19	;volatile
  4186  05E7  0020               	movlb	0	; select bank0
  4187  05E8  0820               	movf	GLCD_GotoXY@cmd,w
  4188  05E9  008E               	movwf	14	;volatile
  4189  05EA  0020               	movlb	0	; select bank0
  4190  05EB  160D               	bsf	13,4	;volatile
  4191  05EC  0020               	movlb	0	; select bank0
  4192  05ED  120D               	bcf	13,4	;volatile
  4193  05EE  0020               	movlb	0	; select bank0
  4194  05EF  018E               	clrf	14	;volatile
  4195  05F0  3001               	movlw	1
  4196  05F1  00FA               	movwf	??_GLCD_GotoXY
  4197  05F2  087A               	movf	??_GLCD_GotoXY,w
  4198  05F3  07A2               	addwf	GLCD_GotoXY@chip,f
  4199  05F4  3002               	movlw	2
  4200  05F5  0222               	subwf	GLCD_GotoXY@chip,w
  4201  05F6  1C03               	skipc
  4202  05F7  2DCE               	goto	l1898
  4203  05F8                     l1938:	
  4204                           
  4205                           ;GLCD.c: 817: }
  4206                           ;GLCD.c: 818: }
  4207                           ;GLCD.c: 819: chip = GLCD_Coord.x / 64;
  4208  05F8  3040               	movlw	64
  4209  05F9  00F0               	movwf	___awdiv@divisor
  4210  05FA  3000               	movlw	0
  4211  05FB  00F1               	movwf	___awdiv@divisor+1
  4212  05FC  084E               	movf	_GLCD_Coord,w
  4213  05FD  00FA               	movwf	??_GLCD_GotoXY
  4214  05FE  01FB               	clrf	??_GLCD_GotoXY+1
  4215  05FF  087A               	movf	??_GLCD_GotoXY,w
  4216  0600  00F2               	movwf	___awdiv@dividend
  4217  0601  087B               	movf	??_GLCD_GotoXY+1,w
  4218  0602  00F3               	movwf	___awdiv@dividend+1
  4219  0603  3183  23C6  3185   	fcall	___awdiv
  4220  0606  0870               	movf	?___awdiv,w
  4221  0607  00FC               	movwf	??_GLCD_GotoXY+2
  4222  0608  087C               	movf	??_GLCD_GotoXY+2,w
  4223  0609  0020               	movlb	0	; select bank0
  4224  060A  00A2               	movwf	GLCD_GotoXY@chip
  4225                           
  4226                           ;GLCD.c: 820: x = x % 64;
  4227  060B  0821               	movf	GLCD_GotoXY@x,w
  4228  060C  393F               	andlw	63
  4229  060D  00FA               	movwf	??_GLCD_GotoXY
  4230  060E  087A               	movf	??_GLCD_GotoXY,w
  4231  060F  00A1               	movwf	GLCD_GotoXY@x
  4232                           
  4233                           ;GLCD.c: 821: cmd = 0x40 | x;
  4234  0610  0821               	movf	GLCD_GotoXY@x,w
  4235  0611  3840               	iorlw	64
  4236  0612  00FA               	movwf	??_GLCD_GotoXY
  4237  0613  087A               	movf	??_GLCD_GotoXY,w
  4238  0614  00A0               	movwf	GLCD_GotoXY@cmd
  4239                           
  4240                           ;GLCD.c: 822: do { do { do { PORTBbits.RB0 = chip; PORTBbits.RB1 = !chip; } while (0); T
      +                          RISC = 0xFF; PORTBbits.RB2 = 0; PORTBbits.RB3 = 1; PORTBbits.RB4 = 1; _delay((unsigned l
      +                          ong)((2)*(1000000/4000000.0))); while (PORTC & 0x80); PORTBbits.RB4 = 0; } while (0); PO
  4241  0615  0822               	movf	GLCD_GotoXY@chip,w
  4242  0616  1D03               	skipz
  4243  0617  140D               	bsf	13,0	;volatile
  4244  0618  1903               	skipnz
  4245  0619  100D               	bcf	13,0	;volatile
  4246  061A  0822               	movf	GLCD_GotoXY@chip,w
  4247  061B  1D03               	btfss	3,2
  4248  061C  2E20               	goto	u1830
  4249  061D  0020               	movlb	0	; select bank0
  4250  061E  148D               	bsf	13,1	;volatile
  4251  061F  2E22               	goto	l1948
  4252  0620                     u1830:	
  4253  0620  0020               	movlb	0	; select bank0
  4254  0621  108D               	bcf	13,1	;volatile
  4255  0622                     l1948:	
  4256  0622  30FF               	movlw	255
  4257  0623  0093               	movwf	19	;volatile
  4258  0624  110D               	bcf	13,2	;volatile
  4259  0625  158D               	bsf	13,3	;volatile
  4260  0626  160D               	bsf	13,4	;volatile
  4261  0627                     l312:	
  4262  0627  0020               	movlb	0	; select bank0
  4263  0628  1B8E               	btfsc	14,7	;volatile
  4264  0629  2E27               	goto	l312
  4265  062A  120D               	bcf	13,4	;volatile
  4266  062B  110D               	bcf	13,2	;volatile
  4267  062C  118D               	bcf	13,3	;volatile
  4268  062D  0193               	clrf	19	;volatile
  4269  062E  0020               	movlb	0	; select bank0
  4270  062F  0820               	movf	GLCD_GotoXY@cmd,w
  4271  0630  008E               	movwf	14	;volatile
  4272  0631  0020               	movlb	0	; select bank0
  4273  0632  160D               	bsf	13,4	;volatile
  4274  0633  0020               	movlb	0	; select bank0
  4275  0634  120D               	bcf	13,4	;volatile
  4276  0635  0020               	movlb	0	; select bank0
  4277  0636  018E               	clrf	14	;volatile
  4278  0637  0008               	return
  4279  0638                     __end_of_GLCD_GotoXY:	
  4280                           
  4281                           	psect	text10
  4282  03C6                     __ptext10:	
  4283 ;; *************** function ___awdiv *****************
  4284 ;; Defined at:
  4285 ;;		line 6 in file "C:\Program Files (x86)\Microchip\xc8\v1.35\sources\common\awdiv.c"
  4286 ;; Parameters:    Size  Location     Type
  4287 ;;  divisor         2    0[COMMON] int 
  4288 ;;  dividend        2    2[COMMON] int 
  4289 ;; Auto vars:     Size  Location     Type
  4290 ;;  quotient        2    7[COMMON] int 
  4291 ;;  sign            1    6[COMMON] unsigned char 
  4292 ;;  counter         1    5[COMMON] unsigned char 
  4293 ;; Return value:  Size  Location     Type
  4294 ;;                  2    0[COMMON] int 
  4295 ;; Registers used:
  4296 ;;		wreg, status,2, status,0
  4297 ;; Tracked objects:
  4298 ;;		On entry : 0/0
  4299 ;;		On exit  : 0/0
  4300 ;;		Unchanged: 0/0
  4301 ;; Data sizes:     COMMON   BANK0   BANK1   BANK2   BANK3   BANK4   BANK5   BANK6   BANK7   BANK8   BANK9  BANK10  BANK1
      +1  BANK12
  4302 ;;      Params:         4       0       0       0       0       0       0       0       0       0       0       0       
      +0       0
  4303 ;;      Locals:         4       0       0       0       0       0       0       0       0       0       0       0       
      +0       0
  4304 ;;      Temps:          1       0       0       0       0       0       0       0       0       0       0       0       
      +0       0
  4305 ;;      Totals:         9       0       0       0       0       0       0       0       0       0       0       0       
      +0       0
  4306 ;;Total ram usage:        9 bytes
  4307 ;; Hardware stack levels used:    1
  4308 ;; This function calls:
  4309 ;;		Nothing
  4310 ;; This function is called by:
  4311 ;;		_GLCD_GotoXY
  4312 ;;		_GLCD_DoReadData
  4313 ;;		_GLCD_WriteData
  4314 ;;		_GLCD_DrawLine
  4315 ;;		_GLCD_PutChar
  4316 ;;		_GLCD_DrawBitmap
  4317 ;; This function uses a non-reentrant model
  4318 ;;
  4319                           
  4320                           
  4321                           ;psect for function ___awdiv
  4322  03C6                     ___awdiv:	
  4323                           
  4324                           ;incstack = 0
  4325                           ; Regs used in ___awdiv: [wreg+status,2+status,0]
  4326  03C6  01F6               	clrf	___awdiv@sign
  4327  03C7  1FF1               	btfss	___awdiv@divisor+1,7
  4328  03C8  2BD0               	goto	l1844
  4329  03C9  09F0               	comf	___awdiv@divisor,f
  4330  03CA  09F1               	comf	___awdiv@divisor+1,f
  4331  03CB  0AF0               	incf	___awdiv@divisor,f
  4332  03CC  1903               	skipnz
  4333  03CD  0AF1               	incf	___awdiv@divisor+1,f
  4334  03CE  01F6               	clrf	___awdiv@sign
  4335  03CF  0AF6               	incf	___awdiv@sign,f
  4336  03D0                     l1844:	
  4337  03D0  1FF3               	btfss	___awdiv@dividend+1,7
  4338  03D1  2BDB               	goto	l1850
  4339  03D2  09F2               	comf	___awdiv@dividend,f
  4340  03D3  09F3               	comf	___awdiv@dividend+1,f
  4341  03D4  0AF2               	incf	___awdiv@dividend,f
  4342  03D5  1903               	skipnz
  4343  03D6  0AF3               	incf	___awdiv@dividend+1,f
  4344  03D7  3001               	movlw	1
  4345  03D8  00F4               	movwf	??___awdiv
  4346  03D9  0874               	movf	??___awdiv,w
  4347  03DA  06F6               	xorwf	___awdiv@sign,f
  4348  03DB                     l1850:	
  4349  03DB  01F7               	clrf	___awdiv@quotient
  4350  03DC  01F8               	clrf	___awdiv@quotient+1
  4351  03DD  0870               	movf	___awdiv@divisor,w
  4352  03DE  0471               	iorwf	___awdiv@divisor+1,w
  4353  03DF  1903               	btfsc	3,2
  4354  03E0  2C0A               	goto	l1872
  4355  03E1  01F5               	clrf	___awdiv@counter
  4356  03E2  0AF5               	incf	___awdiv@counter,f
  4357  03E3                     l1860:	
  4358  03E3  1BF1               	btfsc	___awdiv@divisor+1,7
  4359  03E4  2BEF               	goto	l1862
  4360  03E5  3001               	movlw	1
  4361  03E6                     u1685:	
  4362  03E6  35F0               	lslf	___awdiv@divisor,f
  4363  03E7  0DF1               	rlf	___awdiv@divisor+1,f
  4364  03E8  0B89               	decfsz	9,f
  4365  03E9  2BE6               	goto	u1685
  4366  03EA  3001               	movlw	1
  4367  03EB  00F4               	movwf	??___awdiv
  4368  03EC  0874               	movf	??___awdiv,w
  4369  03ED  07F5               	addwf	___awdiv@counter,f
  4370  03EE  2BE3               	goto	l1860
  4371  03EF                     l1862:	
  4372  03EF  3001               	movlw	1
  4373  03F0                     u1705:	
  4374  03F0  35F7               	lslf	___awdiv@quotient,f
  4375  03F1  0DF8               	rlf	___awdiv@quotient+1,f
  4376  03F2  0B89               	decfsz	9,f
  4377  03F3  2BF0               	goto	u1705
  4378  03F4  0871               	movf	___awdiv@divisor+1,w
  4379  03F5  0273               	subwf	___awdiv@dividend+1,w
  4380  03F6  1D03               	skipz
  4381  03F7  2BFA               	goto	u1715
  4382  03F8  0870               	movf	___awdiv@divisor,w
  4383  03F9  0272               	subwf	___awdiv@dividend,w
  4384  03FA                     u1715:	
  4385  03FA  1C03               	skipc
  4386  03FB  2C01               	goto	l1868
  4387  03FC  0870               	movf	___awdiv@divisor,w
  4388  03FD  02F2               	subwf	___awdiv@dividend,f
  4389  03FE  0871               	movf	___awdiv@divisor+1,w
  4390  03FF  3BF3               	subwfb	___awdiv@dividend+1,f
  4391  0400  1477               	bsf	___awdiv@quotient,0
  4392  0401                     l1868:	
  4393  0401  3001               	movlw	1
  4394  0402                     u1725:	
  4395  0402  36F1               	lsrf	___awdiv@divisor+1,f
  4396  0403  0CF0               	rrf	___awdiv@divisor,f
  4397  0404  0B89               	decfsz	9,f
  4398  0405  2C02               	goto	u1725
  4399  0406  3001               	movlw	1
  4400  0407  02F5               	subwf	___awdiv@counter,f
  4401  0408  1D03               	btfss	3,2
  4402  0409  2BEF               	goto	l1862
  4403  040A                     l1872:	
  4404  040A  0876               	movf	___awdiv@sign,w
  4405  040B  1903               	btfsc	3,2
  4406  040C  2C12               	goto	l1876
  4407  040D  09F7               	comf	___awdiv@quotient,f
  4408  040E  09F8               	comf	___awdiv@quotient+1,f
  4409  040F  0AF7               	incf	___awdiv@quotient,f
  4410  0410  1903               	skipnz
  4411  0411  0AF8               	incf	___awdiv@quotient+1,f
  4412  0412                     l1876:	
  4413  0412  0878               	movf	___awdiv@quotient+1,w
  4414  0413  00F1               	movwf	?___awdiv+1
  4415  0414  0877               	movf	___awdiv@quotient,w
  4416  0415  00F0               	movwf	?___awdiv
  4417  0416  0008               	return
  4418  0417                     __end_of___awdiv:	
  4419  007E                     btemp	set	126	;btemp
  4420  007E                     wtemp	set	126
  4421  007E                     wtemp0	set	126
  4422  0080                     wtemp1	set	128
  4423  0082                     wtemp2	set	130
  4424  0084                     wtemp3	set	132
  4425  0086                     wtemp4	set	134
  4426  0088                     wtemp5	set	136
  4427  007F                     wtemp6	set	127
  4428  007E                     ttemp	set	126
  4429  007E                     ttemp0	set	126
  4430  0081                     ttemp1	set	129
  4431  0084                     ttemp2	set	132
  4432  0087                     ttemp3	set	135
  4433  007F                     ttemp4	set	127
  4434  007E                     ltemp	set	126
  4435  007E                     ltemp0	set	126
  4436  0082                     ltemp1	set	130
  4437  0086                     ltemp2	set	134
  4438  0080                     ltemp3	set	128


Data Sizes:
    Strings     0
    Constant    486
    Data        0
    BSS         9
    Persistent  0
    Stack       0

Auto Spaces:
    Space          Size  Autos    Used
    COMMON           14     14      14
    BANK0            80     40      49
    BANK1            80      0       0
    BANK2            80      0       0
    BANK3            80      0       0
    BANK4            80      0       0
    BANK5            80      0       0
    BANK6            80      0       0
    BANK7            80      0       0
    BANK8            80      0       0
    BANK9            80      0       0
    BANK10           80      0       0
    BANK11           80      0       0
    BANK12           48      0       0

Pointer List with Targets:

    Absolute function$0	PTR const unsigned char  size(2) Largest target is 8192
		 -> ROM(CODE[8192]), 

    GLCD_FontRead$0	PTR const unsigned char  size(2) Largest target is 8192
		 -> ROM(CODE[8192]), 

    GLCD_FontRead	PTR FTN(PTR const unsigned char ,)unsigned char  size(2) Largest target is 1
		 -> Absolute function(), 

    GLCD_Font	PTR const unsigned char  size(2) Largest target is 8192
		 -> ROM(CODE[8192]), 


Critical Paths under _main in COMMON

    _main->_GLCD_DrawRect
    _GLCD_ClearScreen->_GLCD_ClearPage
    _GLCD_ClearPage->_GLCD_GotoXY
    _GLCD_FillRect->_GLCD_GotoXY
    _GLCD_WriteData->_GLCD_GotoXY
    _GLCD_DoReadData->_GLCD_GotoXY
    _GLCD_GotoXY->___awdiv

Critical Paths under _main in BANK0

    _main->_GLCD_DrawRect
    _GLCD_Init->_GLCD_ClearScreen
    _GLCD_ClearScreen->_GLCD_ClearPage
    _GLCD_ClearPage->_GLCD_WriteData
    _GLCD_DrawRect->_GLCD_FillRect
    _GLCD_FillRect->_GLCD_WriteData
    _GLCD_WriteData->_GLCD_DoReadData
    _GLCD_DoReadData->_GLCD_GotoXY

Critical Paths under _main in BANK1

    None.

Critical Paths under _main in BANK2

    None.

Critical Paths under _main in BANK3

    None.

Critical Paths under _main in BANK4

    None.

Critical Paths under _main in BANK5

    None.

Critical Paths under _main in BANK6

    None.

Critical Paths under _main in BANK7

    None.

Critical Paths under _main in BANK8

    None.

Critical Paths under _main in BANK9

    None.

Critical Paths under _main in BANK10

    None.

Critical Paths under _main in BANK11

    None.

Critical Paths under _main in BANK12

    None.

Call Graph Tables:

 ---------------------------------------------------------------------------------
 (Depth) Function   	        Calls       Base Space   Used Autos Params    Refs
 ---------------------------------------------------------------------------------
 (0) _main                                                 3     3      0   40466
                                             37 BANK0      3     3      0
                      _GLCD_DrawRect
                          _GLCD_Init
                               _Init
 ---------------------------------------------------------------------------------
 (1) _Init                                                 0     0      0       0
 ---------------------------------------------------------------------------------
 (1) _GLCD_Init                                            6     6      0   19450
                                             24 BANK0      6     6      0
                   _GLCD_ClearScreen
                        _GLCD_GotoXY
 ---------------------------------------------------------------------------------
 (2) _GLCD_ClearScreen                                     4     4      0   16158
                                             20 BANK0      4     4      0
                     _GLCD_ClearPage
                        _GLCD_GotoXY
 ---------------------------------------------------------------------------------
 (3) _GLCD_ClearPage                                       5     4      1   12956
                                             13 COMMON     1     0      1
                                             16 BANK0      4     4      0
                        _GLCD_GotoXY
                     _GLCD_WriteData
 ---------------------------------------------------------------------------------
 (1) _GLCD_DrawRect                                        8     4      4   21016
                                             13 COMMON     1     1      0
                                             30 BANK0      7     3      4
                      _GLCD_FillRect
 ---------------------------------------------------------------------------------
 (2) _GLCD_FillRect                                       14    10      4   20364
                                             16 BANK0     14    10      4
                    _GLCD_DoReadData
                        _GLCD_GotoXY
                     _GLCD_WriteData
 ---------------------------------------------------------------------------------
 (4) _GLCD_WriteData                                       7     7      0    9690
                                              9 BANK0      7     7      0
                    _GLCD_DoReadData
                        _GLCD_GotoXY
                            ___awdiv
 ---------------------------------------------------------------------------------
 (5) _GLCD_DoReadData                                      6     6      0    4743
                                              3 BANK0      6     6      0
                        _GLCD_GotoXY
                            ___awdiv
 ---------------------------------------------------------------------------------
 (2) _GLCD_GotoXY                                          7     6      1    3090
                                              9 COMMON     4     3      1
                                              0 BANK0      3     3      0
                            ___awdiv
 ---------------------------------------------------------------------------------
 (3) ___awdiv                                              9     5      4    1452
                                              0 COMMON     9     5      4
 ---------------------------------------------------------------------------------
 Estimated maximum stack depth 5
 ---------------------------------------------------------------------------------

 Call Graph Graphs:

 _main (ROOT)
   _GLCD_DrawRect
     _GLCD_FillRect
       _GLCD_DoReadData
         _GLCD_GotoXY
           ___awdiv
         ___awdiv
       _GLCD_GotoXY
         ___awdiv
       _GLCD_WriteData
         _GLCD_DoReadData
           _GLCD_GotoXY
             ___awdiv
           ___awdiv
         _GLCD_GotoXY
           ___awdiv
         ___awdiv
   _GLCD_Init
     _GLCD_ClearScreen
       _GLCD_ClearPage
         _GLCD_GotoXY
           ___awdiv
         _GLCD_WriteData
           _GLCD_DoReadData
             _GLCD_GotoXY
               ___awdiv
             ___awdiv
           _GLCD_GotoXY
             ___awdiv
           ___awdiv
       _GLCD_GotoXY
         ___awdiv
     _GLCD_GotoXY
       ___awdiv
   _Init

 Address spaces:
Name               Size   Autos  Total    Cost      Usage
BIGRAM             3F0      0       0       0        0.0%
NULL                 0      0       0       0        0.0%
CODE                 0      0       0       0        0.0%
BITCOMMON            E      0       0       1        0.0%
BITSFR0              0      0       0       1        0.0%
SFR0                 0      0       0       1        0.0%
COMMON               E      E       E       2      100.0%
BITSFR1              0      0       0       2        0.0%
SFR1                 0      0       0       2        0.0%
BITSFR2              0      0       0       3        0.0%
SFR2                 0      0       0       3        0.0%
STACK                0      0       0       3        0.0%
BITBANK0            50      0       0       4        0.0%
BITSFR3              0      0       0       4        0.0%
SFR3                 0      0       0       4        0.0%
BANK0               50     28      31       5       61.3%
BITSFR4              0      0       0       5        0.0%
SFR4                 0      0       0       5        0.0%
BITBANK1            50      0       0       6        0.0%
BITSFR5              0      0       0       6        0.0%
SFR5                 0      0       0       6        0.0%
BANK1               50      0       0       7        0.0%
BITSFR6              0      0       0       7        0.0%
SFR6                 0      0       0       7        0.0%
BITBANK2            50      0       0       8        0.0%
BITSFR7              0      0       0       8        0.0%
SFR7                 0      0       0       8        0.0%
BANK2               50      0       0       9        0.0%
BITSFR8              0      0       0       9        0.0%
SFR8                 0      0       0       9        0.0%
BITBANK3            50      0       0      10        0.0%
BITSFR9              0      0       0      10        0.0%
SFR9                 0      0       0      10        0.0%
BANK3               50      0       0      11        0.0%
BITSFR10             0      0       0      11        0.0%
SFR10                0      0       0      11        0.0%
BITBANK4            50      0       0      12        0.0%
BITSFR11             0      0       0      12        0.0%
SFR11                0      0       0      12        0.0%
BANK4               50      0       0      13        0.0%
BITSFR12             0      0       0      13        0.0%
SFR12                0      0       0      13        0.0%
BITBANK5            50      0       0      14        0.0%
BITSFR13             0      0       0      14        0.0%
SFR13                0      0       0      14        0.0%
BANK5               50      0       0      15        0.0%
BITSFR14             0      0       0      15        0.0%
SFR14                0      0       0      15        0.0%
BITBANK6            50      0       0      16        0.0%
BITSFR15             0      0       0      16        0.0%
SFR15                0      0       0      16        0.0%
BANK6               50      0       0      17        0.0%
BITSFR16             0      0       0      17        0.0%
SFR16                0      0       0      17        0.0%
BITBANK7            50      0       0      18        0.0%
BITSFR17             0      0       0      18        0.0%
SFR17                0      0       0      18        0.0%
BANK7               50      0       0      19        0.0%
BITSFR18             0      0       0      19        0.0%
SFR18                0      0       0      19        0.0%
BITSFR19             0      0       0      20        0.0%
SFR19                0      0       0      20        0.0%
ABS                  0      0      3F      20        0.0%
BITBANK8            50      0       0      21        0.0%
BITSFR20             0      0       0      21        0.0%
SFR20                0      0       0      21        0.0%
BANK8               50      0       0      22        0.0%
BITSFR21             0      0       0      22        0.0%
SFR21                0      0       0      22        0.0%
BITBANK9            50      0       0      23        0.0%
BITSFR22             0      0       0      23        0.0%
SFR22                0      0       0      23        0.0%
BANK9               50      0       0      24        0.0%
BITSFR23             0      0       0      24        0.0%
SFR23                0      0       0      24        0.0%
BITBANK10           50      0       0      25        0.0%
BITSFR24             0      0       0      25        0.0%
SFR24                0      0       0      25        0.0%
BANK10              50      0       0      26        0.0%
BITSFR25             0      0       0      26        0.0%
SFR25                0      0       0      26        0.0%
BITBANK11           50      0       0      27        0.0%
BITSFR26             0      0       0      27        0.0%
SFR26                0      0       0      27        0.0%
BANK11              50      0       0      28        0.0%
BITSFR27             0      0       0      28        0.0%
SFR27                0      0       0      28        0.0%
BITBANK12           30      0       0      29        0.0%
BITSFR28             0      0       0      29        0.0%
SFR28                0      0       0      29        0.0%
BANK12              30      0       0      30        0.0%
BITSFR29             0      0       0      30        0.0%
SFR29                0      0       0      30        0.0%
BITSFR30             0      0       0      31        0.0%
SFR30                0      0       0      31        0.0%
DATA                 0      0      3F      31        0.0%
BITSFR31             0      0       0      32        0.0%
SFR31                0      0       0      32        0.0%


Microchip Technology PIC Macro Assembler V1.35 build -356382666 
Symbol Table                                                                                   Fri Apr 21 21:58:42 2017

              __CFG_CP$OFF 0000               ___awdiv@sign 0076                __CFG_LVP$ON 0000  
                      l301 05E0                        l312 0627                        l327 0534  
                      l338 0556                        l355 04A5                        l364 04CE  
                      l359 04D2                        l378 0663                        _RA3 0063  
             __CFG_CPD$OFF 0000               __CFG_BORV$LO 0000                        wreg 0009  
       __size_of_GLCD_Init 00A0               __CFG_ZCD$OFF 0000                       l2008 04C9  
                     l2026 04E5                       l2114 06D7                       l2210 0758  
                     l2060 0676                       l2044 065E                       l2212 077E  
                     l2204 0770                       l2222 0791                       l2206 0774  
                     l2080 069D                       l2136 06FA                       l2240 07E6  
                     l2224 079F                       l2242 07EA                       l2246 07CE  
                     l2192 0740                       l2604 057E                       l2524 0518  
                     l1902 05DB                       l2606 0582                       l2528 052F  
                     l1850 03DB                       l2562 0551                       l1860 03E3  
                     l1844 03D0                       l1862 03EF                       l1872 040A  
                     l2816 044D                       l1938 05F8                       l1876 0412  
                     l1868 0401                       l1948 0622                       l2598 056E  
                     l1898 05CE                       l1986 04A0                       u2104 06E0  
                     u2040 069B                       u2200 073B                       u2105 06DF  
                     u2210 074B                       u2205 0739                       _LATA 0016  
                     _LATB 0017                       u2215 0749                       _LATC 0018  
                     u2080 06D5                       u2064 06A3                       u2065 06A2  
                     u2145 0340                       u2255 07AD                       u2175 0360  
                     u1705 03F0                       u2274 07BC                       u1715 03FA  
                     u2275 07BB                       u2195 0731                       u3307 0422  
                     u1725 0402                       u3317 0431                       u1830 0620  
                     u3327 0444                       u1920 04C7                       u3337 0455  
                     u2810 052D                       u3347 0464                       u1860 049E  
                     u1685 03E6                       u3357 04F1                       u1790 05D9  
                     u3367 04FD                       u2840 054F                       u3377 0506  
                     u3387 051C                       u1980 065C                       u3397 0572  
                     _Init 0325               __CFG_WRT$OFF 0000                       _main 0417  
                     btemp 007E              __CFG_BOREN$ON 0000                       ltemp 007E  
                     start 0002                       ttemp 007E                       wtemp 007E  
            __CFG_MCLRE$ON 0000         GLCD_WriteData@data 002D         GLCD_WriteData@chip 002F  
                    ?_Init 0070                      ?_main 0070            __end_of___awdiv 0417  
            __CFG_WDTE$OFF 0000            ___awdiv@divisor 0070            ___awdiv@counter 0075  
                    _PORTA 000C                      _PORTB 000D                      _PORTC 000E  
                    _TRISA 0011                      _TRISB 0012                      _TRISC 0013  
           __CFG_FCMEN$OFF 0000           ?_GLCD_DoReadData 0070         GLCD_FillRect@color 0033  
                    ltemp0 007E                      ltemp1 0082                      ltemp2 0086  
                    ltemp3 0080         GLCD_FillRect@width 0031                      ttemp0 007E  
                    ttemp1 0081                      ttemp2 0084                      ttemp3 0087  
                    ttemp4 007F  GLCD_WriteData@displayData 002E                      status 0003  
                    wtemp0 007E                      wtemp1 0080                      wtemp2 0082  
                    wtemp3 0084                      wtemp4 0086                      wtemp5 0088  
                    wtemp6 007F             __CFG_CSWEN$OFF 0000            __initialization 07F4  
             __end_of_Init 0336               __end_of_main 047E          __end_of_GLCD_Init 058B  
                   ??_Init 0070                     ??_main 0045       __size_of_GLCD_GotoXY 00AD  
         ___awdiv@dividend 0072                     _ANSELA 0F38                     _ANSELB 0F43  
                   _ANSELC 0F4E         __CFG_RSTOSC$HFINT1 0000             __CFG_WDTCCS$SC 0000  
           __CFG_PWRTE$OFF 0000                  ??___awdiv 0074             __CFG_STVREN$ON 0000  
         ___awdiv@quotient 0077        GLCD_FillRect@height 0032       GLCD_DoReadData@first 0026  
  __size_of_GLCD_ClearPage 0020    __end_of__initialization 07FD      __end_of_GLCD_FillRect 07F4  
    __end_of_GLCD_DrawRect 03C6          ?_GLCD_ClearScreen 0070         GLCD_DrawRect@color 0041  
           __pcstackCOMMON 0070         ??_GLCD_ClearScreen 0034         GLCD_DrawRect@width 003F  
               __pbssBANK0 0048        GLCD_ClearPage@color 007D                 __pmaintext 0417  
          __CFG_PPS1WAY$ON 0000    __size_of_GLCD_WriteData 00D3          __end_of_System5x7 09E6  
     __CFG_SCANE$available 0000                    ___awdiv 03C6                    __ptext1 0325  
                  __ptext2 04EB                    __ptext3 0356                    __ptext4 0336  
                  __ptext5 037B                    __ptext6 070B                    __ptext7 0638  
                  __ptext8 047E                    __ptext9 058B                  _GLCD_Font 0048  
                _GLCD_Init 04EB             _GLCD_ClearPage 0336       end_of_initialization 07FD  
           GLCD_FillRect@h 003A             GLCD_FillRect@i 003C             GLCD_FillRect@x 0038  
           GLCD_FillRect@y 0030             GLCD_DrawRect@x 007D             GLCD_DrawRect@y 003E  
 __size_of_GLCD_DoReadData 006D             _GLCD_FontColor 004C               __pstringtext 0800  
    __CFG_WDTCPS$WDTCPS_31 0000              ??_GLCD_GotoXY 007A                  _PORTBbits 000D  
               ?_GLCD_Init 0070             GLCD_GotoXY@cmd 0020     __end_of_GLCD_ClearPage 0356  
         __CFG_FEXTOSC$OFF 0000        GLCD_DrawRect@height 0040             _GLCD_WriteData 0638  
        GLCD_FillRect@data 0039          GLCD_FillRect@mask 003D  __size_of_GLCD_ClearScreen 0025  
      start_initialization 07F4            ?_GLCD_ClearPage 007D        __end_of_GLCD_GotoXY 0638  
    GLCD_ClearScreen@color 0036           __CFG_LPBOREN$OFF 0000     __end_of_GLCD_WriteData 070B  
        ??_GLCD_DoReadData 0023        GLCD_DoReadData@data 0027        GLCD_DoReadData@chip 0028  
              ??_GLCD_Init 0038     __size_of_GLCD_FillRect 00E9     __size_of_GLCD_DrawRect 004B  
                ___latbits 0002              __pcstackBANK0 0020    GLCD_FillRect@pageOffset 003B  
                _System5x7 0800         GLCD_ClearPage@page 0032      GLCD_WriteData@yOffset 002C  
          ?_GLCD_WriteData 0070                   ?___awdiv 0070                _GLCD_GotoXY 058B  
            _GLCD_FillRect 070B              _GLCD_Init$270 003A              _GLCD_DrawRect 037B  
            _GLCD_FontRead 004A              GLCD_Init@chip 003D              _GLCD_Inverted 004D  
         _GLCD_ClearScreen 0356       GLCD_ClearScreen@page 0037             ?_GLCD_FillRect 0030  
           ?_GLCD_DrawRect 003E           __size_of___awdiv 0051           ??_GLCD_ClearPage 0030  
          GLCD_ClearPage@x 0033                   __ptext10 03C6                 _GLCD_Coord 004E  
            __size_of_Init 0011              __size_of_main 0067            _GLCD_DoReadData 047E  
     __CFG_WDTCWS$WDTCWS_7 0000               GLCD_GotoXY@x 0021               GLCD_GotoXY@y 0079  
          ??_GLCD_FillRect 0034            ??_GLCD_DrawRect 0042          __CFG_CLKOUTEN$OFF 0000  
         ??_GLCD_WriteData 0029               ?_GLCD_GotoXY 0079    __end_of_GLCD_DoReadData 04EB  
          GLCD_Init@invert 003C            GLCD_GotoXY@chip 0022   __end_of_GLCD_ClearScreen 037B  
