

Microchip Technology PIC LITE Macro Assembler V1.38 build -256452561 
                                                                                               Sun Aug 05 21:18:24 2018

Microchip Technology Omniscient Code Generator v1.38 (Free mode) build 201607010351
     1                           	processor	16F18855
     2                           	opt	pw 120
     3                           	opt	lm
     4                           	psect	stringtext,global,class=STRCODE,delta=2
     5                           	psect	cinit,global,class=CODE,merge=1,delta=2
     6                           	psect	bssBANK0,global,class=BANK0,space=1,delta=1
     7                           	psect	cstackCOMMON,global,class=COMMON,space=1,delta=1
     8                           	psect	cstackBANK0,global,class=BANK0,space=1,delta=1
     9                           	psect	maintext,global,class=CODE,merge=1,split=1,delta=2
    10                           	psect	text1,local,class=CODE,merge=1,delta=2
    11                           	psect	text2,local,class=CODE,merge=1,delta=2
    12                           	psect	text3,local,class=CODE,merge=1,delta=2
    13                           	psect	text4,local,class=CODE,merge=1,delta=2
    14                           	psect	text5,local,class=CODE,merge=1,delta=2
    15                           	psect	text6,local,class=CODE,merge=1,delta=2
    16                           	psect	text7,local,class=CODE,merge=1,delta=2
    17                           	psect	text8,local,class=CODE,merge=1,delta=2
    18                           	psect	text9,local,class=CODE,merge=1,delta=2
    19                           	psect	text10,local,class=CODE,merge=1,delta=2
    20                           	psect	text11,local,class=CODE,merge=1,delta=2
    21                           	psect	text12,local,class=CODE,merge=1,delta=2
    22                           	psect	text13,local,class=CODE,merge=1,delta=2
    23                           	psect	text14,local,class=CODE,merge=1,delta=2
    24                           	psect	text15,local,class=CODE,merge=1,delta=2
    25                           	psect	text16,local,class=CODE,merge=1,delta=2
    26                           	psect	text17,local,class=CODE,merge=1,delta=2
    27                           	dabs	1,0x7E,2
    28  0000                     	;# 
    29  0001                     	;# 
    30  0002                     	;# 
    31  0003                     	;# 
    32  0004                     	;# 
    33  0005                     	;# 
    34  0006                     	;# 
    35  0007                     	;# 
    36  0008                     	;# 
    37  0009                     	;# 
    38  000A                     	;# 
    39  000B                     	;# 
    40  000C                     	;# 
    41  000D                     	;# 
    42  000E                     	;# 
    43  0010                     	;# 
    44  0011                     	;# 
    45  0012                     	;# 
    46  0013                     	;# 
    47  0016                     	;# 
    48  0017                     	;# 
    49  0018                     	;# 
    50  001C                     	;# 
    51  001C                     	;# 
    52  001D                     	;# 
    53  001D                     	;# 
    54  001E                     	;# 
    55  001F                     	;# 
    56  008C                     	;# 
    57  008C                     	;# 
    58  008D                     	;# 
    59  008E                     	;# 
    60  008E                     	;# 
    61  008F                     	;# 
    62  0090                     	;# 
    63  0090                     	;# 
    64  0091                     	;# 
    65  0093                     	;# 
    66  0094                     	;# 
    67  0095                     	;# 
    68  0096                     	;# 
    69  0097                     	;# 
    70  0098                     	;# 
    71  0099                     	;# 
    72  009A                     	;# 
    73  009B                     	;# 
    74  009C                     	;# 
    75  009D                     	;# 
    76  009E                     	;# 
    77  010C                     	;# 
    78  010D                     	;# 
    79  010E                     	;# 
    80  010E                     	;# 
    81  010F                     	;# 
    82  0110                     	;# 
    83  0110                     	;# 
    84  0111                     	;# 
    85  0112                     	;# 
    86  0112                     	;# 
    87  0113                     	;# 
    88  0114                     	;# 
    89  0114                     	;# 
    90  0115                     	;# 
    91  0116                     	;# 
    92  0116                     	;# 
    93  0117                     	;# 
    94  0119                     	;# 
    95  0119                     	;# 
    96  0119                     	;# 
    97  011A                     	;# 
    98  011A                     	;# 
    99  011A                     	;# 
   100  011B                     	;# 
   101  011B                     	;# 
   102  011B                     	;# 
   103  011B                     	;# 
   104  011B                     	;# 
   105  011C                     	;# 
   106  011C                     	;# 
   107  011C                     	;# 
   108  011D                     	;# 
   109  011D                     	;# 
   110  011D                     	;# 
   111  011E                     	;# 
   112  011E                     	;# 
   113  011E                     	;# 
   114  011F                     	;# 
   115  011F                     	;# 
   116  011F                     	;# 
   117  011F                     	;# 
   118  011F                     	;# 
   119  018C                     	;# 
   120  018D                     	;# 
   121  018E                     	;# 
   122  018F                     	;# 
   123  0190                     	;# 
   124  0191                     	;# 
   125  0192                     	;# 
   126  0196                     	;# 
   127  0197                     	;# 
   128  0198                     	;# 
   129  0199                     	;# 
   130  019A                     	;# 
   131  019B                     	;# 
   132  019C                     	;# 
   133  020C                     	;# 
   134  020D                     	;# 
   135  020E                     	;# 
   136  020F                     	;# 
   137  020F                     	;# 
   138  0210                     	;# 
   139  0210                     	;# 
   140  0211                     	;# 
   141  0211                     	;# 
   142  0212                     	;# 
   143  0213                     	;# 
   144  0214                     	;# 
   145  0215                     	;# 
   146  0215                     	;# 
   147  0216                     	;# 
   148  0216                     	;# 
   149  0217                     	;# 
   150  0217                     	;# 
   151  0218                     	;# 
   152  0219                     	;# 
   153  021A                     	;# 
   154  021B                     	;# 
   155  021B                     	;# 
   156  021C                     	;# 
   157  021C                     	;# 
   158  021D                     	;# 
   159  021D                     	;# 
   160  021E                     	;# 
   161  021F                     	;# 
   162  028C                     	;# 
   163  028C                     	;# 
   164  028D                     	;# 
   165  028D                     	;# 
   166  028E                     	;# 
   167  028F                     	;# 
   168  0290                     	;# 
   169  0290                     	;# 
   170  0291                     	;# 
   171  0292                     	;# 
   172  0292                     	;# 
   173  0293                     	;# 
   174  0293                     	;# 
   175  0294                     	;# 
   176  0295                     	;# 
   177  0296                     	;# 
   178  0296                     	;# 
   179  0297                     	;# 
   180  0298                     	;# 
   181  0298                     	;# 
   182  0299                     	;# 
   183  0299                     	;# 
   184  029A                     	;# 
   185  029B                     	;# 
   186  029C                     	;# 
   187  029C                     	;# 
   188  029D                     	;# 
   189  030C                     	;# 
   190  030C                     	;# 
   191  030D                     	;# 
   192  030E                     	;# 
   193  030F                     	;# 
   194  0310                     	;# 
   195  0310                     	;# 
   196  0311                     	;# 
   197  0312                     	;# 
   198  0313                     	;# 
   199  0314                     	;# 
   200  0314                     	;# 
   201  0315                     	;# 
   202  0316                     	;# 
   203  0317                     	;# 
   204  0318                     	;# 
   205  0318                     	;# 
   206  0319                     	;# 
   207  031A                     	;# 
   208  031B                     	;# 
   209  031C                     	;# 
   210  031C                     	;# 
   211  031D                     	;# 
   212  031E                     	;# 
   213  031F                     	;# 
   214  038C                     	;# 
   215  038D                     	;# 
   216  038E                     	;# 
   217  0390                     	;# 
   218  0391                     	;# 
   219  0392                     	;# 
   220  040C                     	;# 
   221  040D                     	;# 
   222  040E                     	;# 
   223  040F                     	;# 
   224  0410                     	;# 
   225  0411                     	;# 
   226  0416                     	;# 
   227  0416                     	;# 
   228  0417                     	;# 
   229  0418                     	;# 
   230  0418                     	;# 
   231  0419                     	;# 
   232  041A                     	;# 
   233  041A                     	;# 
   234  041B                     	;# 
   235  041C                     	;# 
   236  041C                     	;# 
   237  041D                     	;# 
   238  041E                     	;# 
   239  041F                     	;# 
   240  048C                     	;# 
   241  048C                     	;# 
   242  048D                     	;# 
   243  048E                     	;# 
   244  048F                     	;# 
   245  048F                     	;# 
   246  0490                     	;# 
   247  0491                     	;# 
   248  0492                     	;# 
   249  0492                     	;# 
   250  0493                     	;# 
   251  0494                     	;# 
   252  0495                     	;# 
   253  0495                     	;# 
   254  0496                     	;# 
   255  0497                     	;# 
   256  0498                     	;# 
   257  0499                     	;# 
   258  049A                     	;# 
   259  049B                     	;# 
   260  049C                     	;# 
   261  049D                     	;# 
   262  050C                     	;# 
   263  050C                     	;# 
   264  050D                     	;# 
   265  050E                     	;# 
   266  050F                     	;# 
   267  050F                     	;# 
   268  0510                     	;# 
   269  0511                     	;# 
   270  0512                     	;# 
   271  0512                     	;# 
   272  0513                     	;# 
   273  0514                     	;# 
   274  0515                     	;# 
   275  0515                     	;# 
   276  0516                     	;# 
   277  0517                     	;# 
   278  0518                     	;# 
   279  0519                     	;# 
   280  051A                     	;# 
   281  051B                     	;# 
   282  051C                     	;# 
   283  051D                     	;# 
   284  058C                     	;# 
   285  058C                     	;# 
   286  058D                     	;# 
   287  058E                     	;# 
   288  058F                     	;# 
   289  058F                     	;# 
   290  0590                     	;# 
   291  0591                     	;# 
   292  0592                     	;# 
   293  0593                     	;# 
   294  060C                     	;# 
   295  060D                     	;# 
   296  060E                     	;# 
   297  060F                     	;# 
   298  0610                     	;# 
   299  0611                     	;# 
   300  0612                     	;# 
   301  0613                     	;# 
   302  0614                     	;# 
   303  0616                     	;# 
   304  0617                     	;# 
   305  0618                     	;# 
   306  0619                     	;# 
   307  061A                     	;# 
   308  061B                     	;# 
   309  061C                     	;# 
   310  061D                     	;# 
   311  061E                     	;# 
   312  068C                     	;# 
   313  068D                     	;# 
   314  068E                     	;# 
   315  068F                     	;# 
   316  0690                     	;# 
   317  0691                     	;# 
   318  0692                     	;# 
   319  0693                     	;# 
   320  0694                     	;# 
   321  070C                     	;# 
   322  070D                     	;# 
   323  070E                     	;# 
   324  070F                     	;# 
   325  0710                     	;# 
   326  0711                     	;# 
   327  0712                     	;# 
   328  0713                     	;# 
   329  0714                     	;# 
   330  0716                     	;# 
   331  0717                     	;# 
   332  0718                     	;# 
   333  0719                     	;# 
   334  071A                     	;# 
   335  071B                     	;# 
   336  071C                     	;# 
   337  071D                     	;# 
   338  071E                     	;# 
   339  0796                     	;# 
   340  0797                     	;# 
   341  0798                     	;# 
   342  0799                     	;# 
   343  079A                     	;# 
   344  079B                     	;# 
   345  080C                     	;# 
   346  080D                     	;# 
   347  080E                     	;# 
   348  080F                     	;# 
   349  0810                     	;# 
   350  0811                     	;# 
   351  0812                     	;# 
   352  0813                     	;# 
   353  0814                     	;# 
   354  081A                     	;# 
   355  081B                     	;# 
   356  081C                     	;# 
   357  081D                     	;# 
   358  081E                     	;# 
   359  081F                     	;# 
   360  088C                     	;# 
   361  088D                     	;# 
   362  088E                     	;# 
   363  088F                     	;# 
   364  0890                     	;# 
   365  0891                     	;# 
   366  0892                     	;# 
   367  0893                     	;# 
   368  0895                     	;# 
   369  0896                     	;# 
   370  0897                     	;# 
   371  0898                     	;# 
   372  0899                     	;# 
   373  089A                     	;# 
   374  089B                     	;# 
   375  090C                     	;# 
   376  090E                     	;# 
   377  090F                     	;# 
   378  091F                     	;# 
   379  091F                     	;# 
   380  098F                     	;# 
   381  098F                     	;# 
   382  0990                     	;# 
   383  0991                     	;# 
   384  0992                     	;# 
   385  0993                     	;# 
   386  0994                     	;# 
   387  0995                     	;# 
   388  0996                     	;# 
   389  0997                     	;# 
   390  0E0F                     	;# 
   391  0E10                     	;# 
   392  0E11                     	;# 
   393  0E12                     	;# 
   394  0E13                     	;# 
   395  0E14                     	;# 
   396  0E15                     	;# 
   397  0E16                     	;# 
   398  0E17                     	;# 
   399  0E18                     	;# 
   400  0E19                     	;# 
   401  0E1A                     	;# 
   402  0E1B                     	;# 
   403  0E1C                     	;# 
   404  0E1D                     	;# 
   405  0E1E                     	;# 
   406  0E1F                     	;# 
   407  0E20                     	;# 
   408  0E21                     	;# 
   409  0E22                     	;# 
   410  0E23                     	;# 
   411  0E24                     	;# 
   412  0E25                     	;# 
   413  0E26                     	;# 
   414  0E27                     	;# 
   415  0E28                     	;# 
   416  0E29                     	;# 
   417  0E2A                     	;# 
   418  0E2B                     	;# 
   419  0E2C                     	;# 
   420  0E2D                     	;# 
   421  0E2E                     	;# 
   422  0E2F                     	;# 
   423  0E30                     	;# 
   424  0E31                     	;# 
   425  0E32                     	;# 
   426  0E33                     	;# 
   427  0E34                     	;# 
   428  0E35                     	;# 
   429  0E36                     	;# 
   430  0E37                     	;# 
   431  0E8F                     	;# 
   432  0E90                     	;# 
   433  0E91                     	;# 
   434  0E92                     	;# 
   435  0E93                     	;# 
   436  0E94                     	;# 
   437  0E95                     	;# 
   438  0E96                     	;# 
   439  0E97                     	;# 
   440  0E9C                     	;# 
   441  0E9D                     	;# 
   442  0E9E                     	;# 
   443  0EA1                     	;# 
   444  0EA2                     	;# 
   445  0EA3                     	;# 
   446  0EA4                     	;# 
   447  0EA5                     	;# 
   448  0EA9                     	;# 
   449  0EAA                     	;# 
   450  0EAB                     	;# 
   451  0EAC                     	;# 
   452  0EB1                     	;# 
   453  0EB2                     	;# 
   454  0EB3                     	;# 
   455  0EB8                     	;# 
   456  0EB9                     	;# 
   457  0EBA                     	;# 
   458  0EBB                     	;# 
   459  0EBC                     	;# 
   460  0EBD                     	;# 
   461  0EBE                     	;# 
   462  0EC3                     	;# 
   463  0EC5                     	;# 
   464  0EC6                     	;# 
   465  0EC7                     	;# 
   466  0EC8                     	;# 
   467  0EC9                     	;# 
   468  0ECA                     	;# 
   469  0ECB                     	;# 
   470  0ECC                     	;# 
   471  0F10                     	;# 
   472  0F11                     	;# 
   473  0F12                     	;# 
   474  0F13                     	;# 
   475  0F14                     	;# 
   476  0F15                     	;# 
   477  0F16                     	;# 
   478  0F17                     	;# 
   479  0F18                     	;# 
   480  0F19                     	;# 
   481  0F1A                     	;# 
   482  0F1B                     	;# 
   483  0F1C                     	;# 
   484  0F1D                     	;# 
   485  0F1E                     	;# 
   486  0F1F                     	;# 
   487  0F20                     	;# 
   488  0F21                     	;# 
   489  0F22                     	;# 
   490  0F23                     	;# 
   491  0F24                     	;# 
   492  0F25                     	;# 
   493  0F26                     	;# 
   494  0F27                     	;# 
   495  0F38                     	;# 
   496  0F39                     	;# 
   497  0F3A                     	;# 
   498  0F3B                     	;# 
   499  0F3C                     	;# 
   500  0F3D                     	;# 
   501  0F3E                     	;# 
   502  0F3F                     	;# 
   503  0F40                     	;# 
   504  0F41                     	;# 
   505  0F43                     	;# 
   506  0F44                     	;# 
   507  0F45                     	;# 
   508  0F46                     	;# 
   509  0F47                     	;# 
   510  0F48                     	;# 
   511  0F49                     	;# 
   512  0F4A                     	;# 
   513  0F4B                     	;# 
   514  0F4C                     	;# 
   515  0F4E                     	;# 
   516  0F4F                     	;# 
   517  0F50                     	;# 
   518  0F51                     	;# 
   519  0F52                     	;# 
   520  0F53                     	;# 
   521  0F54                     	;# 
   522  0F55                     	;# 
   523  0F56                     	;# 
   524  0F57                     	;# 
   525  0F65                     	;# 
   526  0F68                     	;# 
   527  0F69                     	;# 
   528  0F6A                     	;# 
   529  0F6B                     	;# 
   530  0FE4                     	;# 
   531  0FE5                     	;# 
   532  0FE6                     	;# 
   533  0FE7                     	;# 
   534  0FE8                     	;# 
   535  0FE9                     	;# 
   536  0FEA                     	;# 
   537  0FEB                     	;# 
   538  0FED                     	;# 
   539  0FEE                     	;# 
   540  0FEF                     	;# 
   541  0000                     	;# 
   542  0001                     	;# 
   543  0002                     	;# 
   544  0003                     	;# 
   545  0004                     	;# 
   546  0005                     	;# 
   547  0006                     	;# 
   548  0007                     	;# 
   549  0008                     	;# 
   550  0009                     	;# 
   551  000A                     	;# 
   552  000B                     	;# 
   553  000C                     	;# 
   554  000D                     	;# 
   555  000E                     	;# 
   556  0010                     	;# 
   557  0011                     	;# 
   558  0012                     	;# 
   559  0013                     	;# 
   560  0016                     	;# 
   561  0017                     	;# 
   562  0018                     	;# 
   563  001C                     	;# 
   564  001C                     	;# 
   565  001D                     	;# 
   566  001D                     	;# 
   567  001E                     	;# 
   568  001F                     	;# 
   569  008C                     	;# 
   570  008C                     	;# 
   571  008D                     	;# 
   572  008E                     	;# 
   573  008E                     	;# 
   574  008F                     	;# 
   575  0090                     	;# 
   576  0090                     	;# 
   577  0091                     	;# 
   578  0093                     	;# 
   579  0094                     	;# 
   580  0095                     	;# 
   581  0096                     	;# 
   582  0097                     	;# 
   583  0098                     	;# 
   584  0099                     	;# 
   585  009A                     	;# 
   586  009B                     	;# 
   587  009C                     	;# 
   588  009D                     	;# 
   589  009E                     	;# 
   590  010C                     	;# 
   591  010D                     	;# 
   592  010E                     	;# 
   593  010E                     	;# 
   594  010F                     	;# 
   595  0110                     	;# 
   596  0110                     	;# 
   597  0111                     	;# 
   598  0112                     	;# 
   599  0112                     	;# 
   600  0113                     	;# 
   601  0114                     	;# 
   602  0114                     	;# 
   603  0115                     	;# 
   604  0116                     	;# 
   605  0116                     	;# 
   606  0117                     	;# 
   607  0119                     	;# 
   608  0119                     	;# 
   609  0119                     	;# 
   610  011A                     	;# 
   611  011A                     	;# 
   612  011A                     	;# 
   613  011B                     	;# 
   614  011B                     	;# 
   615  011B                     	;# 
   616  011B                     	;# 
   617  011B                     	;# 
   618  011C                     	;# 
   619  011C                     	;# 
   620  011C                     	;# 
   621  011D                     	;# 
   622  011D                     	;# 
   623  011D                     	;# 
   624  011E                     	;# 
   625  011E                     	;# 
   626  011E                     	;# 
   627  011F                     	;# 
   628  011F                     	;# 
   629  011F                     	;# 
   630  011F                     	;# 
   631  011F                     	;# 
   632  018C                     	;# 
   633  018D                     	;# 
   634  018E                     	;# 
   635  018F                     	;# 
   636  0190                     	;# 
   637  0191                     	;# 
   638  0192                     	;# 
   639  0196                     	;# 
   640  0197                     	;# 
   641  0198                     	;# 
   642  0199                     	;# 
   643  019A                     	;# 
   644  019B                     	;# 
   645  019C                     	;# 
   646  020C                     	;# 
   647  020D                     	;# 
   648  020E                     	;# 
   649  020F                     	;# 
   650  020F                     	;# 
   651  0210                     	;# 
   652  0210                     	;# 
   653  0211                     	;# 
   654  0211                     	;# 
   655  0212                     	;# 
   656  0213                     	;# 
   657  0214                     	;# 
   658  0215                     	;# 
   659  0215                     	;# 
   660  0216                     	;# 
   661  0216                     	;# 
   662  0217                     	;# 
   663  0217                     	;# 
   664  0218                     	;# 
   665  0219                     	;# 
   666  021A                     	;# 
   667  021B                     	;# 
   668  021B                     	;# 
   669  021C                     	;# 
   670  021C                     	;# 
   671  021D                     	;# 
   672  021D                     	;# 
   673  021E                     	;# 
   674  021F                     	;# 
   675  028C                     	;# 
   676  028C                     	;# 
   677  028D                     	;# 
   678  028D                     	;# 
   679  028E                     	;# 
   680  028F                     	;# 
   681  0290                     	;# 
   682  0290                     	;# 
   683  0291                     	;# 
   684  0292                     	;# 
   685  0292                     	;# 
   686  0293                     	;# 
   687  0293                     	;# 
   688  0294                     	;# 
   689  0295                     	;# 
   690  0296                     	;# 
   691  0296                     	;# 
   692  0297                     	;# 
   693  0298                     	;# 
   694  0298                     	;# 
   695  0299                     	;# 
   696  0299                     	;# 
   697  029A                     	;# 
   698  029B                     	;# 
   699  029C                     	;# 
   700  029C                     	;# 
   701  029D                     	;# 
   702  030C                     	;# 
   703  030C                     	;# 
   704  030D                     	;# 
   705  030E                     	;# 
   706  030F                     	;# 
   707  0310                     	;# 
   708  0310                     	;# 
   709  0311                     	;# 
   710  0312                     	;# 
   711  0313                     	;# 
   712  0314                     	;# 
   713  0314                     	;# 
   714  0315                     	;# 
   715  0316                     	;# 
   716  0317                     	;# 
   717  0318                     	;# 
   718  0318                     	;# 
   719  0319                     	;# 
   720  031A                     	;# 
   721  031B                     	;# 
   722  031C                     	;# 
   723  031C                     	;# 
   724  031D                     	;# 
   725  031E                     	;# 
   726  031F                     	;# 
   727  038C                     	;# 
   728  038D                     	;# 
   729  038E                     	;# 
   730  0390                     	;# 
   731  0391                     	;# 
   732  0392                     	;# 
   733  040C                     	;# 
   734  040D                     	;# 
   735  040E                     	;# 
   736  040F                     	;# 
   737  0410                     	;# 
   738  0411                     	;# 
   739  0416                     	;# 
   740  0416                     	;# 
   741  0417                     	;# 
   742  0418                     	;# 
   743  0418                     	;# 
   744  0419                     	;# 
   745  041A                     	;# 
   746  041A                     	;# 
   747  041B                     	;# 
   748  041C                     	;# 
   749  041C                     	;# 
   750  041D                     	;# 
   751  041E                     	;# 
   752  041F                     	;# 
   753  048C                     	;# 
   754  048C                     	;# 
   755  048D                     	;# 
   756  048E                     	;# 
   757  048F                     	;# 
   758  048F                     	;# 
   759  0490                     	;# 
   760  0491                     	;# 
   761  0492                     	;# 
   762  0492                     	;# 
   763  0493                     	;# 
   764  0494                     	;# 
   765  0495                     	;# 
   766  0495                     	;# 
   767  0496                     	;# 
   768  0497                     	;# 
   769  0498                     	;# 
   770  0499                     	;# 
   771  049A                     	;# 
   772  049B                     	;# 
   773  049C                     	;# 
   774  049D                     	;# 
   775  050C                     	;# 
   776  050C                     	;# 
   777  050D                     	;# 
   778  050E                     	;# 
   779  050F                     	;# 
   780  050F                     	;# 
   781  0510                     	;# 
   782  0511                     	;# 
   783  0512                     	;# 
   784  0512                     	;# 
   785  0513                     	;# 
   786  0514                     	;# 
   787  0515                     	;# 
   788  0515                     	;# 
   789  0516                     	;# 
   790  0517                     	;# 
   791  0518                     	;# 
   792  0519                     	;# 
   793  051A                     	;# 
   794  051B                     	;# 
   795  051C                     	;# 
   796  051D                     	;# 
   797  058C                     	;# 
   798  058C                     	;# 
   799  058D                     	;# 
   800  058E                     	;# 
   801  058F                     	;# 
   802  058F                     	;# 
   803  0590                     	;# 
   804  0591                     	;# 
   805  0592                     	;# 
   806  0593                     	;# 
   807  060C                     	;# 
   808  060D                     	;# 
   809  060E                     	;# 
   810  060F                     	;# 
   811  0610                     	;# 
   812  0611                     	;# 
   813  0612                     	;# 
   814  0613                     	;# 
   815  0614                     	;# 
   816  0616                     	;# 
   817  0617                     	;# 
   818  0618                     	;# 
   819  0619                     	;# 
   820  061A                     	;# 
   821  061B                     	;# 
   822  061C                     	;# 
   823  061D                     	;# 
   824  061E                     	;# 
   825  068C                     	;# 
   826  068D                     	;# 
   827  068E                     	;# 
   828  068F                     	;# 
   829  0690                     	;# 
   830  0691                     	;# 
   831  0692                     	;# 
   832  0693                     	;# 
   833  0694                     	;# 
   834  070C                     	;# 
   835  070D                     	;# 
   836  070E                     	;# 
   837  070F                     	;# 
   838  0710                     	;# 
   839  0711                     	;# 
   840  0712                     	;# 
   841  0713                     	;# 
   842  0714                     	;# 
   843  0716                     	;# 
   844  0717                     	;# 
   845  0718                     	;# 
   846  0719                     	;# 
   847  071A                     	;# 
   848  071B                     	;# 
   849  071C                     	;# 
   850  071D                     	;# 
   851  071E                     	;# 
   852  0796                     	;# 
   853  0797                     	;# 
   854  0798                     	;# 
   855  0799                     	;# 
   856  079A                     	;# 
   857  079B                     	;# 
   858  080C                     	;# 
   859  080D                     	;# 
   860  080E                     	;# 
   861  080F                     	;# 
   862  0810                     	;# 
   863  0811                     	;# 
   864  0812                     	;# 
   865  0813                     	;# 
   866  0814                     	;# 
   867  081A                     	;# 
   868  081B                     	;# 
   869  081C                     	;# 
   870  081D                     	;# 
   871  081E                     	;# 
   872  081F                     	;# 
   873  088C                     	;# 
   874  088D                     	;# 
   875  088E                     	;# 
   876  088F                     	;# 
   877  0890                     	;# 
   878  0891                     	;# 
   879  0892                     	;# 
   880  0893                     	;# 
   881  0895                     	;# 
   882  0896                     	;# 
   883  0897                     	;# 
   884  0898                     	;# 
   885  0899                     	;# 
   886  089A                     	;# 
   887  089B                     	;# 
   888  090C                     	;# 
   889  090E                     	;# 
   890  090F                     	;# 
   891  091F                     	;# 
   892  091F                     	;# 
   893  098F                     	;# 
   894  098F                     	;# 
   895  0990                     	;# 
   896  0991                     	;# 
   897  0992                     	;# 
   898  0993                     	;# 
   899  0994                     	;# 
   900  0995                     	;# 
   901  0996                     	;# 
   902  0997                     	;# 
   903  0E0F                     	;# 
   904  0E10                     	;# 
   905  0E11                     	;# 
   906  0E12                     	;# 
   907  0E13                     	;# 
   908  0E14                     	;# 
   909  0E15                     	;# 
   910  0E16                     	;# 
   911  0E17                     	;# 
   912  0E18                     	;# 
   913  0E19                     	;# 
   914  0E1A                     	;# 
   915  0E1B                     	;# 
   916  0E1C                     	;# 
   917  0E1D                     	;# 
   918  0E1E                     	;# 
   919  0E1F                     	;# 
   920  0E20                     	;# 
   921  0E21                     	;# 
   922  0E22                     	;# 
   923  0E23                     	;# 
   924  0E24                     	;# 
   925  0E25                     	;# 
   926  0E26                     	;# 
   927  0E27                     	;# 
   928  0E28                     	;# 
   929  0E29                     	;# 
   930  0E2A                     	;# 
   931  0E2B                     	;# 
   932  0E2C                     	;# 
   933  0E2D                     	;# 
   934  0E2E                     	;# 
   935  0E2F                     	;# 
   936  0E30                     	;# 
   937  0E31                     	;# 
   938  0E32                     	;# 
   939  0E33                     	;# 
   940  0E34                     	;# 
   941  0E35                     	;# 
   942  0E36                     	;# 
   943  0E37                     	;# 
   944  0E8F                     	;# 
   945  0E90                     	;# 
   946  0E91                     	;# 
   947  0E92                     	;# 
   948  0E93                     	;# 
   949  0E94                     	;# 
   950  0E95                     	;# 
   951  0E96                     	;# 
   952  0E97                     	;# 
   953  0E9C                     	;# 
   954  0E9D                     	;# 
   955  0E9E                     	;# 
   956  0EA1                     	;# 
   957  0EA2                     	;# 
   958  0EA3                     	;# 
   959  0EA4                     	;# 
   960  0EA5                     	;# 
   961  0EA9                     	;# 
   962  0EAA                     	;# 
   963  0EAB                     	;# 
   964  0EAC                     	;# 
   965  0EB1                     	;# 
   966  0EB2                     	;# 
   967  0EB3                     	;# 
   968  0EB8                     	;# 
   969  0EB9                     	;# 
   970  0EBA                     	;# 
   971  0EBB                     	;# 
   972  0EBC                     	;# 
   973  0EBD                     	;# 
   974  0EBE                     	;# 
   975  0EC3                     	;# 
   976  0EC5                     	;# 
   977  0EC6                     	;# 
   978  0EC7                     	;# 
   979  0EC8                     	;# 
   980  0EC9                     	;# 
   981  0ECA                     	;# 
   982  0ECB                     	;# 
   983  0ECC                     	;# 
   984  0F10                     	;# 
   985  0F11                     	;# 
   986  0F12                     	;# 
   987  0F13                     	;# 
   988  0F14                     	;# 
   989  0F15                     	;# 
   990  0F16                     	;# 
   991  0F17                     	;# 
   992  0F18                     	;# 
   993  0F19                     	;# 
   994  0F1A                     	;# 
   995  0F1B                     	;# 
   996  0F1C                     	;# 
   997  0F1D                     	;# 
   998  0F1E                     	;# 
   999  0F1F                     	;# 
  1000  0F20                     	;# 
  1001  0F21                     	;# 
  1002  0F22                     	;# 
  1003  0F23                     	;# 
  1004  0F24                     	;# 
  1005  0F25                     	;# 
  1006  0F26                     	;# 
  1007  0F27                     	;# 
  1008  0F38                     	;# 
  1009  0F39                     	;# 
  1010  0F3A                     	;# 
  1011  0F3B                     	;# 
  1012  0F3C                     	;# 
  1013  0F3D                     	;# 
  1014  0F3E                     	;# 
  1015  0F3F                     	;# 
  1016  0F40                     	;# 
  1017  0F41                     	;# 
  1018  0F43                     	;# 
  1019  0F44                     	;# 
  1020  0F45                     	;# 
  1021  0F46                     	;# 
  1022  0F47                     	;# 
  1023  0F48                     	;# 
  1024  0F49                     	;# 
  1025  0F4A                     	;# 
  1026  0F4B                     	;# 
  1027  0F4C                     	;# 
  1028  0F4E                     	;# 
  1029  0F4F                     	;# 
  1030  0F50                     	;# 
  1031  0F51                     	;# 
  1032  0F52                     	;# 
  1033  0F53                     	;# 
  1034  0F54                     	;# 
  1035  0F55                     	;# 
  1036  0F56                     	;# 
  1037  0F57                     	;# 
  1038  0F65                     	;# 
  1039  0F68                     	;# 
  1040  0F69                     	;# 
  1041  0F6A                     	;# 
  1042  0F6B                     	;# 
  1043  0FE4                     	;# 
  1044  0FE5                     	;# 
  1045  0FE6                     	;# 
  1046  0FE7                     	;# 
  1047  0FE8                     	;# 
  1048  0FE9                     	;# 
  1049  0FEA                     	;# 
  1050  0FEB                     	;# 
  1051  0FED                     	;# 
  1052  0FEE                     	;# 
  1053  0FEF                     	;# 
  1054  0000                     	;# 
  1055  0001                     	;# 
  1056  0002                     	;# 
  1057  0003                     	;# 
  1058  0004                     	;# 
  1059  0005                     	;# 
  1060  0006                     	;# 
  1061  0007                     	;# 
  1062  0008                     	;# 
  1063  0009                     	;# 
  1064  000A                     	;# 
  1065  000B                     	;# 
  1066  000C                     	;# 
  1067  000D                     	;# 
  1068  000E                     	;# 
  1069  0010                     	;# 
  1070  0011                     	;# 
  1071  0012                     	;# 
  1072  0013                     	;# 
  1073  0016                     	;# 
  1074  0017                     	;# 
  1075  0018                     	;# 
  1076  001C                     	;# 
  1077  001C                     	;# 
  1078  001D                     	;# 
  1079  001D                     	;# 
  1080  001E                     	;# 
  1081  001F                     	;# 
  1082  008C                     	;# 
  1083  008C                     	;# 
  1084  008D                     	;# 
  1085  008E                     	;# 
  1086  008E                     	;# 
  1087  008F                     	;# 
  1088  0090                     	;# 
  1089  0090                     	;# 
  1090  0091                     	;# 
  1091  0093                     	;# 
  1092  0094                     	;# 
  1093  0095                     	;# 
  1094  0096                     	;# 
  1095  0097                     	;# 
  1096  0098                     	;# 
  1097  0099                     	;# 
  1098  009A                     	;# 
  1099  009B                     	;# 
  1100  009C                     	;# 
  1101  009D                     	;# 
  1102  009E                     	;# 
  1103  010C                     	;# 
  1104  010D                     	;# 
  1105  010E                     	;# 
  1106  010E                     	;# 
  1107  010F                     	;# 
  1108  0110                     	;# 
  1109  0110                     	;# 
  1110  0111                     	;# 
  1111  0112                     	;# 
  1112  0112                     	;# 
  1113  0113                     	;# 
  1114  0114                     	;# 
  1115  0114                     	;# 
  1116  0115                     	;# 
  1117  0116                     	;# 
  1118  0116                     	;# 
  1119  0117                     	;# 
  1120  0119                     	;# 
  1121  0119                     	;# 
  1122  0119                     	;# 
  1123  011A                     	;# 
  1124  011A                     	;# 
  1125  011A                     	;# 
  1126  011B                     	;# 
  1127  011B                     	;# 
  1128  011B                     	;# 
  1129  011B                     	;# 
  1130  011B                     	;# 
  1131  011C                     	;# 
  1132  011C                     	;# 
  1133  011C                     	;# 
  1134  011D                     	;# 
  1135  011D                     	;# 
  1136  011D                     	;# 
  1137  011E                     	;# 
  1138  011E                     	;# 
  1139  011E                     	;# 
  1140  011F                     	;# 
  1141  011F                     	;# 
  1142  011F                     	;# 
  1143  011F                     	;# 
  1144  011F                     	;# 
  1145  018C                     	;# 
  1146  018D                     	;# 
  1147  018E                     	;# 
  1148  018F                     	;# 
  1149  0190                     	;# 
  1150  0191                     	;# 
  1151  0192                     	;# 
  1152  0196                     	;# 
  1153  0197                     	;# 
  1154  0198                     	;# 
  1155  0199                     	;# 
  1156  019A                     	;# 
  1157  019B                     	;# 
  1158  019C                     	;# 
  1159  020C                     	;# 
  1160  020D                     	;# 
  1161  020E                     	;# 
  1162  020F                     	;# 
  1163  020F                     	;# 
  1164  0210                     	;# 
  1165  0210                     	;# 
  1166  0211                     	;# 
  1167  0211                     	;# 
  1168  0212                     	;# 
  1169  0213                     	;# 
  1170  0214                     	;# 
  1171  0215                     	;# 
  1172  0215                     	;# 
  1173  0216                     	;# 
  1174  0216                     	;# 
  1175  0217                     	;# 
  1176  0217                     	;# 
  1177  0218                     	;# 
  1178  0219                     	;# 
  1179  021A                     	;# 
  1180  021B                     	;# 
  1181  021B                     	;# 
  1182  021C                     	;# 
  1183  021C                     	;# 
  1184  021D                     	;# 
  1185  021D                     	;# 
  1186  021E                     	;# 
  1187  021F                     	;# 
  1188  028C                     	;# 
  1189  028C                     	;# 
  1190  028D                     	;# 
  1191  028D                     	;# 
  1192  028E                     	;# 
  1193  028F                     	;# 
  1194  0290                     	;# 
  1195  0290                     	;# 
  1196  0291                     	;# 
  1197  0292                     	;# 
  1198  0292                     	;# 
  1199  0293                     	;# 
  1200  0293                     	;# 
  1201  0294                     	;# 
  1202  0295                     	;# 
  1203  0296                     	;# 
  1204  0296                     	;# 
  1205  0297                     	;# 
  1206  0298                     	;# 
  1207  0298                     	;# 
  1208  0299                     	;# 
  1209  0299                     	;# 
  1210  029A                     	;# 
  1211  029B                     	;# 
  1212  029C                     	;# 
  1213  029C                     	;# 
  1214  029D                     	;# 
  1215  030C                     	;# 
  1216  030C                     	;# 
  1217  030D                     	;# 
  1218  030E                     	;# 
  1219  030F                     	;# 
  1220  0310                     	;# 
  1221  0310                     	;# 
  1222  0311                     	;# 
  1223  0312                     	;# 
  1224  0313                     	;# 
  1225  0314                     	;# 
  1226  0314                     	;# 
  1227  0315                     	;# 
  1228  0316                     	;# 
  1229  0317                     	;# 
  1230  0318                     	;# 
  1231  0318                     	;# 
  1232  0319                     	;# 
  1233  031A                     	;# 
  1234  031B                     	;# 
  1235  031C                     	;# 
  1236  031C                     	;# 
  1237  031D                     	;# 
  1238  031E                     	;# 
  1239  031F                     	;# 
  1240  038C                     	;# 
  1241  038D                     	;# 
  1242  038E                     	;# 
  1243  0390                     	;# 
  1244  0391                     	;# 
  1245  0392                     	;# 
  1246  040C                     	;# 
  1247  040D                     	;# 
  1248  040E                     	;# 
  1249  040F                     	;# 
  1250  0410                     	;# 
  1251  0411                     	;# 
  1252  0416                     	;# 
  1253  0416                     	;# 
  1254  0417                     	;# 
  1255  0418                     	;# 
  1256  0418                     	;# 
  1257  0419                     	;# 
  1258  041A                     	;# 
  1259  041A                     	;# 
  1260  041B                     	;# 
  1261  041C                     	;# 
  1262  041C                     	;# 
  1263  041D                     	;# 
  1264  041E                     	;# 
  1265  041F                     	;# 
  1266  048C                     	;# 
  1267  048C                     	;# 
  1268  048D                     	;# 
  1269  048E                     	;# 
  1270  048F                     	;# 
  1271  048F                     	;# 
  1272  0490                     	;# 
  1273  0491                     	;# 
  1274  0492                     	;# 
  1275  0492                     	;# 
  1276  0493                     	;# 
  1277  0494                     	;# 
  1278  0495                     	;# 
  1279  0495                     	;# 
  1280  0496                     	;# 
  1281  0497                     	;# 
  1282  0498                     	;# 
  1283  0499                     	;# 
  1284  049A                     	;# 
  1285  049B                     	;# 
  1286  049C                     	;# 
  1287  049D                     	;# 
  1288  050C                     	;# 
  1289  050C                     	;# 
  1290  050D                     	;# 
  1291  050E                     	;# 
  1292  050F                     	;# 
  1293  050F                     	;# 
  1294  0510                     	;# 
  1295  0511                     	;# 
  1296  0512                     	;# 
  1297  0512                     	;# 
  1298  0513                     	;# 
  1299  0514                     	;# 
  1300  0515                     	;# 
  1301  0515                     	;# 
  1302  0516                     	;# 
  1303  0517                     	;# 
  1304  0518                     	;# 
  1305  0519                     	;# 
  1306  051A                     	;# 
  1307  051B                     	;# 
  1308  051C                     	;# 
  1309  051D                     	;# 
  1310  058C                     	;# 
  1311  058C                     	;# 
  1312  058D                     	;# 
  1313  058E                     	;# 
  1314  058F                     	;# 
  1315  058F                     	;# 
  1316  0590                     	;# 
  1317  0591                     	;# 
  1318  0592                     	;# 
  1319  0593                     	;# 
  1320  060C                     	;# 
  1321  060D                     	;# 
  1322  060E                     	;# 
  1323  060F                     	;# 
  1324  0610                     	;# 
  1325  0611                     	;# 
  1326  0612                     	;# 
  1327  0613                     	;# 
  1328  0614                     	;# 
  1329  0616                     	;# 
  1330  0617                     	;# 
  1331  0618                     	;# 
  1332  0619                     	;# 
  1333  061A                     	;# 
  1334  061B                     	;# 
  1335  061C                     	;# 
  1336  061D                     	;# 
  1337  061E                     	;# 
  1338  068C                     	;# 
  1339  068D                     	;# 
  1340  068E                     	;# 
  1341  068F                     	;# 
  1342  0690                     	;# 
  1343  0691                     	;# 
  1344  0692                     	;# 
  1345  0693                     	;# 
  1346  0694                     	;# 
  1347  070C                     	;# 
  1348  070D                     	;# 
  1349  070E                     	;# 
  1350  070F                     	;# 
  1351  0710                     	;# 
  1352  0711                     	;# 
  1353  0712                     	;# 
  1354  0713                     	;# 
  1355  0714                     	;# 
  1356  0716                     	;# 
  1357  0717                     	;# 
  1358  0718                     	;# 
  1359  0719                     	;# 
  1360  071A                     	;# 
  1361  071B                     	;# 
  1362  071C                     	;# 
  1363  071D                     	;# 
  1364  071E                     	;# 
  1365  0796                     	;# 
  1366  0797                     	;# 
  1367  0798                     	;# 
  1368  0799                     	;# 
  1369  079A                     	;# 
  1370  079B                     	;# 
  1371  080C                     	;# 
  1372  080D                     	;# 
  1373  080E                     	;# 
  1374  080F                     	;# 
  1375  0810                     	;# 
  1376  0811                     	;# 
  1377  0812                     	;# 
  1378  0813                     	;# 
  1379  0814                     	;# 
  1380  081A                     	;# 
  1381  081B                     	;# 
  1382  081C                     	;# 
  1383  081D                     	;# 
  1384  081E                     	;# 
  1385  081F                     	;# 
  1386  088C                     	;# 
  1387  088D                     	;# 
  1388  088E                     	;# 
  1389  088F                     	;# 
  1390  0890                     	;# 
  1391  0891                     	;# 
  1392  0892                     	;# 
  1393  0893                     	;# 
  1394  0895                     	;# 
  1395  0896                     	;# 
  1396  0897                     	;# 
  1397  0898                     	;# 
  1398  0899                     	;# 
  1399  089A                     	;# 
  1400  089B                     	;# 
  1401  090C                     	;# 
  1402  090E                     	;# 
  1403  090F                     	;# 
  1404  091F                     	;# 
  1405  091F                     	;# 
  1406  098F                     	;# 
  1407  098F                     	;# 
  1408  0990                     	;# 
  1409  0991                     	;# 
  1410  0992                     	;# 
  1411  0993                     	;# 
  1412  0994                     	;# 
  1413  0995                     	;# 
  1414  0996                     	;# 
  1415  0997                     	;# 
  1416  0E0F                     	;# 
  1417  0E10                     	;# 
  1418  0E11                     	;# 
  1419  0E12                     	;# 
  1420  0E13                     	;# 
  1421  0E14                     	;# 
  1422  0E15                     	;# 
  1423  0E16                     	;# 
  1424  0E17                     	;# 
  1425  0E18                     	;# 
  1426  0E19                     	;# 
  1427  0E1A                     	;# 
  1428  0E1B                     	;# 
  1429  0E1C                     	;# 
  1430  0E1D                     	;# 
  1431  0E1E                     	;# 
  1432  0E1F                     	;# 
  1433  0E20                     	;# 
  1434  0E21                     	;# 
  1435  0E22                     	;# 
  1436  0E23                     	;# 
  1437  0E24                     	;# 
  1438  0E25                     	;# 
  1439  0E26                     	;# 
  1440  0E27                     	;# 
  1441  0E28                     	;# 
  1442  0E29                     	;# 
  1443  0E2A                     	;# 
  1444  0E2B                     	;# 
  1445  0E2C                     	;# 
  1446  0E2D                     	;# 
  1447  0E2E                     	;# 
  1448  0E2F                     	;# 
  1449  0E30                     	;# 
  1450  0E31                     	;# 
  1451  0E32                     	;# 
  1452  0E33                     	;# 
  1453  0E34                     	;# 
  1454  0E35                     	;# 
  1455  0E36                     	;# 
  1456  0E37                     	;# 
  1457  0E8F                     	;# 
  1458  0E90                     	;# 
  1459  0E91                     	;# 
  1460  0E92                     	;# 
  1461  0E93                     	;# 
  1462  0E94                     	;# 
  1463  0E95                     	;# 
  1464  0E96                     	;# 
  1465  0E97                     	;# 
  1466  0E9C                     	;# 
  1467  0E9D                     	;# 
  1468  0E9E                     	;# 
  1469  0EA1                     	;# 
  1470  0EA2                     	;# 
  1471  0EA3                     	;# 
  1472  0EA4                     	;# 
  1473  0EA5                     	;# 
  1474  0EA9                     	;# 
  1475  0EAA                     	;# 
  1476  0EAB                     	;# 
  1477  0EAC                     	;# 
  1478  0EB1                     	;# 
  1479  0EB2                     	;# 
  1480  0EB3                     	;# 
  1481  0EB8                     	;# 
  1482  0EB9                     	;# 
  1483  0EBA                     	;# 
  1484  0EBB                     	;# 
  1485  0EBC                     	;# 
  1486  0EBD                     	;# 
  1487  0EBE                     	;# 
  1488  0EC3                     	;# 
  1489  0EC5                     	;# 
  1490  0EC6                     	;# 
  1491  0EC7                     	;# 
  1492  0EC8                     	;# 
  1493  0EC9                     	;# 
  1494  0ECA                     	;# 
  1495  0ECB                     	;# 
  1496  0ECC                     	;# 
  1497  0F10                     	;# 
  1498  0F11                     	;# 
  1499  0F12                     	;# 
  1500  0F13                     	;# 
  1501  0F14                     	;# 
  1502  0F15                     	;# 
  1503  0F16                     	;# 
  1504  0F17                     	;# 
  1505  0F18                     	;# 
  1506  0F19                     	;# 
  1507  0F1A                     	;# 
  1508  0F1B                     	;# 
  1509  0F1C                     	;# 
  1510  0F1D                     	;# 
  1511  0F1E                     	;# 
  1512  0F1F                     	;# 
  1513  0F20                     	;# 
  1514  0F21                     	;# 
  1515  0F22                     	;# 
  1516  0F23                     	;# 
  1517  0F24                     	;# 
  1518  0F25                     	;# 
  1519  0F26                     	;# 
  1520  0F27                     	;# 
  1521  0F38                     	;# 
  1522  0F39                     	;# 
  1523  0F3A                     	;# 
  1524  0F3B                     	;# 
  1525  0F3C                     	;# 
  1526  0F3D                     	;# 
  1527  0F3E                     	;# 
  1528  0F3F                     	;# 
  1529  0F40                     	;# 
  1530  0F41                     	;# 
  1531  0F43                     	;# 
  1532  0F44                     	;# 
  1533  0F45                     	;# 
  1534  0F46                     	;# 
  1535  0F47                     	;# 
  1536  0F48                     	;# 
  1537  0F49                     	;# 
  1538  0F4A                     	;# 
  1539  0F4B                     	;# 
  1540  0F4C                     	;# 
  1541  0F4E                     	;# 
  1542  0F4F                     	;# 
  1543  0F50                     	;# 
  1544  0F51                     	;# 
  1545  0F52                     	;# 
  1546  0F53                     	;# 
  1547  0F54                     	;# 
  1548  0F55                     	;# 
  1549  0F56                     	;# 
  1550  0F57                     	;# 
  1551  0F65                     	;# 
  1552  0F68                     	;# 
  1553  0F69                     	;# 
  1554  0F6A                     	;# 
  1555  0F6B                     	;# 
  1556  0FE4                     	;# 
  1557  0FE5                     	;# 
  1558  0FE6                     	;# 
  1559  0FE7                     	;# 
  1560  0FE8                     	;# 
  1561  0FE9                     	;# 
  1562  0FEA                     	;# 
  1563  0FEB                     	;# 
  1564  0FED                     	;# 
  1565  0FEE                     	;# 
  1566  0FEF                     	;# 
  1567  0000                     	;# 
  1568  0001                     	;# 
  1569  0002                     	;# 
  1570  0003                     	;# 
  1571  0004                     	;# 
  1572  0005                     	;# 
  1573  0006                     	;# 
  1574  0007                     	;# 
  1575  0008                     	;# 
  1576  0009                     	;# 
  1577  000A                     	;# 
  1578  000B                     	;# 
  1579  000C                     	;# 
  1580  000D                     	;# 
  1581  000E                     	;# 
  1582  0010                     	;# 
  1583  0011                     	;# 
  1584  0012                     	;# 
  1585  0013                     	;# 
  1586  0016                     	;# 
  1587  0017                     	;# 
  1588  0018                     	;# 
  1589  001C                     	;# 
  1590  001C                     	;# 
  1591  001D                     	;# 
  1592  001D                     	;# 
  1593  001E                     	;# 
  1594  001F                     	;# 
  1595  008C                     	;# 
  1596  008C                     	;# 
  1597  008D                     	;# 
  1598  008E                     	;# 
  1599  008E                     	;# 
  1600  008F                     	;# 
  1601  0090                     	;# 
  1602  0090                     	;# 
  1603  0091                     	;# 
  1604  0093                     	;# 
  1605  0094                     	;# 
  1606  0095                     	;# 
  1607  0096                     	;# 
  1608  0097                     	;# 
  1609  0098                     	;# 
  1610  0099                     	;# 
  1611  009A                     	;# 
  1612  009B                     	;# 
  1613  009C                     	;# 
  1614  009D                     	;# 
  1615  009E                     	;# 
  1616  010C                     	;# 
  1617  010D                     	;# 
  1618  010E                     	;# 
  1619  010E                     	;# 
  1620  010F                     	;# 
  1621  0110                     	;# 
  1622  0110                     	;# 
  1623  0111                     	;# 
  1624  0112                     	;# 
  1625  0112                     	;# 
  1626  0113                     	;# 
  1627  0114                     	;# 
  1628  0114                     	;# 
  1629  0115                     	;# 
  1630  0116                     	;# 
  1631  0116                     	;# 
  1632  0117                     	;# 
  1633  0119                     	;# 
  1634  0119                     	;# 
  1635  0119                     	;# 
  1636  011A                     	;# 
  1637  011A                     	;# 
  1638  011A                     	;# 
  1639  011B                     	;# 
  1640  011B                     	;# 
  1641  011B                     	;# 
  1642  011B                     	;# 
  1643  011B                     	;# 
  1644  011C                     	;# 
  1645  011C                     	;# 
  1646  011C                     	;# 
  1647  011D                     	;# 
  1648  011D                     	;# 
  1649  011D                     	;# 
  1650  011E                     	;# 
  1651  011E                     	;# 
  1652  011E                     	;# 
  1653  011F                     	;# 
  1654  011F                     	;# 
  1655  011F                     	;# 
  1656  011F                     	;# 
  1657  011F                     	;# 
  1658  018C                     	;# 
  1659  018D                     	;# 
  1660  018E                     	;# 
  1661  018F                     	;# 
  1662  0190                     	;# 
  1663  0191                     	;# 
  1664  0192                     	;# 
  1665  0196                     	;# 
  1666  0197                     	;# 
  1667  0198                     	;# 
  1668  0199                     	;# 
  1669  019A                     	;# 
  1670  019B                     	;# 
  1671  019C                     	;# 
  1672  020C                     	;# 
  1673  020D                     	;# 
  1674  020E                     	;# 
  1675  020F                     	;# 
  1676  020F                     	;# 
  1677  0210                     	;# 
  1678  0210                     	;# 
  1679  0211                     	;# 
  1680  0211                     	;# 
  1681  0212                     	;# 
  1682  0213                     	;# 
  1683  0214                     	;# 
  1684  0215                     	;# 
  1685  0215                     	;# 
  1686  0216                     	;# 
  1687  0216                     	;# 
  1688  0217                     	;# 
  1689  0217                     	;# 
  1690  0218                     	;# 
  1691  0219                     	;# 
  1692  021A                     	;# 
  1693  021B                     	;# 
  1694  021B                     	;# 
  1695  021C                     	;# 
  1696  021C                     	;# 
  1697  021D                     	;# 
  1698  021D                     	;# 
  1699  021E                     	;# 
  1700  021F                     	;# 
  1701  028C                     	;# 
  1702  028C                     	;# 
  1703  028D                     	;# 
  1704  028D                     	;# 
  1705  028E                     	;# 
  1706  028F                     	;# 
  1707  0290                     	;# 
  1708  0290                     	;# 
  1709  0291                     	;# 
  1710  0292                     	;# 
  1711  0292                     	;# 
  1712  0293                     	;# 
  1713  0293                     	;# 
  1714  0294                     	;# 
  1715  0295                     	;# 
  1716  0296                     	;# 
  1717  0296                     	;# 
  1718  0297                     	;# 
  1719  0298                     	;# 
  1720  0298                     	;# 
  1721  0299                     	;# 
  1722  0299                     	;# 
  1723  029A                     	;# 
  1724  029B                     	;# 
  1725  029C                     	;# 
  1726  029C                     	;# 
  1727  029D                     	;# 
  1728  030C                     	;# 
  1729  030C                     	;# 
  1730  030D                     	;# 
  1731  030E                     	;# 
  1732  030F                     	;# 
  1733  0310                     	;# 
  1734  0310                     	;# 
  1735  0311                     	;# 
  1736  0312                     	;# 
  1737  0313                     	;# 
  1738  0314                     	;# 
  1739  0314                     	;# 
  1740  0315                     	;# 
  1741  0316                     	;# 
  1742  0317                     	;# 
  1743  0318                     	;# 
  1744  0318                     	;# 
  1745  0319                     	;# 
  1746  031A                     	;# 
  1747  031B                     	;# 
  1748  031C                     	;# 
  1749  031C                     	;# 
  1750  031D                     	;# 
  1751  031E                     	;# 
  1752  031F                     	;# 
  1753  038C                     	;# 
  1754  038D                     	;# 
  1755  038E                     	;# 
  1756  0390                     	;# 
  1757  0391                     	;# 
  1758  0392                     	;# 
  1759  040C                     	;# 
  1760  040D                     	;# 
  1761  040E                     	;# 
  1762  040F                     	;# 
  1763  0410                     	;# 
  1764  0411                     	;# 
  1765  0416                     	;# 
  1766  0416                     	;# 
  1767  0417                     	;# 
  1768  0418                     	;# 
  1769  0418                     	;# 
  1770  0419                     	;# 
  1771  041A                     	;# 
  1772  041A                     	;# 
  1773  041B                     	;# 
  1774  041C                     	;# 
  1775  041C                     	;# 
  1776  041D                     	;# 
  1777  041E                     	;# 
  1778  041F                     	;# 
  1779  048C                     	;# 
  1780  048C                     	;# 
  1781  048D                     	;# 
  1782  048E                     	;# 
  1783  048F                     	;# 
  1784  048F                     	;# 
  1785  0490                     	;# 
  1786  0491                     	;# 
  1787  0492                     	;# 
  1788  0492                     	;# 
  1789  0493                     	;# 
  1790  0494                     	;# 
  1791  0495                     	;# 
  1792  0495                     	;# 
  1793  0496                     	;# 
  1794  0497                     	;# 
  1795  0498                     	;# 
  1796  0499                     	;# 
  1797  049A                     	;# 
  1798  049B                     	;# 
  1799  049C                     	;# 
  1800  049D                     	;# 
  1801  050C                     	;# 
  1802  050C                     	;# 
  1803  050D                     	;# 
  1804  050E                     	;# 
  1805  050F                     	;# 
  1806  050F                     	;# 
  1807  0510                     	;# 
  1808  0511                     	;# 
  1809  0512                     	;# 
  1810  0512                     	;# 
  1811  0513                     	;# 
  1812  0514                     	;# 
  1813  0515                     	;# 
  1814  0515                     	;# 
  1815  0516                     	;# 
  1816  0517                     	;# 
  1817  0518                     	;# 
  1818  0519                     	;# 
  1819  051A                     	;# 
  1820  051B                     	;# 
  1821  051C                     	;# 
  1822  051D                     	;# 
  1823  058C                     	;# 
  1824  058C                     	;# 
  1825  058D                     	;# 
  1826  058E                     	;# 
  1827  058F                     	;# 
  1828  058F                     	;# 
  1829  0590                     	;# 
  1830  0591                     	;# 
  1831  0592                     	;# 
  1832  0593                     	;# 
  1833  060C                     	;# 
  1834  060D                     	;# 
  1835  060E                     	;# 
  1836  060F                     	;# 
  1837  0610                     	;# 
  1838  0611                     	;# 
  1839  0612                     	;# 
  1840  0613                     	;# 
  1841  0614                     	;# 
  1842  0616                     	;# 
  1843  0617                     	;# 
  1844  0618                     	;# 
  1845  0619                     	;# 
  1846  061A                     	;# 
  1847  061B                     	;# 
  1848  061C                     	;# 
  1849  061D                     	;# 
  1850  061E                     	;# 
  1851  068C                     	;# 
  1852  068D                     	;# 
  1853  068E                     	;# 
  1854  068F                     	;# 
  1855  0690                     	;# 
  1856  0691                     	;# 
  1857  0692                     	;# 
  1858  0693                     	;# 
  1859  0694                     	;# 
  1860  070C                     	;# 
  1861  070D                     	;# 
  1862  070E                     	;# 
  1863  070F                     	;# 
  1864  0710                     	;# 
  1865  0711                     	;# 
  1866  0712                     	;# 
  1867  0713                     	;# 
  1868  0714                     	;# 
  1869  0716                     	;# 
  1870  0717                     	;# 
  1871  0718                     	;# 
  1872  0719                     	;# 
  1873  071A                     	;# 
  1874  071B                     	;# 
  1875  071C                     	;# 
  1876  071D                     	;# 
  1877  071E                     	;# 
  1878  0796                     	;# 
  1879  0797                     	;# 
  1880  0798                     	;# 
  1881  0799                     	;# 
  1882  079A                     	;# 
  1883  079B                     	;# 
  1884  080C                     	;# 
  1885  080D                     	;# 
  1886  080E                     	;# 
  1887  080F                     	;# 
  1888  0810                     	;# 
  1889  0811                     	;# 
  1890  0812                     	;# 
  1891  0813                     	;# 
  1892  0814                     	;# 
  1893  081A                     	;# 
  1894  081B                     	;# 
  1895  081C                     	;# 
  1896  081D                     	;# 
  1897  081E                     	;# 
  1898  081F                     	;# 
  1899  088C                     	;# 
  1900  088D                     	;# 
  1901  088E                     	;# 
  1902  088F                     	;# 
  1903  0890                     	;# 
  1904  0891                     	;# 
  1905  0892                     	;# 
  1906  0893                     	;# 
  1907  0895                     	;# 
  1908  0896                     	;# 
  1909  0897                     	;# 
  1910  0898                     	;# 
  1911  0899                     	;# 
  1912  089A                     	;# 
  1913  089B                     	;# 
  1914  090C                     	;# 
  1915  090E                     	;# 
  1916  090F                     	;# 
  1917  091F                     	;# 
  1918  091F                     	;# 
  1919  098F                     	;# 
  1920  098F                     	;# 
  1921  0990                     	;# 
  1922  0991                     	;# 
  1923  0992                     	;# 
  1924  0993                     	;# 
  1925  0994                     	;# 
  1926  0995                     	;# 
  1927  0996                     	;# 
  1928  0997                     	;# 
  1929  0E0F                     	;# 
  1930  0E10                     	;# 
  1931  0E11                     	;# 
  1932  0E12                     	;# 
  1933  0E13                     	;# 
  1934  0E14                     	;# 
  1935  0E15                     	;# 
  1936  0E16                     	;# 
  1937  0E17                     	;# 
  1938  0E18                     	;# 
  1939  0E19                     	;# 
  1940  0E1A                     	;# 
  1941  0E1B                     	;# 
  1942  0E1C                     	;# 
  1943  0E1D                     	;# 
  1944  0E1E                     	;# 
  1945  0E1F                     	;# 
  1946  0E20                     	;# 
  1947  0E21                     	;# 
  1948  0E22                     	;# 
  1949  0E23                     	;# 
  1950  0E24                     	;# 
  1951  0E25                     	;# 
  1952  0E26                     	;# 
  1953  0E27                     	;# 
  1954  0E28                     	;# 
  1955  0E29                     	;# 
  1956  0E2A                     	;# 
  1957  0E2B                     	;# 
  1958  0E2C                     	;# 
  1959  0E2D                     	;# 
  1960  0E2E                     	;# 
  1961  0E2F                     	;# 
  1962  0E30                     	;# 
  1963  0E31                     	;# 
  1964  0E32                     	;# 
  1965  0E33                     	;# 
  1966  0E34                     	;# 
  1967  0E35                     	;# 
  1968  0E36                     	;# 
  1969  0E37                     	;# 
  1970  0E8F                     	;# 
  1971  0E90                     	;# 
  1972  0E91                     	;# 
  1973  0E92                     	;# 
  1974  0E93                     	;# 
  1975  0E94                     	;# 
  1976  0E95                     	;# 
  1977  0E96                     	;# 
  1978  0E97                     	;# 
  1979  0E9C                     	;# 
  1980  0E9D                     	;# 
  1981  0E9E                     	;# 
  1982  0EA1                     	;# 
  1983  0EA2                     	;# 
  1984  0EA3                     	;# 
  1985  0EA4                     	;# 
  1986  0EA5                     	;# 
  1987  0EA9                     	;# 
  1988  0EAA                     	;# 
  1989  0EAB                     	;# 
  1990  0EAC                     	;# 
  1991  0EB1                     	;# 
  1992  0EB2                     	;# 
  1993  0EB3                     	;# 
  1994  0EB8                     	;# 
  1995  0EB9                     	;# 
  1996  0EBA                     	;# 
  1997  0EBB                     	;# 
  1998  0EBC                     	;# 
  1999  0EBD                     	;# 
  2000  0EBE                     	;# 
  2001  0EC3                     	;# 
  2002  0EC5                     	;# 
  2003  0EC6                     	;# 
  2004  0EC7                     	;# 
  2005  0EC8                     	;# 
  2006  0EC9                     	;# 
  2007  0ECA                     	;# 
  2008  0ECB                     	;# 
  2009  0ECC                     	;# 
  2010  0F10                     	;# 
  2011  0F11                     	;# 
  2012  0F12                     	;# 
  2013  0F13                     	;# 
  2014  0F14                     	;# 
  2015  0F15                     	;# 
  2016  0F16                     	;# 
  2017  0F17                     	;# 
  2018  0F18                     	;# 
  2019  0F19                     	;# 
  2020  0F1A                     	;# 
  2021  0F1B                     	;# 
  2022  0F1C                     	;# 
  2023  0F1D                     	;# 
  2024  0F1E                     	;# 
  2025  0F1F                     	;# 
  2026  0F20                     	;# 
  2027  0F21                     	;# 
  2028  0F22                     	;# 
  2029  0F23                     	;# 
  2030  0F24                     	;# 
  2031  0F25                     	;# 
  2032  0F26                     	;# 
  2033  0F27                     	;# 
  2034  0F38                     	;# 
  2035  0F39                     	;# 
  2036  0F3A                     	;# 
  2037  0F3B                     	;# 
  2038  0F3C                     	;# 
  2039  0F3D                     	;# 
  2040  0F3E                     	;# 
  2041  0F3F                     	;# 
  2042  0F40                     	;# 
  2043  0F41                     	;# 
  2044  0F43                     	;# 
  2045  0F44                     	;# 
  2046  0F45                     	;# 
  2047  0F46                     	;# 
  2048  0F47                     	;# 
  2049  0F48                     	;# 
  2050  0F49                     	;# 
  2051  0F4A                     	;# 
  2052  0F4B                     	;# 
  2053  0F4C                     	;# 
  2054  0F4E                     	;# 
  2055  0F4F                     	;# 
  2056  0F50                     	;# 
  2057  0F51                     	;# 
  2058  0F52                     	;# 
  2059  0F53                     	;# 
  2060  0F54                     	;# 
  2061  0F55                     	;# 
  2062  0F56                     	;# 
  2063  0F57                     	;# 
  2064  0F65                     	;# 
  2065  0F68                     	;# 
  2066  0F69                     	;# 
  2067  0F6A                     	;# 
  2068  0F6B                     	;# 
  2069  0FE4                     	;# 
  2070  0FE5                     	;# 
  2071  0FE6                     	;# 
  2072  0FE7                     	;# 
  2073  0FE8                     	;# 
  2074  0FE9                     	;# 
  2075  0FEA                     	;# 
  2076  0FEB                     	;# 
  2077  0FED                     	;# 
  2078  0FEE                     	;# 
  2079  0FEF                     	;# 
  2080  0000                     	;# 
  2081  0001                     	;# 
  2082  0002                     	;# 
  2083  0003                     	;# 
  2084  0004                     	;# 
  2085  0005                     	;# 
  2086  0006                     	;# 
  2087  0007                     	;# 
  2088  0008                     	;# 
  2089  0009                     	;# 
  2090  000A                     	;# 
  2091  000B                     	;# 
  2092  000C                     	;# 
  2093  000D                     	;# 
  2094  000E                     	;# 
  2095  0010                     	;# 
  2096  0011                     	;# 
  2097  0012                     	;# 
  2098  0013                     	;# 
  2099  0016                     	;# 
  2100  0017                     	;# 
  2101  0018                     	;# 
  2102  001C                     	;# 
  2103  001C                     	;# 
  2104  001D                     	;# 
  2105  001D                     	;# 
  2106  001E                     	;# 
  2107  001F                     	;# 
  2108  008C                     	;# 
  2109  008C                     	;# 
  2110  008D                     	;# 
  2111  008E                     	;# 
  2112  008E                     	;# 
  2113  008F                     	;# 
  2114  0090                     	;# 
  2115  0090                     	;# 
  2116  0091                     	;# 
  2117  0093                     	;# 
  2118  0094                     	;# 
  2119  0095                     	;# 
  2120  0096                     	;# 
  2121  0097                     	;# 
  2122  0098                     	;# 
  2123  0099                     	;# 
  2124  009A                     	;# 
  2125  009B                     	;# 
  2126  009C                     	;# 
  2127  009D                     	;# 
  2128  009E                     	;# 
  2129  010C                     	;# 
  2130  010D                     	;# 
  2131  010E                     	;# 
  2132  010E                     	;# 
  2133  010F                     	;# 
  2134  0110                     	;# 
  2135  0110                     	;# 
  2136  0111                     	;# 
  2137  0112                     	;# 
  2138  0112                     	;# 
  2139  0113                     	;# 
  2140  0114                     	;# 
  2141  0114                     	;# 
  2142  0115                     	;# 
  2143  0116                     	;# 
  2144  0116                     	;# 
  2145  0117                     	;# 
  2146  0119                     	;# 
  2147  0119                     	;# 
  2148  0119                     	;# 
  2149  011A                     	;# 
  2150  011A                     	;# 
  2151  011A                     	;# 
  2152  011B                     	;# 
  2153  011B                     	;# 
  2154  011B                     	;# 
  2155  011B                     	;# 
  2156  011B                     	;# 
  2157  011C                     	;# 
  2158  011C                     	;# 
  2159  011C                     	;# 
  2160  011D                     	;# 
  2161  011D                     	;# 
  2162  011D                     	;# 
  2163  011E                     	;# 
  2164  011E                     	;# 
  2165  011E                     	;# 
  2166  011F                     	;# 
  2167  011F                     	;# 
  2168  011F                     	;# 
  2169  011F                     	;# 
  2170  011F                     	;# 
  2171  018C                     	;# 
  2172  018D                     	;# 
  2173  018E                     	;# 
  2174  018F                     	;# 
  2175  0190                     	;# 
  2176  0191                     	;# 
  2177  0192                     	;# 
  2178  0196                     	;# 
  2179  0197                     	;# 
  2180  0198                     	;# 
  2181  0199                     	;# 
  2182  019A                     	;# 
  2183  019B                     	;# 
  2184  019C                     	;# 
  2185  020C                     	;# 
  2186  020D                     	;# 
  2187  020E                     	;# 
  2188  020F                     	;# 
  2189  020F                     	;# 
  2190  0210                     	;# 
  2191  0210                     	;# 
  2192  0211                     	;# 
  2193  0211                     	;# 
  2194  0212                     	;# 
  2195  0213                     	;# 
  2196  0214                     	;# 
  2197  0215                     	;# 
  2198  0215                     	;# 
  2199  0216                     	;# 
  2200  0216                     	;# 
  2201  0217                     	;# 
  2202  0217                     	;# 
  2203  0218                     	;# 
  2204  0219                     	;# 
  2205  021A                     	;# 
  2206  021B                     	;# 
  2207  021B                     	;# 
  2208  021C                     	;# 
  2209  021C                     	;# 
  2210  021D                     	;# 
  2211  021D                     	;# 
  2212  021E                     	;# 
  2213  021F                     	;# 
  2214  028C                     	;# 
  2215  028C                     	;# 
  2216  028D                     	;# 
  2217  028D                     	;# 
  2218  028E                     	;# 
  2219  028F                     	;# 
  2220  0290                     	;# 
  2221  0290                     	;# 
  2222  0291                     	;# 
  2223  0292                     	;# 
  2224  0292                     	;# 
  2225  0293                     	;# 
  2226  0293                     	;# 
  2227  0294                     	;# 
  2228  0295                     	;# 
  2229  0296                     	;# 
  2230  0296                     	;# 
  2231  0297                     	;# 
  2232  0298                     	;# 
  2233  0298                     	;# 
  2234  0299                     	;# 
  2235  0299                     	;# 
  2236  029A                     	;# 
  2237  029B                     	;# 
  2238  029C                     	;# 
  2239  029C                     	;# 
  2240  029D                     	;# 
  2241  030C                     	;# 
  2242  030C                     	;# 
  2243  030D                     	;# 
  2244  030E                     	;# 
  2245  030F                     	;# 
  2246  0310                     	;# 
  2247  0310                     	;# 
  2248  0311                     	;# 
  2249  0312                     	;# 
  2250  0313                     	;# 
  2251  0314                     	;# 
  2252  0314                     	;# 
  2253  0315                     	;# 
  2254  0316                     	;# 
  2255  0317                     	;# 
  2256  0318                     	;# 
  2257  0318                     	;# 
  2258  0319                     	;# 
  2259  031A                     	;# 
  2260  031B                     	;# 
  2261  031C                     	;# 
  2262  031C                     	;# 
  2263  031D                     	;# 
  2264  031E                     	;# 
  2265  031F                     	;# 
  2266  038C                     	;# 
  2267  038D                     	;# 
  2268  038E                     	;# 
  2269  0390                     	;# 
  2270  0391                     	;# 
  2271  0392                     	;# 
  2272  040C                     	;# 
  2273  040D                     	;# 
  2274  040E                     	;# 
  2275  040F                     	;# 
  2276  0410                     	;# 
  2277  0411                     	;# 
  2278  0416                     	;# 
  2279  0416                     	;# 
  2280  0417                     	;# 
  2281  0418                     	;# 
  2282  0418                     	;# 
  2283  0419                     	;# 
  2284  041A                     	;# 
  2285  041A                     	;# 
  2286  041B                     	;# 
  2287  041C                     	;# 
  2288  041C                     	;# 
  2289  041D                     	;# 
  2290  041E                     	;# 
  2291  041F                     	;# 
  2292  048C                     	;# 
  2293  048C                     	;# 
  2294  048D                     	;# 
  2295  048E                     	;# 
  2296  048F                     	;# 
  2297  048F                     	;# 
  2298  0490                     	;# 
  2299  0491                     	;# 
  2300  0492                     	;# 
  2301  0492                     	;# 
  2302  0493                     	;# 
  2303  0494                     	;# 
  2304  0495                     	;# 
  2305  0495                     	;# 
  2306  0496                     	;# 
  2307  0497                     	;# 
  2308  0498                     	;# 
  2309  0499                     	;# 
  2310  049A                     	;# 
  2311  049B                     	;# 
  2312  049C                     	;# 
  2313  049D                     	;# 
  2314  050C                     	;# 
  2315  050C                     	;# 
  2316  050D                     	;# 
  2317  050E                     	;# 
  2318  050F                     	;# 
  2319  050F                     	;# 
  2320  0510                     	;# 
  2321  0511                     	;# 
  2322  0512                     	;# 
  2323  0512                     	;# 
  2324  0513                     	;# 
  2325  0514                     	;# 
  2326  0515                     	;# 
  2327  0515                     	;# 
  2328  0516                     	;# 
  2329  0517                     	;# 
  2330  0518                     	;# 
  2331  0519                     	;# 
  2332  051A                     	;# 
  2333  051B                     	;# 
  2334  051C                     	;# 
  2335  051D                     	;# 
  2336  058C                     	;# 
  2337  058C                     	;# 
  2338  058D                     	;# 
  2339  058E                     	;# 
  2340  058F                     	;# 
  2341  058F                     	;# 
  2342  0590                     	;# 
  2343  0591                     	;# 
  2344  0592                     	;# 
  2345  0593                     	;# 
  2346  060C                     	;# 
  2347  060D                     	;# 
  2348  060E                     	;# 
  2349  060F                     	;# 
  2350  0610                     	;# 
  2351  0611                     	;# 
  2352  0612                     	;# 
  2353  0613                     	;# 
  2354  0614                     	;# 
  2355  0616                     	;# 
  2356  0617                     	;# 
  2357  0618                     	;# 
  2358  0619                     	;# 
  2359  061A                     	;# 
  2360  061B                     	;# 
  2361  061C                     	;# 
  2362  061D                     	;# 
  2363  061E                     	;# 
  2364  068C                     	;# 
  2365  068D                     	;# 
  2366  068E                     	;# 
  2367  068F                     	;# 
  2368  0690                     	;# 
  2369  0691                     	;# 
  2370  0692                     	;# 
  2371  0693                     	;# 
  2372  0694                     	;# 
  2373  070C                     	;# 
  2374  070D                     	;# 
  2375  070E                     	;# 
  2376  070F                     	;# 
  2377  0710                     	;# 
  2378  0711                     	;# 
  2379  0712                     	;# 
  2380  0713                     	;# 
  2381  0714                     	;# 
  2382  0716                     	;# 
  2383  0717                     	;# 
  2384  0718                     	;# 
  2385  0719                     	;# 
  2386  071A                     	;# 
  2387  071B                     	;# 
  2388  071C                     	;# 
  2389  071D                     	;# 
  2390  071E                     	;# 
  2391  0796                     	;# 
  2392  0797                     	;# 
  2393  0798                     	;# 
  2394  0799                     	;# 
  2395  079A                     	;# 
  2396  079B                     	;# 
  2397  080C                     	;# 
  2398  080D                     	;# 
  2399  080E                     	;# 
  2400  080F                     	;# 
  2401  0810                     	;# 
  2402  0811                     	;# 
  2403  0812                     	;# 
  2404  0813                     	;# 
  2405  0814                     	;# 
  2406  081A                     	;# 
  2407  081B                     	;# 
  2408  081C                     	;# 
  2409  081D                     	;# 
  2410  081E                     	;# 
  2411  081F                     	;# 
  2412  088C                     	;# 
  2413  088D                     	;# 
  2414  088E                     	;# 
  2415  088F                     	;# 
  2416  0890                     	;# 
  2417  0891                     	;# 
  2418  0892                     	;# 
  2419  0893                     	;# 
  2420  0895                     	;# 
  2421  0896                     	;# 
  2422  0897                     	;# 
  2423  0898                     	;# 
  2424  0899                     	;# 
  2425  089A                     	;# 
  2426  089B                     	;# 
  2427  090C                     	;# 
  2428  090E                     	;# 
  2429  090F                     	;# 
  2430  091F                     	;# 
  2431  091F                     	;# 
  2432  098F                     	;# 
  2433  098F                     	;# 
  2434  0990                     	;# 
  2435  0991                     	;# 
  2436  0992                     	;# 
  2437  0993                     	;# 
  2438  0994                     	;# 
  2439  0995                     	;# 
  2440  0996                     	;# 
  2441  0997                     	;# 
  2442  0E0F                     	;# 
  2443  0E10                     	;# 
  2444  0E11                     	;# 
  2445  0E12                     	;# 
  2446  0E13                     	;# 
  2447  0E14                     	;# 
  2448  0E15                     	;# 
  2449  0E16                     	;# 
  2450  0E17                     	;# 
  2451  0E18                     	;# 
  2452  0E19                     	;# 
  2453  0E1A                     	;# 
  2454  0E1B                     	;# 
  2455  0E1C                     	;# 
  2456  0E1D                     	;# 
  2457  0E1E                     	;# 
  2458  0E1F                     	;# 
  2459  0E20                     	;# 
  2460  0E21                     	;# 
  2461  0E22                     	;# 
  2462  0E23                     	;# 
  2463  0E24                     	;# 
  2464  0E25                     	;# 
  2465  0E26                     	;# 
  2466  0E27                     	;# 
  2467  0E28                     	;# 
  2468  0E29                     	;# 
  2469  0E2A                     	;# 
  2470  0E2B                     	;# 
  2471  0E2C                     	;# 
  2472  0E2D                     	;# 
  2473  0E2E                     	;# 
  2474  0E2F                     	;# 
  2475  0E30                     	;# 
  2476  0E31                     	;# 
  2477  0E32                     	;# 
  2478  0E33                     	;# 
  2479  0E34                     	;# 
  2480  0E35                     	;# 
  2481  0E36                     	;# 
  2482  0E37                     	;# 
  2483  0E8F                     	;# 
  2484  0E90                     	;# 
  2485  0E91                     	;# 
  2486  0E92                     	;# 
  2487  0E93                     	;# 
  2488  0E94                     	;# 
  2489  0E95                     	;# 
  2490  0E96                     	;# 
  2491  0E97                     	;# 
  2492  0E9C                     	;# 
  2493  0E9D                     	;# 
  2494  0E9E                     	;# 
  2495  0EA1                     	;# 
  2496  0EA2                     	;# 
  2497  0EA3                     	;# 
  2498  0EA4                     	;# 
  2499  0EA5                     	;# 
  2500  0EA9                     	;# 
  2501  0EAA                     	;# 
  2502  0EAB                     	;# 
  2503  0EAC                     	;# 
  2504  0EB1                     	;# 
  2505  0EB2                     	;# 
  2506  0EB3                     	;# 
  2507  0EB8                     	;# 
  2508  0EB9                     	;# 
  2509  0EBA                     	;# 
  2510  0EBB                     	;# 
  2511  0EBC                     	;# 
  2512  0EBD                     	;# 
  2513  0EBE                     	;# 
  2514  0EC3                     	;# 
  2515  0EC5                     	;# 
  2516  0EC6                     	;# 
  2517  0EC7                     	;# 
  2518  0EC8                     	;# 
  2519  0EC9                     	;# 
  2520  0ECA                     	;# 
  2521  0ECB                     	;# 
  2522  0ECC                     	;# 
  2523  0F10                     	;# 
  2524  0F11                     	;# 
  2525  0F12                     	;# 
  2526  0F13                     	;# 
  2527  0F14                     	;# 
  2528  0F15                     	;# 
  2529  0F16                     	;# 
  2530  0F17                     	;# 
  2531  0F18                     	;# 
  2532  0F19                     	;# 
  2533  0F1A                     	;# 
  2534  0F1B                     	;# 
  2535  0F1C                     	;# 
  2536  0F1D                     	;# 
  2537  0F1E                     	;# 
  2538  0F1F                     	;# 
  2539  0F20                     	;# 
  2540  0F21                     	;# 
  2541  0F22                     	;# 
  2542  0F23                     	;# 
  2543  0F24                     	;# 
  2544  0F25                     	;# 
  2545  0F26                     	;# 
  2546  0F27                     	;# 
  2547  0F38                     	;# 
  2548  0F39                     	;# 
  2549  0F3A                     	;# 
  2550  0F3B                     	;# 
  2551  0F3C                     	;# 
  2552  0F3D                     	;# 
  2553  0F3E                     	;# 
  2554  0F3F                     	;# 
  2555  0F40                     	;# 
  2556  0F41                     	;# 
  2557  0F43                     	;# 
  2558  0F44                     	;# 
  2559  0F45                     	;# 
  2560  0F46                     	;# 
  2561  0F47                     	;# 
  2562  0F48                     	;# 
  2563  0F49                     	;# 
  2564  0F4A                     	;# 
  2565  0F4B                     	;# 
  2566  0F4C                     	;# 
  2567  0F4E                     	;# 
  2568  0F4F                     	;# 
  2569  0F50                     	;# 
  2570  0F51                     	;# 
  2571  0F52                     	;# 
  2572  0F53                     	;# 
  2573  0F54                     	;# 
  2574  0F55                     	;# 
  2575  0F56                     	;# 
  2576  0F57                     	;# 
  2577  0F65                     	;# 
  2578  0F68                     	;# 
  2579  0F69                     	;# 
  2580  0F6A                     	;# 
  2581  0F6B                     	;# 
  2582  0FE4                     	;# 
  2583  0FE5                     	;# 
  2584  0FE6                     	;# 
  2585  0FE7                     	;# 
  2586  0FE8                     	;# 
  2587  0FE9                     	;# 
  2588  0FEA                     	;# 
  2589  0FEB                     	;# 
  2590  0FED                     	;# 
  2591  0FEE                     	;# 
  2592  0FEF                     	;# 
  2593                           
  2594                           	psect	stringtext
  2595  0800                     __pstringtext:	
  2596  0800                     _fonts:	
  2597  0800  3400               	retlw	0
  2598  0801  3400               	retlw	0
  2599  0802  3400               	retlw	0
  2600  0803  3400               	retlw	0
  2601  0804  344E               	retlw	78
  2602  0805  3400               	retlw	0
  2603  0806  3406               	retlw	6
  2604  0807  3400               	retlw	0
  2605  0808  3406               	retlw	6
  2606  0809  34FF               	retlw	255
  2607  080A  34FF               	retlw	255
  2608  080B  34FF               	retlw	255
  2609  080C  3448               	retlw	72
  2610  080D  34D6               	retlw	214
  2611  080E  3424               	retlw	36
  2612  080F  3413               	retlw	19
  2613  0810  346B               	retlw	107
  2614  0811  3464               	retlw	100
  2615  0812  34FF               	retlw	255
  2616  0813  34FF               	retlw	255
  2617  0814  34FF               	retlw	255
  2618  0815  3400               	retlw	0
  2619  0816  3406               	retlw	6
  2620  0817  3400               	retlw	0
  2621  0818  3438               	retlw	56
  2622  0819  3444               	retlw	68
  2623  081A  3482               	retlw	130
  2624  081B  3482               	retlw	130
  2625  081C  3444               	retlw	68
  2626  081D  3438               	retlw	56
  2627  081E  3414               	retlw	20
  2628  081F  3408               	retlw	8
  2629  0820  343E               	retlw	62
  2630  0821  3410               	retlw	16
  2631  0822  3438               	retlw	56
  2632  0823  3410               	retlw	16
  2633  0824  34A0               	retlw	160
  2634  0825  3460               	retlw	96
  2635  0826  3400               	retlw	0
  2636  0827  3410               	retlw	16
  2637  0828  3410               	retlw	16
  2638  0829  3410               	retlw	16
  2639  082A  3460               	retlw	96
  2640  082B  3460               	retlw	96
  2641  082C  3400               	retlw	0
  2642  082D  3460               	retlw	96
  2643  082E  3418               	retlw	24
  2644  082F  3406               	retlw	6
  2645  0830  347C               	retlw	124
  2646  0831  3442               	retlw	66
  2647  0832  347C               	retlw	124
  2648  0833  3444               	retlw	68
  2649  0834  347E               	retlw	126
  2650  0835  3440               	retlw	64
  2651  0836  3464               	retlw	100
  2652  0837  3452               	retlw	82
  2653  0838  344C               	retlw	76
  2654  0839  344A               	retlw	74
  2655  083A  344A               	retlw	74
  2656  083B  3434               	retlw	52
  2657  083C  3438               	retlw	56
  2658  083D  3424               	retlw	36
  2659  083E  347E               	retlw	126
  2660  083F  344E               	retlw	78
  2661  0840  344A               	retlw	74
  2662  0841  3432               	retlw	50
  2663  0842  343C               	retlw	60
  2664  0843  344A               	retlw	74
  2665  0844  3432               	retlw	50
  2666  0845  3462               	retlw	98
  2667  0846  341A               	retlw	26
  2668  0847  3406               	retlw	6
  2669  0848  3476               	retlw	118
  2670  0849  344A               	retlw	74
  2671  084A  3476               	retlw	118
  2672  084B  344C               	retlw	76
  2673  084C  3452               	retlw	82
  2674  084D  343C               	retlw	60
  2675  084E  346C               	retlw	108
  2676  084F  346C               	retlw	108
  2677  0850  3400               	retlw	0
  2678  0851  34AC               	retlw	172
  2679  0852  346C               	retlw	108
  2680  0853  3400               	retlw	0
  2681  0854  3410               	retlw	16
  2682  0855  3428               	retlw	40
  2683  0856  3444               	retlw	68
  2684  0857  3428               	retlw	40
  2685  0858  3428               	retlw	40
  2686  0859  3428               	retlw	40
  2687  085A  3444               	retlw	68
  2688  085B  3428               	retlw	40
  2689  085C  3410               	retlw	16
  2690  085D  3402               	retlw	2
  2691  085E  3459               	retlw	89
  2692  085F  3406               	retlw	6
  2693  0860  34FF               	retlw	255
  2694  0861  34FF               	retlw	255
  2695  0862  34FF               	retlw	255
  2696  0863  347C               	retlw	124
  2697  0864  3412               	retlw	18
  2698  0865  347C               	retlw	124
  2699  0866  347E               	retlw	126
  2700  0867  345A               	retlw	90
  2701  0868  3434               	retlw	52
  2702  0869  343C               	retlw	60
  2703  086A  3442               	retlw	66
  2704  086B  3442               	retlw	66
  2705  086C  347E               	retlw	126
  2706  086D  3442               	retlw	66
  2707  086E  343C               	retlw	60
  2708  086F  347E               	retlw	126
  2709  0870  344A               	retlw	74
  2710  0871  3442               	retlw	66
  2711  0872  347E               	retlw	126
  2712  0873  340A               	retlw	10
  2713  0874  340A               	retlw	10
  2714  0875  343C               	retlw	60
  2715  0876  3452               	retlw	82
  2716  0877  3434               	retlw	52
  2717  0878  347E               	retlw	126
  2718  0879  3408               	retlw	8
  2719  087A  347E               	retlw	126
  2720  087B  3442               	retlw	66
  2721  087C  347E               	retlw	126
  2722  087D  3442               	retlw	66
  2723  087E  3430               	retlw	48
  2724  087F  3440               	retlw	64
  2725  0880  343E               	retlw	62
  2726  0881  347E               	retlw	126
  2727  0882  3418               	retlw	24
  2728  0883  3466               	retlw	102
  2729  0884  347E               	retlw	126
  2730  0885  3440               	retlw	64
  2731  0886  3440               	retlw	64
  2732  0887  347E               	retlw	126
  2733  0888  341C               	retlw	28
  2734  0889  347E               	retlw	126
  2735  088A  347E               	retlw	126
  2736  088B  3402               	retlw	2
  2737  088C  347E               	retlw	126
  2738  088D  343C               	retlw	60
  2739  088E  3442               	retlw	66
  2740  088F  343C               	retlw	60
  2741  0890  347E               	retlw	126
  2742  0891  3412               	retlw	18
  2743  0892  340C               	retlw	12
  2744  0893  347E               	retlw	126
  2745  0894  3462               	retlw	98
  2746  0895  34FE               	retlw	254
  2747  0896  347E               	retlw	126
  2748  0897  3432               	retlw	50
  2749  0898  344E               	retlw	78
  2750  0899  3444               	retlw	68
  2751  089A  344A               	retlw	74
  2752  089B  3432               	retlw	50
  2753  089C  3402               	retlw	2
  2754  089D  347E               	retlw	126
  2755  089E  3402               	retlw	2
  2756  089F  347E               	retlw	126
  2757  08A0  3440               	retlw	64
  2758  08A1  347E               	retlw	126
  2759  08A2  343E               	retlw	62
  2760  08A3  3440               	retlw	64
  2761  08A4  343E               	retlw	62
  2762  08A5  347E               	retlw	126
  2763  08A6  3438               	retlw	56
  2764  08A7  347E               	retlw	126
  2765  08A8  3466               	retlw	102
  2766  08A9  3418               	retlw	24
  2767  08AA  3466               	retlw	102
  2768  08AB  340E               	retlw	14
  2769  08AC  3470               	retlw	112
  2770  08AD  340E               	retlw	14
  2771  08AE  3462               	retlw	98
  2772  08AF  345A               	retlw	90
  2773  08B0  3446               	retlw	70
  2774  08B1  3400               	retlw	0
  2775  08B2  347E               	retlw	126
  2776  08B3  3442               	retlw	66
  2777  08B4  3406               	retlw	6
  2778  08B5  3418               	retlw	24
  2779  08B6  3460               	retlw	96
  2780  08B7  3442               	retlw	66
  2781  08B8  347E               	retlw	126
  2782  08B9  3400               	retlw	0
  2783  08BA  3404               	retlw	4
  2784  08BB  3402               	retlw	2
  2785  08BC  3404               	retlw	4
  2786  08BD  3440               	retlw	64
  2787  08BE  3440               	retlw	64
  2788  08BF  3440               	retlw	64
  2789  08C0  3400               	retlw	0
  2790  08C1  3402               	retlw	2
  2791  08C2  3404               	retlw	4
  2792  08C3  3474               	retlw	116
  2793  08C4  3454               	retlw	84
  2794  08C5  3478               	retlw	120
  2795  08C6  347E               	retlw	126
  2796  08C7  3448               	retlw	72
  2797  08C8  3430               	retlw	48
  2798  08C9  3430               	retlw	48
  2799  08CA  3448               	retlw	72
  2800  08CB  3448               	retlw	72
  2801  08CC  3430               	retlw	48
  2802  08CD  3448               	retlw	72
  2803  08CE  347E               	retlw	126
  2804  08CF  3438               	retlw	56
  2805  08D0  3454               	retlw	84
  2806  08D1  3458               	retlw	88
  2807  08D2  347C               	retlw	124
  2808  08D3  340A               	retlw	10
  2809  08D4  3402               	retlw	2
  2810  08D5  3498               	retlw	152
  2811  08D6  34A4               	retlw	164
  2812  08D7  347C               	retlw	124
  2813  08D8  347E               	retlw	126
  2814  08D9  3408               	retlw	8
  2815  08DA  3470               	retlw	112
  2816  08DB  3448               	retlw	72
  2817  08DC  347A               	retlw	122
  2818  08DD  3440               	retlw	64
  2819  08DE  3488               	retlw	136
  2820  08DF  34FA               	retlw	250
  2821  08E0  3400               	retlw	0
  2822  08E1  347E               	retlw	126
  2823  08E2  3418               	retlw	24
  2824  08E3  3464               	retlw	100
  2825  08E4  3442               	retlw	66
  2826  08E5  347E               	retlw	126
  2827  08E6  3440               	retlw	64
  2828  08E7  347C               	retlw	124
  2829  08E8  3438               	retlw	56
  2830  08E9  347C               	retlw	124
  2831  08EA  347C               	retlw	124
  2832  08EB  3404               	retlw	4
  2833  08EC  3478               	retlw	120
  2834  08ED  3438               	retlw	56
  2835  08EE  3444               	retlw	68
  2836  08EF  3438               	retlw	56
  2837  08F0  34FC               	retlw	252
  2838  08F1  3424               	retlw	36
  2839  08F2  3418               	retlw	24
  2840  08F3  3418               	retlw	24
  2841  08F4  3424               	retlw	36
  2842  08F5  34FC               	retlw	252
  2843  08F6  3478               	retlw	120
  2844  08F7  3404               	retlw	4
  2845  08F8  3404               	retlw	4
  2846  08F9  3448               	retlw	72
  2847  08FA  3454               	retlw	84
  2848  08FB  3424               	retlw	36
  2849  08FC  3404               	retlw	4
  2850  08FD  343E               	retlw	62
  2851  08FE  3444               	retlw	68
  2852  08FF  347C               	retlw	124
  2853  0900  3440               	retlw	64
  2854  0901  347C               	retlw	124
  2855  0902  343C               	retlw	60
  2856  0903  3440               	retlw	64
  2857  0904  343C               	retlw	60
  2858  0905  347C               	retlw	124
  2859  0906  3430               	retlw	48
  2860  0907  347C               	retlw	124
  2861  0908  346C               	retlw	108
  2862  0909  3410               	retlw	16
  2863  090A  346C               	retlw	108
  2864  090B  349C               	retlw	156
  2865  090C  34A0               	retlw	160
  2866  090D  347C               	retlw	124
  2867  090E  3464               	retlw	100
  2868  090F  3454               	retlw	84
  2869  0910  344C               	retlw	76
  2870  0911  34FF               	retlw	255
  2871  0912  34FF               	retlw	255
  2872  0913  34FF               	retlw	255
  2873  0914  34FF               	retlw	255
  2874  0915  34FF               	retlw	255
  2875  0916  34FF               	retlw	255
  2876  0917  34FF               	retlw	255
  2877  0918  34FF               	retlw	255
  2878  0919  34FF               	retlw	255
  2879  091A  34FF               	retlw	255
  2880  091B  34FF               	retlw	255
  2881  091C  34FF               	retlw	255
  2882  091D  34FF               	retlw	255
  2883  091E  34FF               	retlw	255
  2884  091F  34FF               	retlw	255
  2885  0920  34FF               	retlw	255
  2886  0921  34FF               	retlw	255
  2887  0922  34FF               	retlw	255
  2888  0923  340C               	retlw	12
  2889  0924  3412               	retlw	18
  2890  0925  340C               	retlw	12
  2891  0926  34FC               	retlw	252
  2892  0927  3440               	retlw	64
  2893  0928  347C               	retlw	124
  2894  0929  34FF               	retlw	255
  2895  092A  34FF               	retlw	255
  2896  092B  34FF               	retlw	255
  2897  092C  34FF               	retlw	255
  2898  092D  34FF               	retlw	255
  2899  092E  34FF               	retlw	255
  2900  092F                     __end_of_fonts:	
  2901  092F                     _coffee:	
  2902  092F  34FF               	retlw	255
  2903  0930  3401               	retlw	1
  2904  0931  3401               	retlw	1
  2905  0932  3401               	retlw	1
  2906  0933  3401               	retlw	1
  2907  0934  3401               	retlw	1
  2908  0935  3401               	retlw	1
  2909  0936  3401               	retlw	1
  2910  0937  3401               	retlw	1
  2911  0938  3401               	retlw	1
  2912  0939  3401               	retlw	1
  2913  093A  3401               	retlw	1
  2914  093B  3401               	retlw	1
  2915  093C  3401               	retlw	1
  2916  093D  3401               	retlw	1
  2917  093E  3401               	retlw	1
  2918  093F  3401               	retlw	1
  2919  0940  3401               	retlw	1
  2920  0941  3401               	retlw	1
  2921  0942  3401               	retlw	1
  2922  0943  3401               	retlw	1
  2923  0944  3401               	retlw	1
  2924  0945  3401               	retlw	1
  2925  0946  3401               	retlw	1
  2926  0947  3401               	retlw	1
  2927  0948  3401               	retlw	1
  2928  0949  3401               	retlw	1
  2929  094A  3481               	retlw	129
  2930  094B  34C1               	retlw	193
  2931  094C  34C1               	retlw	193
  2932  094D  34C1               	retlw	193
  2933  094E  3481               	retlw	129
  2934  094F  3401               	retlw	1
  2935  0950  3401               	retlw	1
  2936  0951  3401               	retlw	1
  2937  0952  3481               	retlw	129
  2938  0953  34C1               	retlw	193
  2939  0954  34C1               	retlw	193
  2940  0955  34C1               	retlw	193
  2941  0956  34C1               	retlw	193
  2942  0957  3401               	retlw	1
  2943  0958  34C1               	retlw	193
  2944  0959  34E1               	retlw	225
  2945  095A  3461               	retlw	97
  2946  095B  34E1               	retlw	225
  2947  095C  34C1               	retlw	193
  2948  095D  3481               	retlw	129
  2949  095E  3401               	retlw	1
  2950  095F  3481               	retlw	129
  2951  0960  34C1               	retlw	193
  2952  0961  34C1               	retlw	193
  2953  0962  3481               	retlw	129
  2954  0963  3481               	retlw	129
  2955  0964  3401               	retlw	1
  2956  0965  3401               	retlw	1
  2957  0966  3401               	retlw	1
  2958  0967  3401               	retlw	1
  2959  0968  3401               	retlw	1
  2960  0969  3401               	retlw	1
  2961  096A  3401               	retlw	1
  2962  096B  3401               	retlw	1
  2963  096C  3401               	retlw	1
  2964  096D  3401               	retlw	1
  2965  096E  3401               	retlw	1
  2966  096F  3401               	retlw	1
  2967  0970  3401               	retlw	1
  2968  0971  3401               	retlw	1
  2969  0972  3401               	retlw	1
  2970  0973  3401               	retlw	1
  2971  0974  3401               	retlw	1
  2972  0975  3401               	retlw	1
  2973  0976  3401               	retlw	1
  2974  0977  3401               	retlw	1
  2975  0978  3401               	retlw	1
  2976  0979  3401               	retlw	1
  2977  097A  3401               	retlw	1
  2978  097B  3401               	retlw	1
  2979  097C  3401               	retlw	1
  2980  097D  3401               	retlw	1
  2981  097E  3401               	retlw	1
  2982  097F  3401               	retlw	1
  2983  0980  3401               	retlw	1
  2984  0981  3401               	retlw	1
  2985  0982  34FF               	retlw	255
  2986  0983  34FF               	retlw	255
  2987  0984  3400               	retlw	0
  2988  0985  3400               	retlw	0
  2989  0986  3400               	retlw	0
  2990  0987  3400               	retlw	0
  2991  0988  3400               	retlw	0
  2992  0989  3400               	retlw	0
  2993  098A  3400               	retlw	0
  2994  098B  3400               	retlw	0
  2995  098C  3400               	retlw	0
  2996  098D  3400               	retlw	0
  2997  098E  3400               	retlw	0
  2998  098F  3400               	retlw	0
  2999  0990  3400               	retlw	0
  3000  0991  3400               	retlw	0
  3001  0992  3400               	retlw	0
  3002  0993  3400               	retlw	0
  3003  0994  3400               	retlw	0
  3004  0995  34C0               	retlw	192
  3005  0996  3440               	retlw	64
  3006  0997  34E0               	retlw	224
  3007  0998  34B0               	retlw	176
  3008  0999  3410               	retlw	16
  3009  099A  3400               	retlw	0
  3010  099B  341C               	retlw	28
  3011  099C  343E               	retlw	62
  3012  099D  347E               	retlw	126
  3013  099E  347F               	retlw	127
  3014  099F  347F               	retlw	127
  3015  09A0  347F               	retlw	127
  3016  09A1  347F               	retlw	127
  3017  09A2  347F               	retlw	127
  3018  09A3  347F               	retlw	127
  3019  09A4  3400               	retlw	0
  3020  09A5  3400               	retlw	0
  3021  09A6  3407               	retlw	7
  3022  09A7  340F               	retlw	15
  3023  09A8  340C               	retlw	12
  3024  09A9  340C               	retlw	12
  3025  09AA  3404               	retlw	4
  3026  09AB  3400               	retlw	0
  3027  09AC  3407               	retlw	7
  3028  09AD  340F               	retlw	15
  3029  09AE  340C               	retlw	12
  3030  09AF  340C               	retlw	12
  3031  09B0  340F               	retlw	15
  3032  09B1  3407               	retlw	7
  3033  09B2  341C               	retlw	28
  3034  09B3  341F               	retlw	31
  3035  09B4  3407               	retlw	7
  3036  09B5  3406               	retlw	6
  3037  09B6  3406               	retlw	6
  3038  09B7  3470               	retlw	112
  3039  09B8  343C               	retlw	60
  3040  09B9  341F               	retlw	31
  3041  09BA  340B               	retlw	11
  3042  09BB  341B               	retlw	27
  3043  09BC  34E6               	retlw	230
  3044  09BD  34F2               	retlw	242
  3045  09BE  34BC               	retlw	188
  3046  09BF  346C               	retlw	108
  3047  09C0  3438               	retlw	56
  3048  09C1  3498               	retlw	152
  3049  09C2  34D0               	retlw	208
  3050  09C3  34E0               	retlw	224
  3051  09C4  34B0               	retlw	176
  3052  09C5  3460               	retlw	96
  3053  09C6  3440               	retlw	64
  3054  09C7  3440               	retlw	64
  3055  09C8  3400               	retlw	0
  3056  09C9  3400               	retlw	0
  3057  09CA  3400               	retlw	0
  3058  09CB  3400               	retlw	0
  3059  09CC  3400               	retlw	0
  3060  09CD  3400               	retlw	0
  3061  09CE  3400               	retlw	0
  3062  09CF  3400               	retlw	0
  3063  09D0  3400               	retlw	0
  3064  09D1  3400               	retlw	0
  3065  09D2  3400               	retlw	0
  3066  09D3  3400               	retlw	0
  3067  09D4  3400               	retlw	0
  3068  09D5  3400               	retlw	0
  3069  09D6  34FF               	retlw	255
  3070  09D7  34FF               	retlw	255
  3071  09D8  3400               	retlw	0
  3072  09D9  3400               	retlw	0
  3073  09DA  3400               	retlw	0
  3074  09DB  3400               	retlw	0
  3075  09DC  3400               	retlw	0
  3076  09DD  3400               	retlw	0
  3077  09DE  3400               	retlw	0
  3078  09DF  3400               	retlw	0
  3079  09E0  3400               	retlw	0
  3080  09E1  3400               	retlw	0
  3081  09E2  3400               	retlw	0
  3082  09E3  3400               	retlw	0
  3083  09E4  3400               	retlw	0
  3084  09E5  3400               	retlw	0
  3085  09E6  3400               	retlw	0
  3086  09E7  3400               	retlw	0
  3087  09E8  3400               	retlw	0
  3088  09E9  3400               	retlw	0
  3089  09EA  3400               	retlw	0
  3090  09EB  3400               	retlw	0
  3091  09EC  340D               	retlw	13
  3092  09ED  340F               	retlw	15
  3093  09EE  3406               	retlw	6
  3094  09EF  3407               	retlw	7
  3095  09F0  3403               	retlw	3
  3096  09F1  3400               	retlw	0
  3097  09F2  3400               	retlw	0
  3098  09F3  3400               	retlw	0
  3099  09F4  3400               	retlw	0
  3100  09F5  3400               	retlw	0
  3101  09F6  3400               	retlw	0
  3102  09F7  3400               	retlw	0
  3103  09F8  3400               	retlw	0
  3104  09F9  3400               	retlw	0
  3105  09FA  3400               	retlw	0
  3106  09FB  3400               	retlw	0
  3107  09FC  3400               	retlw	0
  3108  09FD  3400               	retlw	0
  3109  09FE  34C0               	retlw	192
  3110  09FF  34F0               	retlw	240
  3111  0A00  3477               	retlw	119
  3112  0A01  341F               	retlw	31
  3113  0A02  34C8               	retlw	200
  3114  0A03  34C0               	retlw	192
  3115  0A04  3400               	retlw	0
  3116  0A05  3400               	retlw	0
  3117  0A06  3400               	retlw	0
  3118  0A07  3400               	retlw	0
  3119  0A08  3400               	retlw	0
  3120  0A09  3400               	retlw	0
  3121  0A0A  3400               	retlw	0
  3122  0A0B  3400               	retlw	0
  3123  0A0C  3400               	retlw	0
  3124  0A0D  3400               	retlw	0
  3125  0A0E  3400               	retlw	0
  3126  0A0F  3400               	retlw	0
  3127  0A10  3400               	retlw	0
  3128  0A11  3401               	retlw	1
  3129  0A12  3401               	retlw	1
  3130  0A13  3400               	retlw	0
  3131  0A14  3407               	retlw	7
  3132  0A15  3407               	retlw	7
  3133  0A16  340C               	retlw	12
  3134  0A17  340C               	retlw	12
  3135  0A18  3401               	retlw	1
  3136  0A19  3401               	retlw	1
  3137  0A1A  3400               	retlw	0
  3138  0A1B  3400               	retlw	0
  3139  0A1C  3400               	retlw	0
  3140  0A1D  3400               	retlw	0
  3141  0A1E  3400               	retlw	0
  3142  0A1F  3400               	retlw	0
  3143  0A20  3400               	retlw	0
  3144  0A21  3400               	retlw	0
  3145  0A22  3400               	retlw	0
  3146  0A23  3400               	retlw	0
  3147  0A24  3400               	retlw	0
  3148  0A25  3400               	retlw	0
  3149  0A26  3400               	retlw	0
  3150  0A27  3400               	retlw	0
  3151  0A28  3400               	retlw	0
  3152  0A29  3400               	retlw	0
  3153  0A2A  34FF               	retlw	255
  3154  0A2B  34FF               	retlw	255
  3155  0A2C  3400               	retlw	0
  3156  0A2D  3400               	retlw	0
  3157  0A2E  3400               	retlw	0
  3158  0A2F  3400               	retlw	0
  3159  0A30  3400               	retlw	0
  3160  0A31  3400               	retlw	0
  3161  0A32  3400               	retlw	0
  3162  0A33  3400               	retlw	0
  3163  0A34  3400               	retlw	0
  3164  0A35  3400               	retlw	0
  3165  0A36  3400               	retlw	0
  3166  0A37  3400               	retlw	0
  3167  0A38  3400               	retlw	0
  3168  0A39  3400               	retlw	0
  3169  0A3A  3400               	retlw	0
  3170  0A3B  3400               	retlw	0
  3171  0A3C  3400               	retlw	0
  3172  0A3D  3400               	retlw	0
  3173  0A3E  3400               	retlw	0
  3174  0A3F  3400               	retlw	0
  3175  0A40  3400               	retlw	0
  3176  0A41  3400               	retlw	0
  3177  0A42  3400               	retlw	0
  3178  0A43  3400               	retlw	0
  3179  0A44  3400               	retlw	0
  3180  0A45  3400               	retlw	0
  3181  0A46  3400               	retlw	0
  3182  0A47  3400               	retlw	0
  3183  0A48  3400               	retlw	0
  3184  0A49  3480               	retlw	128
  3185  0A4A  3480               	retlw	128
  3186  0A4B  3480               	retlw	128
  3187  0A4C  3480               	retlw	128
  3188  0A4D  34C0               	retlw	192
  3189  0A4E  34C0               	retlw	192
  3190  0A4F  34C0               	retlw	192
  3191  0A50  34C0               	retlw	192
  3192  0A51  34DE               	retlw	222
  3193  0A52  34FF               	retlw	255
  3194  0A53  34F1               	retlw	241
  3195  0A54  34E0               	retlw	224
  3196  0A55  34C0               	retlw	192
  3197  0A56  34E1               	retlw	225
  3198  0A57  34FF               	retlw	255
  3199  0A58  34DF               	retlw	223
  3200  0A59  34C4               	retlw	196
  3201  0A5A  34C0               	retlw	192
  3202  0A5B  34C0               	retlw	192
  3203  0A5C  34C0               	retlw	192
  3204  0A5D  34C0               	retlw	192
  3205  0A5E  34C0               	retlw	192
  3206  0A5F  34C0               	retlw	192
  3207  0A60  34C0               	retlw	192
  3208  0A61  3400               	retlw	0
  3209  0A62  3400               	retlw	0
  3210  0A63  3400               	retlw	0
  3211  0A64  3400               	retlw	0
  3212  0A65  3400               	retlw	0
  3213  0A66  3400               	retlw	0
  3214  0A67  3400               	retlw	0
  3215  0A68  3400               	retlw	0
  3216  0A69  3400               	retlw	0
  3217  0A6A  3400               	retlw	0
  3218  0A6B  3400               	retlw	0
  3219  0A6C  3400               	retlw	0
  3220  0A6D  3400               	retlw	0
  3221  0A6E  3400               	retlw	0
  3222  0A6F  3400               	retlw	0
  3223  0A70  3400               	retlw	0
  3224  0A71  3400               	retlw	0
  3225  0A72  3400               	retlw	0
  3226  0A73  3400               	retlw	0
  3227  0A74  3400               	retlw	0
  3228  0A75  3400               	retlw	0
  3229  0A76  3400               	retlw	0
  3230  0A77  3400               	retlw	0
  3231  0A78  3400               	retlw	0
  3232  0A79  3400               	retlw	0
  3233  0A7A  3400               	retlw	0
  3234  0A7B  3400               	retlw	0
  3235  0A7C  3400               	retlw	0
  3236  0A7D  3400               	retlw	0
  3237  0A7E  34FF               	retlw	255
  3238  0A7F  34FF               	retlw	255
  3239  0A80  3400               	retlw	0
  3240  0A81  3400               	retlw	0
  3241  0A82  3400               	retlw	0
  3242  0A83  3400               	retlw	0
  3243  0A84  3400               	retlw	0
  3244  0A85  3400               	retlw	0
  3245  0A86  3400               	retlw	0
  3246  0A87  3400               	retlw	0
  3247  0A88  3400               	retlw	0
  3248  0A89  3400               	retlw	0
  3249  0A8A  3400               	retlw	0
  3250  0A8B  3400               	retlw	0
  3251  0A8C  3400               	retlw	0
  3252  0A8D  3400               	retlw	0
  3253  0A8E  3400               	retlw	0
  3254  0A8F  3400               	retlw	0
  3255  0A90  3400               	retlw	0
  3256  0A91  3400               	retlw	0
  3257  0A92  3400               	retlw	0
  3258  0A93  3400               	retlw	0
  3259  0A94  3400               	retlw	0
  3260  0A95  3400               	retlw	0
  3261  0A96  3400               	retlw	0
  3262  0A97  3400               	retlw	0
  3263  0A98  3400               	retlw	0
  3264  0A99  3400               	retlw	0
  3265  0A9A  3400               	retlw	0
  3266  0A9B  3400               	retlw	0
  3267  0A9C  3400               	retlw	0
  3268  0A9D  34C7               	retlw	199
  3269  0A9E  34CF               	retlw	207
  3270  0A9F  349D               	retlw	157
  3271  0AA0  3491               	retlw	145
  3272  0AA1  34B7               	retlw	183
  3273  0AA2  34BF               	retlw	191
  3274  0AA3  34B8               	retlw	184
  3275  0AA4  34E0               	retlw	224
  3276  0AA5  34C0               	retlw	192
  3277  0AA6  3480               	retlw	128
  3278  0AA7  3480               	retlw	128
  3279  0AA8  3480               	retlw	128
  3280  0AA9  3480               	retlw	128
  3281  0AAA  3480               	retlw	128
  3282  0AAB  3480               	retlw	128
  3283  0AAC  3480               	retlw	128
  3284  0AAD  3480               	retlw	128
  3285  0AAE  34C0               	retlw	192
  3286  0AAF  34C0               	retlw	192
  3287  0AB0  34E0               	retlw	224
  3288  0AB1  34B8               	retlw	184
  3289  0AB2  349F               	retlw	159
  3290  0AB3  3487               	retlw	135
  3291  0AB4  34C1               	retlw	193
  3292  0AB5  34C0               	retlw	192
  3293  0AB6  3460               	retlw	96
  3294  0AB7  3400               	retlw	0
  3295  0AB8  3400               	retlw	0
  3296  0AB9  3400               	retlw	0
  3297  0ABA  3400               	retlw	0
  3298  0ABB  3400               	retlw	0
  3299  0ABC  3400               	retlw	0
  3300  0ABD  3400               	retlw	0
  3301  0ABE  3400               	retlw	0
  3302  0ABF  3400               	retlw	0
  3303  0AC0  3400               	retlw	0
  3304  0AC1  3400               	retlw	0
  3305  0AC2  3400               	retlw	0
  3306  0AC3  3400               	retlw	0
  3307  0AC4  3400               	retlw	0
  3308  0AC5  3400               	retlw	0
  3309  0AC6  3400               	retlw	0
  3310  0AC7  3400               	retlw	0
  3311  0AC8  3400               	retlw	0
  3312  0AC9  3400               	retlw	0
  3313  0ACA  3400               	retlw	0
  3314  0ACB  3400               	retlw	0
  3315  0ACC  3400               	retlw	0
  3316  0ACD  3400               	retlw	0
  3317  0ACE  3400               	retlw	0
  3318  0ACF  3400               	retlw	0
  3319  0AD0  3400               	retlw	0
  3320  0AD1  3400               	retlw	0
  3321  0AD2  34FF               	retlw	255
  3322  0AD3  34FF               	retlw	255
  3323  0AD4  3480               	retlw	128
  3324  0AD5  3480               	retlw	128
  3325  0AD6  3480               	retlw	128
  3326  0AD7  3480               	retlw	128
  3327  0AD8  3480               	retlw	128
  3328  0AD9  3480               	retlw	128
  3329  0ADA  3480               	retlw	128
  3330  0ADB  3480               	retlw	128
  3331  0ADC  3480               	retlw	128
  3332  0ADD  3480               	retlw	128
  3333  0ADE  3480               	retlw	128
  3334  0ADF  3480               	retlw	128
  3335  0AE0  3480               	retlw	128
  3336  0AE1  3480               	retlw	128
  3337  0AE2  3480               	retlw	128
  3338  0AE3  3480               	retlw	128
  3339  0AE4  3480               	retlw	128
  3340  0AE5  3480               	retlw	128
  3341  0AE6  3480               	retlw	128
  3342  0AE7  3480               	retlw	128
  3343  0AE8  3480               	retlw	128
  3344  0AE9  3480               	retlw	128
  3345  0AEA  3480               	retlw	128
  3346  0AEB  3480               	retlw	128
  3347  0AEC  3480               	retlw	128
  3348  0AED  3480               	retlw	128
  3349  0AEE  3480               	retlw	128
  3350  0AEF  3480               	retlw	128
  3351  0AF0  3480               	retlw	128
  3352  0AF1  3480               	retlw	128
  3353  0AF2  3481               	retlw	129
  3354  0AF3  3483               	retlw	131
  3355  0AF4  3483               	retlw	131
  3356  0AF5  3483               	retlw	131
  3357  0AF6  3483               	retlw	131
  3358  0AF7  3483               	retlw	131
  3359  0AF8  3483               	retlw	131
  3360  0AF9  3483               	retlw	131
  3361  0AFA  3483               	retlw	131
  3362  0AFB  3483               	retlw	131
  3363  0AFC  3483               	retlw	131
  3364  0AFD  3483               	retlw	131
  3365  0AFE  3483               	retlw	131
  3366  0AFF  3483               	retlw	131
  3367  0B00  3483               	retlw	131
  3368  0B01  3483               	retlw	131
  3369  0B02  3483               	retlw	131
  3370  0B03  3483               	retlw	131
  3371  0B04  3483               	retlw	131
  3372  0B05  3483               	retlw	131
  3373  0B06  3483               	retlw	131
  3374  0B07  3483               	retlw	131
  3375  0B08  3481               	retlw	129
  3376  0B09  3481               	retlw	129
  3377  0B0A  3480               	retlw	128
  3378  0B0B  3480               	retlw	128
  3379  0B0C  3480               	retlw	128
  3380  0B0D  3480               	retlw	128
  3381  0B0E  3480               	retlw	128
  3382  0B0F  3480               	retlw	128
  3383  0B10  3480               	retlw	128
  3384  0B11  3480               	retlw	128
  3385  0B12  3480               	retlw	128
  3386  0B13  3480               	retlw	128
  3387  0B14  3480               	retlw	128
  3388  0B15  3480               	retlw	128
  3389  0B16  3480               	retlw	128
  3390  0B17  3480               	retlw	128
  3391  0B18  3480               	retlw	128
  3392  0B19  3480               	retlw	128
  3393  0B1A  3480               	retlw	128
  3394  0B1B  3480               	retlw	128
  3395  0B1C  3480               	retlw	128
  3396  0B1D  3480               	retlw	128
  3397  0B1E  3480               	retlw	128
  3398  0B1F  3480               	retlw	128
  3399  0B20  3480               	retlw	128
  3400  0B21  3480               	retlw	128
  3401  0B22  3480               	retlw	128
  3402  0B23  3480               	retlw	128
  3403  0B24  3480               	retlw	128
  3404  0B25  3480               	retlw	128
  3405  0B26  34FF               	retlw	255
  3406  0B27                     __end_of_coffee:	
  3407  0016                     _LATA	set	22
  3408  0017                     _LATB	set	23
  3409  0018                     _LATC	set	24
  3410  0018                     _LATCbits	set	24
  3411  0011                     _TRISA	set	17
  3412  0012                     _TRISB	set	18
  3413  0013                     _TRISC	set	19
  3414  0013                     _TRISCbits	set	19
  3415  009D                     _ADACQ	set	157
  3416  0099                     _ADACT	set	153
  3417  009B                     _ADCAP	set	155
  3418  0098                     _ADCLK	set	152
  3419  0093                     _ADCON0	set	147
  3420  0093                     _ADCON0bits	set	147
  3421  0094                     _ADCON1	set	148
  3422  0095                     _ADCON2	set	149
  3423  0096                     _ADCON3	set	150
  3424  009E                     _ADPCH	set	158
  3425  009C                     _ADPRE	set	156
  3426  009A                     _ADREF	set	154
  3427  008D                     _ADRESH	set	141
  3428  008C                     _ADRESL	set	140
  3429  0097                     _ADSTAT	set	151
  3430  010F                     _ADLTHH	set	271
  3431  010E                     _ADLTHL	set	270
  3432  010D                     _ADRPT	set	269
  3433  0113                     _ADSTPTH	set	275
  3434  0112                     _ADSTPTL	set	274
  3435  0111                     _ADUTHH	set	273
  3436  0110                     _ADUTHL	set	272
  3437  0F38                     _ANSELA	set	3896
  3438  0F43                     _ANSELB	set	3907
  3439  0F4E                     _ANSELC	set	3918
  3440  0B27                     STR_2:	
  3441  0B27  344C               	retlw	76	;'L'
  3442  0B28  3461               	retlw	97	;'a'
  3443  0B29  3479               	retlw	121	;'y'
  3444  0B2A  346E               	retlw	110	;'n'
  3445  0B2B  3465               	retlw	101	;'e'
  3446  0B2C  3420               	retlw	32	;' '
  3447  0B2D  3453               	retlw	83	;'S'
  3448  0B2E  3475               	retlw	117	;'u'
  3449  0B2F  3463               	retlw	99	;'c'
  3450  0B30  346B               	retlw	107	;'k'
  3451  0B31  3473               	retlw	115	;'s'
  3452  0B32  3420               	retlw	32	;' '
  3453  0B33  3443               	retlw	67	;'C'
  3454  0B34  344F               	retlw	79	;'O'
  3455  0B35  3443               	retlw	67	;'C'
  3456  0B36  344B               	retlw	75	;'K'
  3457  0B37  3421               	retlw	33	;'!'
  3458  0B38  3421               	retlw	33	;'!'
  3459  0B39  3400               	retlw	0
  3460  0B3A                     STR_3:	
  3461  0B3A  3461               	retlw	97	;'a'
  3462  0B3B  346E               	retlw	110	;'n'
  3463  0B3C  3464               	retlw	100	;'d'
  3464  0B3D  3420               	retlw	32	;' '
  3465  0B3E  344C               	retlw	76	;'L'
  3466  0B3F  3469               	retlw	105	;'i'
  3467  0B40  346B               	retlw	107	;'k'
  3468  0B41  3465               	retlw	101	;'e'
  3469  0B42  3473               	retlw	115	;'s'
  3470  0B43  3420               	retlw	32	;' '
  3471  0B44  3469               	retlw	105	;'i'
  3472  0B45  3474               	retlw	116	;'t'
  3473  0B46  3421               	retlw	33	;'!'
  3474  0B47  3421               	retlw	33	;'!'
  3475  0B48  3400               	retlw	0
  3476  0B49                     STR_1:	
  3477  0B49  3441               	retlw	65	;'A'
  3478  0B4A  3420               	retlw	32	;' '
  3479  0B4B  344E               	retlw	78	;'N'
  3480  0B4C  3420               	retlw	32	;' '
  3481  0B4D  3444               	retlw	68	;'D'
  3482  0B4E  3420               	retlw	32	;' '
  3483  0B4F  342C               	retlw	44	;','
  3484  0B50  3400               	retlw	0
  3485  0B51                     STR_4:	
  3486  0B51  3420               	retlw	32	;' '
  3487  0B52  3420               	retlw	32	;' '
  3488  0B53  3420               	retlw	32	;' '
  3489  0B54  3420               	retlw	32	;' '
  3490  0B55  3420               	retlw	32	;' '
  3491  0B56  3400               	retlw	0
  3492                           
  3493                           ; #config settings
  3494  0000                     
  3495                           	psect	cinit
  3496  07F2                     start_initialization:	
  3497  07F2                     __initialization:	
  3498                           
  3499                           ; Clear objects allocated to BANK0
  3500  07F2  0020               	movlb	0	; select bank0
  3501  07F3  01BE               	clrf	__pbssBANK0& (0+127)
  3502  07F4  01BF               	clrf	(__pbssBANK0+1)& (0+127)
  3503  07F5  01C0               	clrf	(__pbssBANK0+2)& (0+127)
  3504  07F6  01C1               	clrf	(__pbssBANK0+3)& (0+127)
  3505  07F7  01C2               	clrf	(__pbssBANK0+4)& (0+127)
  3506  07F8  01C3               	clrf	(__pbssBANK0+5)& (0+127)
  3507  07F9  01C4               	clrf	(__pbssBANK0+6)& (0+127)
  3508  07FA  01C5               	clrf	(__pbssBANK0+7)& (0+127)
  3509  07FB  01C6               	clrf	(__pbssBANK0+8)& (0+127)
  3510  07FC  01C7               	clrf	(__pbssBANK0+9)& (0+127)
  3511  07FD                     end_of_initialization:	
  3512                           ;End of C runtime variable initialization code
  3513                           
  3514  07FD                     __end_of__initialization:	
  3515  07FD  0020               	movlb	0
  3516  07FE  3186  2E5D         	ljmp	_main	;jump to C main() function
  3517                           
  3518                           	psect	bssBANK0
  3519  003E                     __pbssBANK0:	
  3520  003E                     LCD_Write_Int@F13665:	
  3521  003E                     	ds	5
  3522  0043                     _readButtons:	
  3523  0043                     	ds	2
  3524  0045                     _button:	
  3525  0045                     	ds	1
  3526  0046                     _x:	
  3527  0046                     	ds	1
  3528  0047                     _y:	
  3529  0047                     	ds	1
  3530                           
  3531                           	psect	cstackCOMMON
  3532  0070                     __pcstackCOMMON:	
  3533  0070                     ?_ConfigureOscillator:	
  3534  0070                     ??_ConfigureOscillator:	
  3535                           ; 1 bytes @ 0x0
  3536                           
  3537  0070                     ?_ADC_Init:	
  3538                           ; 1 bytes @ 0x0
  3539                           
  3540  0070                     ??_ADC_Init:	
  3541                           ; 1 bytes @ 0x0
  3542                           
  3543  0070                     ?_LCD_Write_Character:	
  3544                           ; 1 bytes @ 0x0
  3545                           
  3546  0070                     ?_LCD_Clear:	
  3547                           ; 1 bytes @ 0x0
  3548                           
  3549  0070                     ?_LCDInit:	
  3550                           ; 1 bytes @ 0x0
  3551                           
  3552  0070                     ?_drawBox:	
  3553                           ; 1 bytes @ 0x0
  3554                           
  3555  0070                     ?_Init:	
  3556                           ; 1 bytes @ 0x0
  3557                           
  3558  0070                     ??_Init:	
  3559                           ; 1 bytes @ 0x0
  3560                           
  3561  0070                     ?_readButton:	
  3562                           ; 1 bytes @ 0x0
  3563                           
  3564  0070                     ?_ADC_Read:	
  3565                           ; 1 bytes @ 0x0
  3566                           
  3567  0070                     ?_main:	
  3568                           ; 2 bytes @ 0x0
  3569                           
  3570  0070                     ?___wmul:	
  3571                           ; 2 bytes @ 0x0
  3572                           
  3573  0070                     ?___awdiv:	
  3574                           ; 2 bytes @ 0x0
  3575                           
  3576  0070                     ?___awmod:	
  3577                           ; 2 bytes @ 0x0
  3578                           
  3579  0070                     ___wmul@multiplier:	
  3580                           ; 2 bytes @ 0x0
  3581                           
  3582  0070                     ___awdiv@divisor:	
  3583                           ; 2 bytes @ 0x0
  3584                           
  3585  0070                     ___awmod@divisor:	
  3586                           ; 2 bytes @ 0x0
  3587                           
  3588                           
  3589                           ; 2 bytes @ 0x0
  3590  0070                     	ds	2
  3591  0072                     ___wmul@multiplicand:	
  3592  0072                     ___awdiv@dividend:	
  3593                           ; 2 bytes @ 0x2
  3594                           
  3595  0072                     ___awmod@dividend:	
  3596                           ; 2 bytes @ 0x2
  3597                           
  3598                           
  3599                           ; 2 bytes @ 0x2
  3600  0072                     	ds	1
  3601  0073                     ??_ADC_Read:	
  3602  0073                     ADC_Read@channel:	
  3603                           ; 1 bytes @ 0x3
  3604                           
  3605                           
  3606                           ; 1 bytes @ 0x3
  3607  0073                     	ds	1
  3608  0074                     ??_readButton:	
  3609  0074                     ??___wmul:	
  3610                           ; 1 bytes @ 0x4
  3611                           
  3612  0074                     ??___awdiv:	
  3613                           ; 1 bytes @ 0x4
  3614                           
  3615  0074                     ??___awmod:	
  3616                           ; 1 bytes @ 0x4
  3617                           
  3618  0074                     ___wmul@product:	
  3619                           ; 1 bytes @ 0x4
  3620                           
  3621                           
  3622                           ; 2 bytes @ 0x4
  3623  0074                     	ds	1
  3624  0075                     ___awdiv@counter:	
  3625  0075                     ___awmod@counter:	
  3626                           ; 1 bytes @ 0x5
  3627                           
  3628                           
  3629                           ; 1 bytes @ 0x5
  3630  0075                     	ds	1
  3631  0076                     ?_LCDWrite:	
  3632  0076                     LCDWrite@data:	
  3633                           ; 1 bytes @ 0x6
  3634                           
  3635  0076                     ___awdiv@sign:	
  3636                           ; 1 bytes @ 0x6
  3637                           
  3638  0076                     ___awmod@sign:	
  3639                           ; 1 bytes @ 0x6
  3640                           
  3641                           
  3642                           ; 1 bytes @ 0x6
  3643  0076                     	ds	1
  3644  0077                     ??_LCDWrite:	
  3645  0077                     ___awdiv@quotient:	
  3646                           ; 1 bytes @ 0x7
  3647                           
  3648                           
  3649                           ; 2 bytes @ 0x7
  3650  0077                     	ds	1
  3651  0078                     LCDWrite@data_or_command:	
  3652                           
  3653                           ; 1 bytes @ 0x8
  3654  0078                     	ds	1
  3655  0079                     LCDWrite@d:	
  3656                           
  3657                           ; 1 bytes @ 0x9
  3658  0079                     	ds	1
  3659  007A                     LCDWrite@i:	
  3660                           
  3661                           ; 1 bytes @ 0xA
  3662  007A                     	ds	1
  3663  007B                     ?_gotoXY:	
  3664  007B                     ?_LCDBitmap:	
  3665                           ; 1 bytes @ 0xB
  3666                           
  3667  007B                     ??_LCDInit:	
  3668                           ; 1 bytes @ 0xB
  3669                           
  3670  007B                     gotoXY@y:	
  3671                           ; 1 bytes @ 0xB
  3672                           
  3673  007B                     LCD_Write_Character@character:	
  3674                           ; 1 bytes @ 0xB
  3675                           
  3676  007B                     LCDBitmap@my_array:	
  3677                           ; 1 bytes @ 0xB
  3678                           
  3679                           
  3680                           ; 2 bytes @ 0xB
  3681  007B                     	ds	1
  3682  007C                     ??_gotoXY:	
  3683  007C                     LCD_Write_Character@index:	
  3684                           ; 1 bytes @ 0xC
  3685                           
  3686                           
  3687                           ; 2 bytes @ 0xC
  3688  007C                     	ds	1
  3689  007D                     ??_LCDBitmap:	
  3690  007D                     gotoXY@x:	
  3691                           ; 1 bytes @ 0xD
  3692                           
  3693                           
  3694                           ; 1 bytes @ 0xD
  3695  007D                     	ds	1
  3696                           
  3697                           	psect	cstackBANK0
  3698  0020                     __pcstackBANK0:	
  3699  0020                     ??_LCD_Write_Character:	
  3700  0020                     ??_LCD_Clear:	
  3701                           ; 1 bytes @ 0x0
  3702                           
  3703  0020                     ??_drawBox:	
  3704                           ; 1 bytes @ 0x0
  3705                           
  3706  0020                     LCDBitmap@index:	
  3707                           ; 1 bytes @ 0x0
  3708                           
  3709                           
  3710                           ; 2 bytes @ 0x0
  3711  0020                     	ds	1
  3712  0021                     LCD_Clear@index:	
  3713  0021                     drawBox@j:	
  3714                           ; 2 bytes @ 0x1
  3715                           
  3716                           
  3717                           ; 2 bytes @ 0x1
  3718  0021                     	ds	4
  3719  0025                     ?_LCD_Write_String:	
  3720  0025                     ?_LCD_Write_Int:	
  3721                           ; 1 bytes @ 0x5
  3722                           
  3723  0025                     LCD_Write_String@characters:	
  3724                           ; 1 bytes @ 0x5
  3725                           
  3726  0025                     LCD_Write_Int@value:	
  3727                           ; 2 bytes @ 0x5
  3728                           
  3729                           
  3730                           ; 2 bytes @ 0x5
  3731  0025                     	ds	2
  3732  0027                     ??_LCD_Write_String:	
  3733  0027                     LCD_Write_Int@fieldLength:	
  3734                           ; 1 bytes @ 0x7
  3735                           
  3736                           
  3737                           ; 1 bytes @ 0x7
  3738  0027                     	ds	1
  3739  0028                     LCD_Write_Int@numPlaces:	
  3740                           
  3741                           ; 1 bytes @ 0x8
  3742  0028                     	ds	1
  3743  0029                     LCD_Write_Int@sign:	
  3744                           
  3745                           ; 1 bytes @ 0x9
  3746  0029                     	ds	1
  3747  002A                     ??_LCD_Write_Int:	
  3748                           
  3749                           ; 1 bytes @ 0xA
  3750  002A                     	ds	5
  3751  002F                     LCD_Write_Int@str:	
  3752                           
  3753                           ; 5 bytes @ 0xF
  3754  002F                     	ds	5
  3755  0034                     LCD_Write_Int@j:	
  3756                           
  3757                           ; 2 bytes @ 0x14
  3758  0034                     	ds	2
  3759  0036                     LCD_Write_Int@i:	
  3760                           
  3761                           ; 2 bytes @ 0x16
  3762  0036                     	ds	2
  3763  0038                     ??_main:	
  3764                           
  3765                           ; 1 bytes @ 0x18
  3766  0038                     	ds	3
  3767  003B                     main@count:	
  3768                           
  3769                           ; 2 bytes @ 0x1B
  3770  003B                     	ds	2
  3771  003D                     main@b:	
  3772                           
  3773                           ; 1 bytes @ 0x1D
  3774  003D                     	ds	1
  3775                           
  3776                           	psect	maintext
  3777  065D                     __pmaintext:	
  3778 ;;
  3779 ;;Main: autosize = 0, tempsize = 3, incstack = 0, save=0
  3780 ;;
  3781 ;; *************** function _main *****************
  3782 ;; Defined at:
  3783 ;;		line 11 in file "main.c"
  3784 ;; Parameters:    Size  Location     Type
  3785 ;;		None
  3786 ;; Auto vars:     Size  Location     Type
  3787 ;;  count           2   27[BANK0 ] unsigned int 
  3788 ;;  b               1   29[BANK0 ] unsigned char 
  3789 ;; Return value:  Size  Location     Type
  3790 ;;                  2  203[None  ] int 
  3791 ;; Registers used:
  3792 ;;		wreg, fsr0l, fsr0h, fsr1l, fsr1h, status,2, status,0, pclath, cstack
  3793 ;; Tracked objects:
  3794 ;;		On entry : B1F/0
  3795 ;;		On exit  : 0/0
  3796 ;;		Unchanged: 0/0
  3797 ;; Data sizes:     COMMON   BANK0   BANK1   BANK2   BANK3   BANK4   BANK5   BANK6   BANK7   BANK8   BANK9  BANK10  BANK1
      +1  BANK12
  3798 ;;      Params:         0       0       0       0       0       0       0       0       0       0       0       0       
      +0       0
  3799 ;;      Locals:         0       3       0       0       0       0       0       0       0       0       0       0       
      +0       0
  3800 ;;      Temps:          0       3       0       0       0       0       0       0       0       0       0       0       
      +0       0
  3801 ;;      Totals:         0       6       0       0       0       0       0       0       0       0       0       0       
      +0       0
  3802 ;;Total ram usage:        6 bytes
  3803 ;; Hardware stack levels required when called:    3
  3804 ;; This function calls:
  3805 ;;		_ADC_Read
  3806 ;;		_Init
  3807 ;;		_LCDBitmap
  3808 ;;		_LCDInit
  3809 ;;		_LCD_Clear
  3810 ;;		_LCD_Write_Int
  3811 ;;		_LCD_Write_String
  3812 ;;		_drawBox
  3813 ;;		_gotoXY
  3814 ;;		_readButton
  3815 ;; This function is called by:
  3816 ;;		Startup code after reset
  3817 ;; This function uses a non-reentrant model
  3818 ;;
  3819                           
  3820                           
  3821                           ;psect for function _main
  3822  065D                     _main:	
  3823                           
  3824                           ;main.c: 13: Init();
  3825                           
  3826                           ;incstack = 0
  3827                           ; Regs used in _main: [wreg-fsr1h+status,2+status,0+pclath+cstack]
  3828  065D  3183  2367  3186   	fcall	_Init
  3829                           
  3830                           ;main.c: 14: uint16_t count = 0;
  3831  0660  0020               	movlb	0	; select bank0
  3832  0661  01BB               	clrf	main@count
  3833  0662  01BC               	clrf	main@count+1
  3834                           
  3835                           ;main.c: 15: char b = 0;
  3836  0663  01BD               	clrf	main@b
  3837                           
  3838                           ;main.c: 18: LCDInit();
  3839  0664  3184  2448  3186   	fcall	_LCDInit
  3840                           
  3841                           ;main.c: 20: LCD_Clear();
  3842  0667  3184  2420  3186   	fcall	_LCD_Clear
  3843                           
  3844                           ;main.c: 21: LCDBitmap(coffee);
  3845  066A  302F               	movlw	low (_coffee| (0+32768))
  3846  066B  00FB               	movwf	LCDBitmap@my_array
  3847  066C  3089               	movlw	high (_coffee| (0+32768))
  3848  066D  00FC               	movwf	LCDBitmap@my_array+1
  3849  066E  3183  23D8  3186   	fcall	_LCDBitmap
  3850                           
  3851                           ;main.c: 22: _delay((unsigned long)((3000)*(1000000L/4000.0)));
  3852  0671  3004               	movlw	4
  3853  0672  0020               	movlb	0	; select bank0
  3854  0673  00BA               	movwf	??_main+2
  3855  0674  30CF               	movlw	207
  3856  0675  00B9               	movwf	??_main+1
  3857  0676  3003               	movlw	3
  3858  0677  00B8               	movwf	??_main
  3859  0678                     u1217:	
  3860  0678  0BB8               	decfsz	??_main,f
  3861  0679  2E78               	goto	u1217
  3862  067A  0BB9               	decfsz	??_main+1,f
  3863  067B  2E78               	goto	u1217
  3864  067C  0BBA               	decfsz	??_main+2,f
  3865  067D  2E78               	goto	u1217
  3866  067E  3200               	nop2
  3867                           
  3868                           ;main.c: 23: LCD_Clear();
  3869  067F  3184  2420  3186   	fcall	_LCD_Clear
  3870                           
  3871                           ;main.c: 24: drawBox();
  3872  0682  3185  25AD  3186   	fcall	_drawBox
  3873                           
  3874                           ;main.c: 28: { gotoXY(30,1); LCD_Write_String("A N D ,");};
  3875  0685  01FB               	clrf	gotoXY@y
  3876  0686  0AFB               	incf	gotoXY@y,f
  3877  0687  301E               	movlw	30
  3878  0688  3183  237A  3186   	fcall	_gotoXY
  3879  068B  3049               	movlw	low (STR_1| (0+32768))
  3880  068C  0020               	movlb	0	; select bank0
  3881  068D  00A5               	movwf	LCD_Write_String@characters
  3882  068E  308B               	movlw	high (STR_1| (0+32768))
  3883  068F  00A6               	movwf	LCD_Write_String@characters+1
  3884  0690  3183  238D  3186   	fcall	_LCD_Write_String
  3885                           
  3886                           ;main.c: 29: _delay((unsigned long)((1000)*(1000000L/4000.0)));
  3887  0693  3002               	movlw	2
  3888  0694  0020               	movlb	0	; select bank0
  3889  0695  00BA               	movwf	??_main+2
  3890  0696  3045               	movlw	69
  3891  0697  00B9               	movwf	??_main+1
  3892  0698  30A9               	movlw	169
  3893  0699  00B8               	movwf	??_main
  3894  069A                     u1227:	
  3895  069A  0BB8               	decfsz	??_main,f
  3896  069B  2E9A               	goto	u1227
  3897  069C  0BB9               	decfsz	??_main+1,f
  3898  069D  2E9A               	goto	u1227
  3899  069E  0BBA               	decfsz	??_main+2,f
  3900  069F  2E9A               	goto	u1227
  3901  06A0  3200               	nop2
  3902                           
  3903                           ;main.c: 30: gotoXY(8,3);
  3904  06A1  3003               	movlw	3
  3905  06A2  0020               	movlb	0	; select bank0
  3906  06A3  00B8               	movwf	??_main
  3907  06A4  0838               	movf	??_main,w
  3908  06A5  00FB               	movwf	gotoXY@y
  3909  06A6  3008               	movlw	8
  3910  06A7  3183  237A  3186   	fcall	_gotoXY
  3911                           
  3912                           ;main.c: 32: LCD_Write_String("Layne Sucks COCK!!");
  3913  06AA  3027               	movlw	low (STR_2| (0+32768))
  3914  06AB  0020               	movlb	0	; select bank0
  3915  06AC  00A5               	movwf	LCD_Write_String@characters
  3916  06AD  308B               	movlw	high (STR_2| (0+32768))
  3917  06AE  00A6               	movwf	LCD_Write_String@characters+1
  3918  06AF  3183  238D  3186   	fcall	_LCD_Write_String
  3919                           
  3920                           ;main.c: 33: gotoXY(8,4);
  3921  06B2  3004               	movlw	4
  3922  06B3  0020               	movlb	0	; select bank0
  3923  06B4  00B8               	movwf	??_main
  3924  06B5  0838               	movf	??_main,w
  3925  06B6  00FB               	movwf	gotoXY@y
  3926  06B7  3008               	movlw	8
  3927  06B8  3183  237A  3186   	fcall	_gotoXY
  3928                           
  3929                           ;main.c: 34: LCD_Write_String("and Likes it!!");
  3930  06BB  303A               	movlw	low (STR_3| (0+32768))
  3931  06BC  0020               	movlb	0	; select bank0
  3932  06BD  00A5               	movwf	LCD_Write_String@characters
  3933  06BE  308B               	movlw	high (STR_3| (0+32768))
  3934  06BF  00A6               	movwf	LCD_Write_String@characters+1
  3935  06C0  3183  238D  3186   	fcall	_LCD_Write_String
  3936                           
  3937                           ;main.c: 36: _delay((unsigned long)((2000)*(1000000L/4000.0)));
  3938  06C3  3003               	movlw	3
  3939  06C4  0020               	movlb	0	; select bank0
  3940  06C5  00BA               	movwf	??_main+2
  3941  06C6  308A               	movlw	138
  3942  06C7  00B9               	movwf	??_main+1
  3943  06C8  3056               	movlw	86
  3944  06C9  00B8               	movwf	??_main
  3945  06CA                     u1237:	
  3946  06CA  0BB8               	decfsz	??_main,f
  3947  06CB  2ECA               	goto	u1237
  3948  06CC  0BB9               	decfsz	??_main+1,f
  3949  06CD  2ECA               	goto	u1237
  3950  06CE  0BBA               	decfsz	??_main+2,f
  3951  06CF  2ECA               	goto	u1237
  3952  06D0  3200               	nop2
  3953                           
  3954                           ;main.c: 38: LCD_Clear();
  3955  06D1  3184  2420  3186   	fcall	_LCD_Clear
  3956  06D4  2EEC               	goto	l1463
  3957  06D5                     l1475:	
  3958                           
  3959                           ;main.c: 52: {
  3960                           ;main.c: 53: { gotoXY(1,1); LCD_Write_Int(b,5, 0, 0);};
  3961  06D5  01FB               	clrf	gotoXY@y
  3962  06D6  0AFB               	incf	gotoXY@y,f
  3963  06D7  3001               	movlw	1
  3964  06D8  3183  237A  3186   	fcall	_gotoXY
  3965  06DB  0020               	movlb	0	; select bank0
  3966  06DC  083D               	movf	main@b,w
  3967  06DD                     L1:	
  3968  06DD  00B8               	movwf	??_main
  3969  06DE  01B9               	clrf	??_main+1
  3970  06DF  0838               	movf	??_main,w
  3971  06E0  00A5               	movwf	LCD_Write_Int@value
  3972  06E1  0839               	movf	??_main+1,w
  3973  06E2  00A6               	movwf	LCD_Write_Int@value+1
  3974  06E3  3005               	movlw	5
  3975  06E4  00BA               	movwf	??_main+2
  3976  06E5  083A               	movf	??_main+2,w
  3977  06E6  00A7               	movwf	LCD_Write_Int@fieldLength
  3978  06E7  01A8               	clrf	LCD_Write_Int@numPlaces
  3979  06E8  01A9               	clrf	LCD_Write_Int@sign
  3980  06E9  3187  2727  3186   	fcall	_LCD_Write_Int
  3981  06EC                     l1463:	
  3982                           ;main.c: 39: while(1)
  3983                           
  3984                           ;main.c: 54: }
  3985                           
  3986                           
  3987                           ;main.c: 40: {
  3988                           ;main.c: 44: { gotoXY(0,0); LCD_Write_Int(count,-1, 0, 0);};
  3989  06EC  01FB               	clrf	gotoXY@y
  3990  06ED  3000               	movlw	0
  3991  06EE  3183  237A  3186   	fcall	_gotoXY
  3992  06F1  0020               	movlb	0	; select bank0
  3993  06F2  083C               	movf	main@count+1,w
  3994  06F3  00A6               	movwf	LCD_Write_Int@value+1
  3995  06F4  083B               	movf	main@count,w
  3996  06F5  00A5               	movwf	LCD_Write_Int@value
  3997  06F6  01A7               	clrf	LCD_Write_Int@fieldLength
  3998  06F7  03A7               	decf	LCD_Write_Int@fieldLength,f
  3999  06F8  01A8               	clrf	LCD_Write_Int@numPlaces
  4000  06F9  01A9               	clrf	LCD_Write_Int@sign
  4001  06FA  3187  2727  3186   	fcall	_LCD_Write_Int
  4002                           
  4003                           ;main.c: 45: LCD_Write_String("     ");
  4004  06FD  3051               	movlw	low (STR_4| (0+32768))
  4005  06FE  0020               	movlb	0	; select bank0
  4006  06FF  00A5               	movwf	LCD_Write_String@characters
  4007  0700  308B               	movlw	high (STR_4| (0+32768))
  4008  0701  00A6               	movwf	LCD_Write_String@characters+1
  4009  0702  3183  238D  3186   	fcall	_LCD_Write_String
  4010                           
  4011                           ;main.c: 47: count = ADC_Read(0);
  4012  0705  3000               	movlw	0
  4013  0706  3183  2359  3186   	fcall	_ADC_Read
  4014  0709  0871               	movf	?_ADC_Read+1,w
  4015  070A  0020               	movlb	0	; select bank0
  4016  070B  00BC               	movwf	main@count+1
  4017  070C  0870               	movf	?_ADC_Read,w
  4018  070D  00BB               	movwf	main@count
  4019                           
  4020                           ;main.c: 49: b = readButton();
  4021  070E  3184  24C8  3186   	fcall	_readButton
  4022  0711  0020               	movlb	0	; select bank0
  4023  0712  00B8               	movwf	??_main
  4024  0713  0838               	movf	??_main,w
  4025  0714  00BD               	movwf	main@b
  4026                           
  4027                           ;main.c: 51: if(b == 2)
  4028  0715  3002               	movlw	2
  4029  0716  063D               	xorwf	main@b,w
  4030  0717  1903               	btfsc	3,2
  4031  0718  2ED5               	goto	l1475
  4032                           
  4033                           ;main.c: 55: else
  4034                           ;main.c: 56: {
  4035                           ;main.c: 57: { gotoXY(1,2); LCD_Write_Int(readButton(),5, 0, 0);};
  4036  0719  3002               	movlw	2
  4037  071A  0020               	movlb	0	; select bank0
  4038  071B  00B8               	movwf	??_main
  4039  071C  0838               	movf	??_main,w
  4040  071D  00FB               	movwf	gotoXY@y
  4041  071E  3001               	movlw	1
  4042  071F  3183  237A  3186   	fcall	_gotoXY
  4043  0722  3184  24C8  3186   	fcall	_readButton
  4044  0725  0020               	movlb	0	; select bank0
  4045  0726  2EDD               	goto	L1
  4046  0727                     __end_of_main:	
  4047                           ;main.c: 58: }
  4048                           ;main.c: 59: }
  4049                           ;main.c: 60: return (1);
  4050                           ;	Return value of _main is never used
  4051                           
  4052                           
  4053                           	psect	text1
  4054  04C8                     __ptext1:	
  4055 ;; *************** function _readButton *****************
  4056 ;; Defined at:
  4057 ;;		line 7 in file "buttons.c"
  4058 ;; Parameters:    Size  Location     Type
  4059 ;;		None
  4060 ;; Auto vars:     Size  Location     Type
  4061 ;;		None
  4062 ;; Return value:  Size  Location     Type
  4063 ;;                  1    wreg      unsigned char 
  4064 ;; Registers used:
  4065 ;;		wreg, status,2, pclath, cstack
  4066 ;; Tracked objects:
  4067 ;;		On entry : 0/0
  4068 ;;		On exit  : 0/0
  4069 ;;		Unchanged: 0/0
  4070 ;; Data sizes:     COMMON   BANK0   BANK1   BANK2   BANK3   BANK4   BANK5   BANK6   BANK7   BANK8   BANK9  BANK10  BANK1
      +1  BANK12
  4071 ;;      Params:         0       0       0       0       0       0       0       0       0       0       0       0       
      +0       0
  4072 ;;      Locals:         0       0       0       0       0       0       0       0       0       0       0       0       
      +0       0
  4073 ;;      Temps:          1       0       0       0       0       0       0       0       0       0       0       0       
      +0       0
  4074 ;;      Totals:         1       0       0       0       0       0       0       0       0       0       0       0       
      +0       0
  4075 ;;Total ram usage:        1 bytes
  4076 ;; Hardware stack levels used:    1
  4077 ;; Hardware stack levels required when called:    1
  4078 ;; This function calls:
  4079 ;;		_ADC_Read
  4080 ;; This function is called by:
  4081 ;;		_main
  4082 ;; This function uses a non-reentrant model
  4083 ;;
  4084                           
  4085                           
  4086                           ;psect for function _readButton
  4087  04C8                     _readButton:	
  4088                           
  4089                           ;buttons.c: 9: readButtons = ADC_Read(0);
  4090                           
  4091                           ;incstack = 0
  4092                           ; Regs used in _readButton: [wreg+status,2+pclath+cstack]
  4093  04C8  3000               	movlw	0
  4094  04C9  3183  2359  3184   	fcall	_ADC_Read
  4095  04CC  0871               	movf	?_ADC_Read+1,w
  4096  04CD  0020               	movlb	0	; select bank0
  4097  04CE  00C4               	movwf	_readButtons+1
  4098  04CF  0870               	movf	?_ADC_Read,w
  4099  04D0  00C3               	movwf	_readButtons
  4100                           
  4101                           ;buttons.c: 11: if(readButtons > 400 && readButtons < 500)
  4102  04D1  3001               	movlw	1
  4103  04D2  0244               	subwf	_readButtons+1,w
  4104  04D3  3091               	movlw	145
  4105  04D4  1903               	skipnz
  4106  04D5  0243               	subwf	_readButtons,w
  4107  04D6  1C03               	skipc
  4108  04D7  2CE2               	goto	l1413
  4109  04D8  3001               	movlw	1
  4110  04D9  0244               	subwf	_readButtons+1,w
  4111  04DA  30F4               	movlw	244
  4112  04DB  1903               	skipnz
  4113  04DC  0243               	subwf	_readButtons,w
  4114  04DD  1803               	skipnc
  4115  04DE  2CE2               	goto	l1413
  4116                           
  4117                           ;buttons.c: 12: {
  4118                           ;buttons.c: 13: button = 1;
  4119  04DF  01C5               	clrf	_button
  4120  04E0  0AC5               	incf	_button,f
  4121                           
  4122                           ;buttons.c: 14: }
  4123  04E1  2D0F               	goto	l1431
  4124  04E2                     l1413:	
  4125                           
  4126                           ;buttons.c: 16: else if(readButtons > 500 && readButtons < 600)
  4127  04E2  3001               	movlw	1
  4128  04E3  0244               	subwf	_readButtons+1,w
  4129  04E4  30F5               	movlw	245
  4130  04E5  1903               	skipnz
  4131  04E6  0243               	subwf	_readButtons,w
  4132  04E7  1C03               	skipc
  4133  04E8  2CF2               	goto	l1419
  4134  04E9  3002               	movlw	2
  4135  04EA  0244               	subwf	_readButtons+1,w
  4136  04EB  3058               	movlw	88
  4137  04EC  1903               	skipnz
  4138  04ED  0243               	subwf	_readButtons,w
  4139  04EE  1803               	skipnc
  4140  04EF  2CF2               	goto	l1419
  4141                           
  4142                           ;buttons.c: 17: {
  4143                           ;buttons.c: 18: button = 2;
  4144  04F0  3002               	movlw	2
  4145  04F1  2D0A               	goto	L3
  4146  04F2                     l1419:	
  4147                           ;buttons.c: 19: }
  4148                           
  4149                           
  4150                           ;buttons.c: 21: else if(readButtons > 700 && readButtons < 800)
  4151  04F2  3002               	movlw	2
  4152  04F3  0244               	subwf	_readButtons+1,w
  4153  04F4  30BD               	movlw	189
  4154  04F5  1903               	skipnz
  4155  04F6  0243               	subwf	_readButtons,w
  4156  04F7  1C03               	skipc
  4157  04F8  2D02               	goto	l1425
  4158  04F9  3003               	movlw	3
  4159  04FA  0244               	subwf	_readButtons+1,w
  4160  04FB  3020               	movlw	32
  4161  04FC  1903               	skipnz
  4162  04FD  0243               	subwf	_readButtons,w
  4163  04FE  1803               	skipnc
  4164  04FF  2D02               	goto	l1425
  4165                           
  4166                           ;buttons.c: 22: {
  4167                           ;buttons.c: 23: button = 3;
  4168  0500  3003               	movlw	3
  4169  0501  2D0A               	goto	L3
  4170  0502                     l1425:	
  4171                           ;buttons.c: 24: }
  4172                           
  4173                           
  4174                           ;buttons.c: 26: else if(readButtons > 900)
  4175  0502  3003               	movlw	3
  4176  0503  0244               	subwf	_readButtons+1,w
  4177  0504  3085               	movlw	133
  4178  0505  1903               	skipnz
  4179  0506  0243               	subwf	_readButtons,w
  4180  0507  1C03               	skipc
  4181  0508  2D0E               	goto	l1429
  4182                           
  4183                           ;buttons.c: 27: {
  4184                           ;buttons.c: 28: button = 4;
  4185  0509  3004               	movlw	4
  4186  050A                     L3:	
  4187  050A  00F4               	movwf	??_readButton
  4188  050B  0874               	movf	??_readButton,w
  4189  050C  00C5               	movwf	_button
  4190                           
  4191                           ;buttons.c: 29: }
  4192  050D  2D0F               	goto	l1431
  4193  050E                     l1429:	
  4194                           
  4195                           ;buttons.c: 31: else
  4196                           ;buttons.c: 32: {
  4197                           ;buttons.c: 33: button = 0;
  4198  050E  01C5               	clrf	_button
  4199  050F                     l1431:	
  4200                           
  4201                           ;buttons.c: 34: }
  4202                           ;buttons.c: 35: return (button);
  4203  050F  0845               	movf	_button,w
  4204  0510  0008               	return
  4205  0511                     __end_of_readButton:	
  4206                           
  4207                           	psect	text2
  4208  0359                     __ptext2:	
  4209 ;; *************** function _ADC_Read *****************
  4210 ;; Defined at:
  4211 ;;		line 51 in file "adcc.c"
  4212 ;; Parameters:    Size  Location     Type
  4213 ;;  channel         1    wreg     enum E13559
  4214 ;; Auto vars:     Size  Location     Type
  4215 ;;  channel         1    3[COMMON] enum E13559
  4216 ;; Return value:  Size  Location     Type
  4217 ;;                  2    0[COMMON] unsigned int 
  4218 ;; Registers used:
  4219 ;;		wreg
  4220 ;; Tracked objects:
  4221 ;;		On entry : 0/0
  4222 ;;		On exit  : 0/0
  4223 ;;		Unchanged: 0/0
  4224 ;; Data sizes:     COMMON   BANK0   BANK1   BANK2   BANK3   BANK4   BANK5   BANK6   BANK7   BANK8   BANK9  BANK10  BANK1
      +1  BANK12
  4225 ;;      Params:         3       0       0       0       0       0       0       0       0       0       0       0       
      +0       0
  4226 ;;      Locals:         1       0       0       0       0       0       0       0       0       0       0       0       
      +0       0
  4227 ;;      Temps:          0       0       0       0       0       0       0       0       0       0       0       0       
      +0       0
  4228 ;;      Totals:         4       0       0       0       0       0       0       0       0       0       0       0       
      +0       0
  4229 ;;Total ram usage:        4 bytes
  4230 ;; Hardware stack levels used:    1
  4231 ;; This function calls:
  4232 ;;		Nothing
  4233 ;; This function is called by:
  4234 ;;		_readButton
  4235 ;;		_main
  4236 ;; This function uses a non-reentrant model
  4237 ;;
  4238                           
  4239                           
  4240                           ;psect for function _ADC_Read
  4241  0359                     _ADC_Read:	
  4242                           
  4243                           ;incstack = 0
  4244                           ; Regs used in _ADC_Read: [wreg]
  4245                           ;ADC_Read@channel stored from wreg
  4246  0359  00F3               	movwf	ADC_Read@channel
  4247                           
  4248                           ;adcc.c: 54: ADPCH = channel;
  4249  035A  0873               	movf	ADC_Read@channel,w
  4250  035B  0021               	movlb	1	; select bank1
  4251  035C  009E               	movwf	30	;volatile
  4252                           
  4253                           ;adcc.c: 57: ADCON0bits.ADON = 1;
  4254  035D  1793               	bsf	19,7	;volatile
  4255                           
  4256                           ;adcc.c: 60: ADCON0bits.ADCONT = 0;
  4257  035E  1313               	bcf	19,6	;volatile
  4258                           
  4259                           ;adcc.c: 63: ADCON0bits.ADGO = 1;
  4260  035F  1413               	bsf	19,0	;volatile
  4261  0360                     l50:	
  4262                           ;adcc.c: 67: {
  4263                           
  4264                           ;adcc.c: 66: while (ADCON0bits.ADGO)
  4265                           
  4266  0360  1813               	btfsc	19,0	;volatile
  4267  0361  2B60               	goto	l50
  4268                           
  4269                           ;adcc.c: 68: }
  4270                           ;adcc.c: 71: return ((ADRESH << 8) + ADRESL);
  4271  0362  080D               	movf	13,w	;volatile
  4272  0363  00F1               	movwf	?_ADC_Read+1
  4273  0364  080C               	movf	12,w	;volatile
  4274  0365  00F0               	movwf	?_ADC_Read
  4275  0366  0008               	return
  4276  0367                     __end_of_ADC_Read:	
  4277                           
  4278                           	psect	text3
  4279  05AD                     __ptext3:	
  4280 ;; *************** function _drawBox *****************
  4281 ;; Defined at:
  4282 ;;		line 392 in file "lcd.c"
  4283 ;; Parameters:    Size  Location     Type
  4284 ;;		None
  4285 ;; Auto vars:     Size  Location     Type
  4286 ;;  j               2    1[BANK0 ] int 
  4287 ;; Return value:  Size  Location     Type
  4288 ;;                  1    wreg      void 
  4289 ;; Registers used:
  4290 ;;		wreg, status,2, status,0, pclath, cstack
  4291 ;; Tracked objects:
  4292 ;;		On entry : 0/0
  4293 ;;		On exit  : 0/0
  4294 ;;		Unchanged: 0/0
  4295 ;; Data sizes:     COMMON   BANK0   BANK1   BANK2   BANK3   BANK4   BANK5   BANK6   BANK7   BANK8   BANK9  BANK10  BANK1
      +1  BANK12
  4296 ;;      Params:         0       0       0       0       0       0       0       0       0       0       0       0       
      +0       0
  4297 ;;      Locals:         0       2       0       0       0       0       0       0       0       0       0       0       
      +0       0
  4298 ;;      Temps:          0       1       0       0       0       0       0       0       0       0       0       0       
      +0       0
  4299 ;;      Totals:         0       3       0       0       0       0       0       0       0       0       0       0       
      +0       0
  4300 ;;Total ram usage:        3 bytes
  4301 ;; Hardware stack levels used:    1
  4302 ;; Hardware stack levels required when called:    2
  4303 ;; This function calls:
  4304 ;;		_LCDWrite
  4305 ;;		_gotoXY
  4306 ;; This function is called by:
  4307 ;;		_main
  4308 ;; This function uses a non-reentrant model
  4309 ;;
  4310                           
  4311                           
  4312                           ;psect for function _drawBox
  4313  05AD                     _drawBox:	
  4314                           
  4315                           ;lcd.c: 394: int j;
  4316                           ;lcd.c: 396: for(j = 0; j < 84; j++)
  4317                           
  4318                           ;incstack = 0
  4319                           ; Regs used in _drawBox: [wreg+status,2+status,0+pclath+cstack]
  4320  05AD  0020               	movlb	0	; select bank0
  4321  05AE  01A1               	clrf	drawBox@j
  4322  05AF  01A2               	clrf	drawBox@j+1
  4323  05B0  0822               	movf	drawBox@j+1,w
  4324  05B1  3A80               	xorlw	128
  4325  05B2  00A0               	movwf	??_drawBox
  4326  05B3  3080               	movlw	128
  4327  05B4  0220               	subwf	??_drawBox,w
  4328  05B5  1D03               	skipz
  4329  05B6  2DB9               	goto	u1055
  4330  05B7  3054               	movlw	84
  4331  05B8  0221               	subwf	drawBox@j,w
  4332  05B9                     u1055:	
  4333  05B9  1803               	btfsc	3,0
  4334  05BA  2DD7               	goto	l1351
  4335  05BB                     l1345:	
  4336                           
  4337                           ;lcd.c: 397: {
  4338                           ;lcd.c: 398: gotoXY(j, 0);
  4339  05BB  01FB               	clrf	gotoXY@y
  4340  05BC  0020               	movlb	0	; select bank0
  4341  05BD  0821               	movf	drawBox@j,w
  4342  05BE  3183  237A  3185   	fcall	_gotoXY
  4343                           
  4344                           ;lcd.c: 399: LCDWrite(1,0x01);
  4345  05C1  01F6               	clrf	LCDWrite@data
  4346  05C2  0AF6               	incf	LCDWrite@data,f
  4347  05C3  3001               	movlw	1
  4348  05C4  3183  23FB  3185   	fcall	_LCDWrite
  4349  05C7  3001               	movlw	1
  4350  05C8  0020               	movlb	0	; select bank0
  4351  05C9  07A1               	addwf	drawBox@j,f
  4352  05CA  3000               	movlw	0
  4353  05CB  3DA2               	addwfc	drawBox@j+1,f
  4354  05CC  0822               	movf	drawBox@j+1,w
  4355  05CD  3A80               	xorlw	128
  4356  05CE  00A0               	movwf	??_drawBox
  4357  05CF  3080               	movlw	128
  4358  05D0  0220               	subwf	??_drawBox,w
  4359  05D1  1D03               	skipz
  4360  05D2  2DD5               	goto	u1065
  4361  05D3  3054               	movlw	84
  4362  05D4  0221               	subwf	drawBox@j,w
  4363  05D5                     u1065:	
  4364  05D5  1C03               	skipc
  4365  05D6  2DBB               	goto	l1345
  4366  05D7                     l1351:	
  4367                           
  4368                           ;lcd.c: 400: }
  4369                           ;lcd.c: 402: for(j = 0; j < 84; j++)
  4370  05D7  0020               	movlb	0	; select bank0
  4371  05D8  01A1               	clrf	drawBox@j
  4372  05D9  01A2               	clrf	drawBox@j+1
  4373  05DA  0822               	movf	drawBox@j+1,w
  4374  05DB  3A80               	xorlw	128
  4375  05DC  00A0               	movwf	??_drawBox
  4376  05DD  3080               	movlw	128
  4377  05DE  0220               	subwf	??_drawBox,w
  4378  05DF  1D03               	skipz
  4379  05E0  2DE3               	goto	u1075
  4380  05E1  3054               	movlw	84
  4381  05E2  0221               	subwf	drawBox@j,w
  4382  05E3                     u1075:	
  4383  05E3  1803               	btfsc	3,0
  4384  05E4  2E07               	goto	l1363
  4385  05E5                     l1357:	
  4386                           
  4387                           ;lcd.c: 403: {
  4388                           ;lcd.c: 404: gotoXY(j, 5);
  4389  05E5  3005               	movlw	5
  4390  05E6  0020               	movlb	0	; select bank0
  4391  05E7  00A0               	movwf	??_drawBox
  4392  05E8  0820               	movf	??_drawBox,w
  4393  05E9  00FB               	movwf	gotoXY@y
  4394  05EA  0821               	movf	drawBox@j,w
  4395  05EB  3183  237A  3185   	fcall	_gotoXY
  4396                           
  4397                           ;lcd.c: 405: LCDWrite(1,0x80);
  4398  05EE  3080               	movlw	128
  4399  05EF  0020               	movlb	0	; select bank0
  4400  05F0  00A0               	movwf	??_drawBox
  4401  05F1  0820               	movf	??_drawBox,w
  4402  05F2  00F6               	movwf	LCDWrite@data
  4403  05F3  3001               	movlw	1
  4404  05F4  3183  23FB  3185   	fcall	_LCDWrite
  4405  05F7  3001               	movlw	1
  4406  05F8  0020               	movlb	0	; select bank0
  4407  05F9  07A1               	addwf	drawBox@j,f
  4408  05FA  3000               	movlw	0
  4409  05FB  3DA2               	addwfc	drawBox@j+1,f
  4410  05FC  0822               	movf	drawBox@j+1,w
  4411  05FD  3A80               	xorlw	128
  4412  05FE  00A0               	movwf	??_drawBox
  4413  05FF  3080               	movlw	128
  4414  0600  0220               	subwf	??_drawBox,w
  4415  0601  1D03               	skipz
  4416  0602  2E05               	goto	u1085
  4417  0603  3054               	movlw	84
  4418  0604  0221               	subwf	drawBox@j,w
  4419  0605                     u1085:	
  4420  0605  1C03               	skipc
  4421  0606  2DE5               	goto	l1357
  4422  0607                     l1363:	
  4423                           
  4424                           ;lcd.c: 406: }
  4425                           ;lcd.c: 408: for(j = 0; j < 6; j++)
  4426  0607  0020               	movlb	0	; select bank0
  4427  0608  01A1               	clrf	drawBox@j
  4428  0609  01A2               	clrf	drawBox@j+1
  4429  060A  0822               	movf	drawBox@j+1,w
  4430  060B  3A80               	xorlw	128
  4431  060C  00A0               	movwf	??_drawBox
  4432  060D  3080               	movlw	128
  4433  060E  0220               	subwf	??_drawBox,w
  4434  060F  1D03               	skipz
  4435  0610  2E13               	goto	u1095
  4436  0611  3006               	movlw	6
  4437  0612  0221               	subwf	drawBox@j,w
  4438  0613                     u1095:	
  4439  0613  1803               	btfsc	3,0
  4440  0614  2E37               	goto	l1375
  4441  0615                     l1369:	
  4442                           
  4443                           ;lcd.c: 409: {
  4444                           ;lcd.c: 410: gotoXY(83, j);
  4445  0615  0020               	movlb	0	; select bank0
  4446  0616  0821               	movf	drawBox@j,w
  4447  0617  00A0               	movwf	??_drawBox
  4448  0618  0820               	movf	??_drawBox,w
  4449  0619  00FB               	movwf	gotoXY@y
  4450  061A  3053               	movlw	83
  4451  061B  3183  237A  3185   	fcall	_gotoXY
  4452                           
  4453                           ;lcd.c: 411: LCDWrite(1,0xff);
  4454  061E  30FF               	movlw	255
  4455  061F  0020               	movlb	0	; select bank0
  4456  0620  00A0               	movwf	??_drawBox
  4457  0621  0820               	movf	??_drawBox,w
  4458  0622  00F6               	movwf	LCDWrite@data
  4459  0623  3001               	movlw	1
  4460  0624  3183  23FB  3185   	fcall	_LCDWrite
  4461  0627  3001               	movlw	1
  4462  0628  0020               	movlb	0	; select bank0
  4463  0629  07A1               	addwf	drawBox@j,f
  4464  062A  3000               	movlw	0
  4465  062B  3DA2               	addwfc	drawBox@j+1,f
  4466  062C  0822               	movf	drawBox@j+1,w
  4467  062D  3A80               	xorlw	128
  4468  062E  00A0               	movwf	??_drawBox
  4469  062F  3080               	movlw	128
  4470  0630  0220               	subwf	??_drawBox,w
  4471  0631  1D03               	skipz
  4472  0632  2E35               	goto	u1105
  4473  0633  3006               	movlw	6
  4474  0634  0221               	subwf	drawBox@j,w
  4475  0635                     u1105:	
  4476  0635  1C03               	skipc
  4477  0636  2E15               	goto	l1369
  4478  0637                     l1375:	
  4479                           
  4480                           ;lcd.c: 412: }
  4481                           ;lcd.c: 414: for(j = 0; j < 6; j++)
  4482  0637  0020               	movlb	0	; select bank0
  4483  0638  01A1               	clrf	drawBox@j
  4484  0639  01A2               	clrf	drawBox@j+1
  4485  063A                     L4:	
  4486  063A  0822               	movf	drawBox@j+1,w
  4487  063B  3A80               	xorlw	128
  4488  063C  00A0               	movwf	??_drawBox
  4489  063D  3080               	movlw	128
  4490  063E  0220               	subwf	??_drawBox,w
  4491  063F  1D03               	skipz
  4492  0640  2E43               	goto	u1115
  4493  0641  3006               	movlw	6
  4494  0642  0221               	subwf	drawBox@j,w
  4495  0643                     u1115:	
  4496  0643  1803               	btfsc	3,0
  4497  0644  0008               	return
  4498                           
  4499                           ;lcd.c: 415: {
  4500                           ;lcd.c: 416: gotoXY(0, j);
  4501  0645  0020               	movlb	0	; select bank0
  4502  0646  0821               	movf	drawBox@j,w
  4503  0647  00A0               	movwf	??_drawBox
  4504  0648  0820               	movf	??_drawBox,w
  4505  0649  00FB               	movwf	gotoXY@y
  4506  064A  3000               	movlw	0
  4507  064B  3183  237A  3185   	fcall	_gotoXY
  4508                           
  4509                           ;lcd.c: 417: LCDWrite(1,0xff);
  4510  064E  30FF               	movlw	255
  4511  064F  0020               	movlb	0	; select bank0
  4512  0650  00A0               	movwf	??_drawBox
  4513  0651  0820               	movf	??_drawBox,w
  4514  0652  00F6               	movwf	LCDWrite@data
  4515  0653  3001               	movlw	1
  4516  0654  3183  23FB  3185   	fcall	_LCDWrite
  4517  0657  3001               	movlw	1
  4518  0658  0020               	movlb	0	; select bank0
  4519  0659  07A1               	addwf	drawBox@j,f
  4520  065A  3000               	movlw	0
  4521  065B  3DA2               	addwfc	drawBox@j+1,f
  4522  065C  2E3A               	goto	L4
  4523  065D                     __end_of_drawBox:	
  4524                           
  4525                           	psect	text4
  4526  038D                     __ptext4:	
  4527 ;; *************** function _LCD_Write_String *****************
  4528 ;; Defined at:
  4529 ;;		line 257 in file "lcd.c"
  4530 ;; Parameters:    Size  Location     Type
  4531 ;;  characters      2    5[BANK0 ] PTR const unsigned char 
  4532 ;;		 -> STR_4(6), STR_3(15), STR_2(19), STR_1(8), 
  4533 ;; Auto vars:     Size  Location     Type
  4534 ;;		None
  4535 ;; Return value:  Size  Location     Type
  4536 ;;                  1    wreg      void 
  4537 ;; Registers used:
  4538 ;;		wreg, fsr0l, fsr0h, status,2, status,0, pclath, cstack
  4539 ;; Tracked objects:
  4540 ;;		On entry : 0/0
  4541 ;;		On exit  : 0/0
  4542 ;;		Unchanged: 0/0
  4543 ;; Data sizes:     COMMON   BANK0   BANK1   BANK2   BANK3   BANK4   BANK5   BANK6   BANK7   BANK8   BANK9  BANK10  BANK1
      +1  BANK12
  4544 ;;      Params:         0       2       0       0       0       0       0       0       0       0       0       0       
      +0       0
  4545 ;;      Locals:         0       0       0       0       0       0       0       0       0       0       0       0       
      +0       0
  4546 ;;      Temps:          0       1       0       0       0       0       0       0       0       0       0       0       
      +0       0
  4547 ;;      Totals:         0       3       0       0       0       0       0       0       0       0       0       0       
      +0       0
  4548 ;;Total ram usage:        3 bytes
  4549 ;; Hardware stack levels used:    1
  4550 ;; Hardware stack levels required when called:    2
  4551 ;; This function calls:
  4552 ;;		_LCD_Write_Character
  4553 ;; This function is called by:
  4554 ;;		_main
  4555 ;; This function uses a non-reentrant model
  4556 ;;
  4557                           
  4558                           
  4559                           ;psect for function _LCD_Write_String
  4560  038D                     _LCD_Write_String:	
  4561  038D                     l1269:	
  4562                           ;lcd.c: 259: while (*characters)
  4563                           
  4564                           ;incstack = 0
  4565                           ; Regs used in _LCD_Write_String: [wreg-fsr0h+status,2+status,0+pclath+cstack]
  4566                           
  4567  038D  0020               	movlb	0	; select bank0
  4568  038E  0825               	movf	LCD_Write_String@characters,w
  4569  038F  0084               	movwf	4
  4570  0390  0826               	movf	LCD_Write_String@characters+1,w
  4571  0391  0085               	movwf	5
  4572  0392  0012               	moviw fsr0++
  4573  0393  1903               	btfsc	3,2
  4574  0394  0008               	return
  4575                           
  4576                           ;lcd.c: 260: LCD_Write_Character(*characters++);
  4577  0395  0020               	movlb	0	; select bank0
  4578  0396  0825               	movf	LCD_Write_String@characters,w
  4579  0397  0084               	movwf	4
  4580  0398  0826               	movf	LCD_Write_String@characters+1,w
  4581  0399  0085               	movwf	5
  4582  039A  0800               	movf	0,w	;code access
  4583  039B  3185  2511  3183   	fcall	_LCD_Write_Character
  4584  039E  3001               	movlw	1
  4585  039F  0020               	movlb	0	; select bank0
  4586  03A0  07A5               	addwf	LCD_Write_String@characters,f
  4587  03A1  3000               	movlw	0
  4588  03A2  3DA6               	addwfc	LCD_Write_String@characters+1,f
  4589  03A3  2B8D               	goto	l1269
  4590  03A4                     __end_of_LCD_Write_String:	
  4591                           
  4592                           	psect	text5
  4593  0727                     __ptext5:	
  4594 ;; *************** function _LCD_Write_Int *****************
  4595 ;; Defined at:
  4596 ;;		line 271 in file "lcd.c"
  4597 ;; Parameters:    Size  Location     Type
  4598 ;;  value           2    5[BANK0 ] int 
  4599 ;;  fieldLength     1    7[BANK0 ] char 
  4600 ;;  numPlaces       1    8[BANK0 ] char 
  4601 ;;  sign            1    9[BANK0 ] char 
  4602 ;; Auto vars:     Size  Location     Type
  4603 ;;  str             5   15[BANK0 ] unsigned char [5]
  4604 ;;  i               2   22[BANK0 ] int 
  4605 ;;  j               2   20[BANK0 ] int 
  4606 ;; Return value:  Size  Location     Type
  4607 ;;                  1    wreg      void 
  4608 ;; Registers used:
  4609 ;;		wreg, fsr0l, fsr0h, fsr1l, fsr1h, status,2, status,0, pclath, cstack
  4610 ;; Tracked objects:
  4611 ;;		On entry : 0/0
  4612 ;;		On exit  : 0/0
  4613 ;;		Unchanged: 0/0
  4614 ;; Data sizes:     COMMON   BANK0   BANK1   BANK2   BANK3   BANK4   BANK5   BANK6   BANK7   BANK8   BANK9  BANK10  BANK1
      +1  BANK12
  4615 ;;      Params:         0       5       0       0       0       0       0       0       0       0       0       0       
      +0       0
  4616 ;;      Locals:         0       9       0       0       0       0       0       0       0       0       0       0       
      +0       0
  4617 ;;      Temps:          0       5       0       0       0       0       0       0       0       0       0       0       
      +0       0
  4618 ;;      Totals:         0      19       0       0       0       0       0       0       0       0       0       0       
      +0       0
  4619 ;;Total ram usage:       19 bytes
  4620 ;; Hardware stack levels used:    1
  4621 ;; Hardware stack levels required when called:    2
  4622 ;; This function calls:
  4623 ;;		_LCD_Write_Character
  4624 ;;		___awdiv
  4625 ;;		___awmod
  4626 ;; This function is called by:
  4627 ;;		_main
  4628 ;; This function uses a non-reentrant model
  4629 ;;
  4630                           
  4631                           
  4632                           ;psect for function _LCD_Write_Int
  4633  0727                     _LCD_Write_Int:	
  4634                           
  4635                           ;lcd.c: 273: char str[5]={0,0,0,0,0};
  4636                           
  4637                           ;incstack = 0
  4638                           ; Regs used in _LCD_Write_Int: [wreg-fsr1h+status,2+status,0+pclath+cstack]
  4639  0727  303E               	movlw	low LCD_Write_Int@F13665
  4640  0728  0086               	movwf	6
  4641  0729  3000               	movlw	high LCD_Write_Int@F13665
  4642  072A  0087               	movwf	7
  4643  072B  302F               	movlw	low LCD_Write_Int@str
  4644  072C  0084               	movwf	4
  4645  072D  3000               	movlw	high LCD_Write_Int@str
  4646  072E  0085               	movwf	5
  4647  072F  3005               	movlw	5
  4648  0730  0020               	movlb	0	; select bank0
  4649  0731  00AA               	movwf	??_LCD_Write_Int
  4650  0732                     u960:	
  4651  0732  0016               	moviw fsr1++
  4652  0733  001A               	movwi fsr0++
  4653  0734  0BAA               	decfsz	??_LCD_Write_Int,f
  4654  0735  2F32               	goto	u960
  4655                           
  4656                           ;lcd.c: 274: int i=4,j=0;
  4657  0736  3004               	movlw	4
  4658  0737  00B6               	movwf	LCD_Write_Int@i
  4659  0738  3000               	movlw	0
  4660  0739  00B7               	movwf	LCD_Write_Int@i+1
  4661  073A  01B4               	clrf	LCD_Write_Int@j
  4662  073B  01B5               	clrf	LCD_Write_Int@j+1
  4663                           
  4664                           ;lcd.c: 276: if(value<0)
  4665  073C  1FA6               	btfss	LCD_Write_Int@value+1,7
  4666  073D  2F49               	goto	l1297
  4667                           
  4668                           ;lcd.c: 277: {
  4669                           ;lcd.c: 278: LCD_Write_Character('-');
  4670  073E  302D               	movlw	45
  4671  073F  3185  2511  3187   	fcall	_LCD_Write_Character
  4672                           
  4673                           ;lcd.c: 279: value=value*-1;
  4674  0742  0020               	movlb	0	; select bank0
  4675  0743  09A5               	comf	LCD_Write_Int@value,f
  4676  0744  09A6               	comf	LCD_Write_Int@value+1,f
  4677  0745  0AA5               	incf	LCD_Write_Int@value,f
  4678  0746  1903               	skipnz
  4679  0747  0AA6               	incf	LCD_Write_Int@value+1,f
  4680                           
  4681                           ;lcd.c: 280: }
  4682  0748  2F50               	goto	l1307
  4683  0749                     l1297:	
  4684                           
  4685                           ;lcd.c: 282: else
  4686                           ;lcd.c: 283: {
  4687                           ;lcd.c: 284: if(sign == 1)
  4688  0749  0329               	decf	LCD_Write_Int@sign,w
  4689  074A  1D03               	btfss	3,2
  4690  074B  2F50               	goto	l1307
  4691                           
  4692                           ;lcd.c: 285: {
  4693                           ;lcd.c: 286: LCD_Write_Character('+');
  4694  074C  302B               	movlw	43
  4695  074D  3185  2511  3187   	fcall	_LCD_Write_Character
  4696  0750                     l1307:	
  4697                           ;lcd.c: 287: }
  4698                           ;lcd.c: 288: }
  4699                           ;lcd.c: 290: while(value)
  4700                           
  4701  0750  0020               	movlb	0	; select bank0
  4702  0751  0825               	movf	LCD_Write_Int@value,w
  4703  0752  0426               	iorwf	LCD_Write_Int@value+1,w
  4704  0753  1903               	btfsc	3,2
  4705  0754  2F7F               	goto	l1309
  4706                           
  4707                           ;lcd.c: 291: {
  4708                           ;lcd.c: 292: str[i]=value%10;
  4709  0755  300A               	movlw	10
  4710  0756  00F0               	movwf	___awmod@divisor
  4711  0757  3000               	movlw	0
  4712  0758  00F1               	movwf	___awmod@divisor+1
  4713  0759  0020               	movlb	0	; select bank0
  4714  075A  0826               	movf	LCD_Write_Int@value+1,w
  4715  075B  00F3               	movwf	___awmod@dividend+1
  4716  075C  0825               	movf	LCD_Write_Int@value,w
  4717  075D  00F2               	movwf	___awmod@dividend
  4718  075E  3184  2483  3187   	fcall	___awmod
  4719  0761  0870               	movf	?___awmod,w
  4720  0762  0020               	movlb	0	; select bank0
  4721  0763  00AA               	movwf	??_LCD_Write_Int
  4722  0764  0836               	movf	LCD_Write_Int@i,w
  4723  0765  3E2F               	addlw	(low (LCD_Write_Int@str| 0))& (0+255)
  4724  0766  0086               	movwf	6
  4725  0767  0187               	clrf	7
  4726  0768  082A               	movf	??_LCD_Write_Int,w
  4727  0769  0081               	movwf	1
  4728                           
  4729                           ;lcd.c: 293: value=value/10;
  4730  076A  300A               	movlw	10
  4731  076B  00F0               	movwf	___awdiv@divisor
  4732  076C  3000               	movlw	0
  4733  076D  00F1               	movwf	___awdiv@divisor+1
  4734  076E  0826               	movf	LCD_Write_Int@value+1,w
  4735  076F  00F3               	movwf	___awdiv@dividend+1
  4736  0770  0825               	movf	LCD_Write_Int@value,w
  4737  0771  00F2               	movwf	___awdiv@dividend
  4738  0772  3185  255C  3187   	fcall	___awdiv
  4739  0775  0871               	movf	?___awdiv+1,w
  4740  0776  0020               	movlb	0	; select bank0
  4741  0777  00A6               	movwf	LCD_Write_Int@value+1
  4742  0778  0870               	movf	?___awdiv,w
  4743  0779  00A5               	movwf	LCD_Write_Int@value
  4744                           
  4745                           ;lcd.c: 294: i--;
  4746  077A  30FF               	movlw	255
  4747  077B  07B6               	addwf	LCD_Write_Int@i,f
  4748  077C  30FF               	movlw	255
  4749  077D  3DB7               	addwfc	LCD_Write_Int@i+1,f
  4750  077E  2F50               	goto	l1307
  4751  077F                     l1309:	
  4752                           
  4753                           ;lcd.c: 295: }
  4754                           ;lcd.c: 296: if(fieldLength==-1)
  4755  077F  0A27               	incf	LCD_Write_Int@fieldLength,w
  4756  0780  1903               	btfsc	3,2
  4757  0781  2F87               	goto	l1315
  4758  0782  2F8F               	goto	l1317
  4759  0783                     l1313:	
  4760                           ;lcd.c: 297: {
  4761                           ;lcd.c: 298: while(str[j]==0)
  4762                           
  4763                           
  4764                           ;lcd.c: 299: {
  4765                           ;lcd.c: 300: j++;
  4766  0783  3001               	movlw	1
  4767  0784  07B4               	addwf	LCD_Write_Int@j,f
  4768  0785  3000               	movlw	0
  4769  0786  3DB5               	addwfc	LCD_Write_Int@j+1,f
  4770  0787                     l1315:	
  4771  0787  0834               	movf	LCD_Write_Int@j,w
  4772  0788  3E2F               	addlw	(low (LCD_Write_Int@str| 0))& (0+255)
  4773  0789  0086               	movwf	6
  4774  078A  0187               	clrf	7
  4775  078B  0801               	movf	1,w
  4776  078C  1D03               	btfss	3,2
  4777  078D  2F9F               	goto	l1319
  4778  078E  2F83               	goto	l1313
  4779  078F                     l1317:	
  4780                           ;lcd.c: 301: }
  4781                           ;lcd.c: 302: }
  4782                           
  4783                           
  4784                           ;lcd.c: 303: else
  4785                           ;lcd.c: 304: {
  4786                           ;lcd.c: 305: j=5-fieldLength;
  4787  078F  0827               	movf	LCD_Write_Int@fieldLength,w
  4788  0790  00AA               	movwf	??_LCD_Write_Int
  4789  0791  01AB               	clrf	??_LCD_Write_Int+1
  4790  0792  1BAA               	btfsc	??_LCD_Write_Int,7
  4791  0793  03AB               	decf	??_LCD_Write_Int+1,f
  4792  0794  09AA               	comf	??_LCD_Write_Int,f
  4793  0795  09AB               	comf	??_LCD_Write_Int+1,f
  4794  0796  0AAA               	incf	??_LCD_Write_Int,f
  4795  0797  1903               	skipnz
  4796  0798  0AAB               	incf	??_LCD_Write_Int+1,f
  4797  0799  082A               	movf	??_LCD_Write_Int,w
  4798  079A  3E05               	addlw	5
  4799  079B  00B4               	movwf	LCD_Write_Int@j
  4800  079C  3000               	movlw	0
  4801  079D  3D2B               	addwfc	??_LCD_Write_Int+1,w
  4802  079E  00B5               	movwf	LCD_Write_Int@j+1
  4803  079F                     l1319:	
  4804                           
  4805                           ;lcd.c: 306: }
  4806                           ;lcd.c: 308: for(i=j;i<(5-numPlaces);i++)
  4807  079F  0835               	movf	LCD_Write_Int@j+1,w
  4808  07A0  00B7               	movwf	LCD_Write_Int@i+1
  4809  07A1  0834               	movf	LCD_Write_Int@j,w
  4810  07A2  00B6               	movwf	LCD_Write_Int@i
  4811  07A3                     l1325:	
  4812  07A3  0828               	movf	LCD_Write_Int@numPlaces,w
  4813  07A4  00AA               	movwf	??_LCD_Write_Int
  4814  07A5  01AB               	clrf	??_LCD_Write_Int+1
  4815  07A6  1BAA               	btfsc	??_LCD_Write_Int,7
  4816  07A7  03AB               	decf	??_LCD_Write_Int+1,f
  4817  07A8  09AA               	comf	??_LCD_Write_Int,f
  4818  07A9  09AB               	comf	??_LCD_Write_Int+1,f
  4819  07AA  0AAA               	incf	??_LCD_Write_Int,f
  4820  07AB  1903               	skipnz
  4821  07AC  0AAB               	incf	??_LCD_Write_Int+1,f
  4822  07AD  082A               	movf	??_LCD_Write_Int,w
  4823  07AE  3E05               	addlw	5
  4824  07AF  00AC               	movwf	??_LCD_Write_Int+2
  4825  07B0  3000               	movlw	0
  4826  07B1  3D2B               	addwfc	??_LCD_Write_Int+1,w
  4827  07B2  00AD               	movwf	??_LCD_Write_Int+3
  4828  07B3  0837               	movf	LCD_Write_Int@i+1,w
  4829  07B4  3A80               	xorlw	128
  4830  07B5  00AE               	movwf	??_LCD_Write_Int+4
  4831  07B6  082D               	movf	??_LCD_Write_Int+3,w
  4832  07B7  3A80               	xorlw	128
  4833  07B8  022E               	subwf	??_LCD_Write_Int+4,w
  4834  07B9  1D03               	skipz
  4835  07BA  2FBD               	goto	u1025
  4836  07BB  082C               	movf	??_LCD_Write_Int+2,w
  4837  07BC  0236               	subwf	LCD_Write_Int@i,w
  4838  07BD                     u1025:	
  4839  07BD  1803               	btfsc	3,0
  4840  07BE  2FCF               	goto	l1327
  4841                           
  4842                           ;lcd.c: 309: {
  4843                           ;lcd.c: 310: LCD_Write_Character(48+str[i]);
  4844  07BF  0020               	movlb	0	; select bank0
  4845  07C0  0836               	movf	LCD_Write_Int@i,w
  4846  07C1  3E2F               	addlw	(low (LCD_Write_Int@str| 0))& (0+255)
  4847  07C2  0086               	movwf	6
  4848  07C3  0187               	clrf	7
  4849  07C4  0801               	movf	1,w
  4850  07C5  3E30               	addlw	48
  4851  07C6  3185  2511  3187   	fcall	_LCD_Write_Character
  4852  07C9  3001               	movlw	1
  4853  07CA  0020               	movlb	0	; select bank0
  4854  07CB  07B6               	addwf	LCD_Write_Int@i,f
  4855  07CC  3000               	movlw	0
  4856  07CD  3DB7               	addwfc	LCD_Write_Int@i+1,f
  4857  07CE  2FA3               	goto	l1325
  4858  07CF                     l1327:	
  4859                           
  4860                           ;lcd.c: 311: }
  4861                           ;lcd.c: 313: if(numPlaces == 1)
  4862  07CF  0020               	movlb	0	; select bank0
  4863  07D0  0328               	decf	LCD_Write_Int@numPlaces,w
  4864  07D1  1D03               	btfss	3,2
  4865  07D2  2FDD               	goto	l1331
  4866                           
  4867                           ;lcd.c: 314: {
  4868                           ;lcd.c: 315: LCD_Write_Character(46);
  4869  07D3  302E               	movlw	46
  4870  07D4  3185  2511  3187   	fcall	_LCD_Write_Character
  4871                           
  4872                           ;lcd.c: 316: LCD_Write_Character(48+str[4]);
  4873  07D7  0020               	movlb	0	; select bank0
  4874  07D8  0833               	movf	LCD_Write_Int@str+4,w
  4875  07D9  3E30               	addlw	48
  4876  07DA  3185  2511  3187   	fcall	_LCD_Write_Character
  4877  07DD                     l1331:	
  4878                           
  4879                           ;lcd.c: 317: }
  4880                           ;lcd.c: 319: if(numPlaces == 2)
  4881  07DD  3002               	movlw	2
  4882  07DE  0020               	movlb	0	; select bank0
  4883  07DF  0628               	xorwf	LCD_Write_Int@numPlaces,w
  4884  07E0  1D03               	btfss	3,2
  4885  07E1  0008               	return
  4886                           
  4887                           ;lcd.c: 320: {
  4888                           ;lcd.c: 321: LCD_Write_Character(46);
  4889  07E2  302E               	movlw	46
  4890  07E3  3185  2511  3187   	fcall	_LCD_Write_Character
  4891                           
  4892                           ;lcd.c: 322: LCD_Write_Character(48+str[3]);
  4893  07E6  0020               	movlb	0	; select bank0
  4894  07E7  0832               	movf	LCD_Write_Int@str+3,w
  4895  07E8  3E30               	addlw	48
  4896  07E9  3185  2511  3187   	fcall	_LCD_Write_Character
  4897                           
  4898                           ;lcd.c: 323: LCD_Write_Character(48+str[4]);
  4899  07EC  0020               	movlb	0	; select bank0
  4900  07ED  0833               	movf	LCD_Write_Int@str+4,w
  4901  07EE  3E30               	addlw	48
  4902  07EF  3185  2511         	fcall	_LCD_Write_Character
  4903  07F1  0008               	return
  4904  07F2                     __end_of_LCD_Write_Int:	
  4905                           
  4906                           	psect	text6
  4907  0483                     __ptext6:	
  4908 ;; *************** function ___awmod *****************
  4909 ;; Defined at:
  4910 ;;		line 6 in file "C:\Program Files (x86)\Microchip\xc8\v1.38\sources\common\awmod.c"
  4911 ;; Parameters:    Size  Location     Type
  4912 ;;  divisor         2    0[COMMON] int 
  4913 ;;  dividend        2    2[COMMON] int 
  4914 ;; Auto vars:     Size  Location     Type
  4915 ;;  sign            1    6[COMMON] unsigned char 
  4916 ;;  counter         1    5[COMMON] unsigned char 
  4917 ;; Return value:  Size  Location     Type
  4918 ;;                  2    0[COMMON] int 
  4919 ;; Registers used:
  4920 ;;		wreg, status,2, status,0
  4921 ;; Tracked objects:
  4922 ;;		On entry : 0/0
  4923 ;;		On exit  : 0/0
  4924 ;;		Unchanged: 0/0
  4925 ;; Data sizes:     COMMON   BANK0   BANK1   BANK2   BANK3   BANK4   BANK5   BANK6   BANK7   BANK8   BANK9  BANK10  BANK1
      +1  BANK12
  4926 ;;      Params:         4       0       0       0       0       0       0       0       0       0       0       0       
      +0       0
  4927 ;;      Locals:         2       0       0       0       0       0       0       0       0       0       0       0       
      +0       0
  4928 ;;      Temps:          1       0       0       0       0       0       0       0       0       0       0       0       
      +0       0
  4929 ;;      Totals:         7       0       0       0       0       0       0       0       0       0       0       0       
      +0       0
  4930 ;;Total ram usage:        7 bytes
  4931 ;; Hardware stack levels used:    1
  4932 ;; This function calls:
  4933 ;;		Nothing
  4934 ;; This function is called by:
  4935 ;;		_LCD_Write_Int
  4936 ;; This function uses a non-reentrant model
  4937 ;;
  4938                           
  4939                           
  4940                           ;psect for function ___awmod
  4941  0483                     ___awmod:	
  4942                           
  4943                           ;incstack = 0
  4944                           ; Regs used in ___awmod: [wreg+status,2+status,0]
  4945  0483  01F6               	clrf	___awmod@sign
  4946  0484  1FF3               	btfss	___awmod@dividend+1,7
  4947  0485  2C8D               	goto	l1221
  4948  0486  09F2               	comf	___awmod@dividend,f
  4949  0487  09F3               	comf	___awmod@dividend+1,f
  4950  0488  0AF2               	incf	___awmod@dividend,f
  4951  0489  1903               	skipnz
  4952  048A  0AF3               	incf	___awmod@dividend+1,f
  4953  048B  01F6               	clrf	___awmod@sign
  4954  048C  0AF6               	incf	___awmod@sign,f
  4955  048D                     l1221:	
  4956  048D  1FF1               	btfss	___awmod@divisor+1,7
  4957  048E  2C94               	goto	l1225
  4958  048F  09F0               	comf	___awmod@divisor,f
  4959  0490  09F1               	comf	___awmod@divisor+1,f
  4960  0491  0AF0               	incf	___awmod@divisor,f
  4961  0492  1903               	skipnz
  4962  0493  0AF1               	incf	___awmod@divisor+1,f
  4963  0494                     l1225:	
  4964  0494  0870               	movf	___awmod@divisor,w
  4965  0495  0471               	iorwf	___awmod@divisor+1,w
  4966  0496  1903               	btfsc	3,2
  4967  0497  2CBB               	goto	l1243
  4968  0498  01F5               	clrf	___awmod@counter
  4969  0499  0AF5               	incf	___awmod@counter,f
  4970  049A                     l1233:	
  4971  049A  1BF1               	btfsc	___awmod@divisor+1,7
  4972  049B  2CA6               	goto	l1235
  4973  049C  3001               	movlw	1
  4974  049D                     u855:	
  4975  049D  35F0               	lslf	___awmod@divisor,f
  4976  049E  0DF1               	rlf	___awmod@divisor+1,f
  4977  049F  0B89               	decfsz	9,f
  4978  04A0  2C9D               	goto	u855
  4979  04A1  3001               	movlw	1
  4980  04A2  00F4               	movwf	??___awmod
  4981  04A3  0874               	movf	??___awmod,w
  4982  04A4  07F5               	addwf	___awmod@counter,f
  4983  04A5  2C9A               	goto	l1233
  4984  04A6                     l1235:	
  4985  04A6  0871               	movf	___awmod@divisor+1,w
  4986  04A7  0273               	subwf	___awmod@dividend+1,w
  4987  04A8  1D03               	skipz
  4988  04A9  2CAC               	goto	u875
  4989  04AA  0870               	movf	___awmod@divisor,w
  4990  04AB  0272               	subwf	___awmod@dividend,w
  4991  04AC                     u875:	
  4992  04AC  1C03               	skipc
  4993  04AD  2CB2               	goto	l1239
  4994  04AE  0870               	movf	___awmod@divisor,w
  4995  04AF  02F2               	subwf	___awmod@dividend,f
  4996  04B0  0871               	movf	___awmod@divisor+1,w
  4997  04B1  3BF3               	subwfb	___awmod@dividend+1,f
  4998  04B2                     l1239:	
  4999  04B2  3001               	movlw	1
  5000  04B3                     u885:	
  5001  04B3  36F1               	lsrf	___awmod@divisor+1,f
  5002  04B4  0CF0               	rrf	___awmod@divisor,f
  5003  04B5  0B89               	decfsz	9,f
  5004  04B6  2CB3               	goto	u885
  5005  04B7  3001               	movlw	1
  5006  04B8  02F5               	subwf	___awmod@counter,f
  5007  04B9  1D03               	btfss	3,2
  5008  04BA  2CA6               	goto	l1235
  5009  04BB                     l1243:	
  5010  04BB  0876               	movf	___awmod@sign,w
  5011  04BC  1903               	btfsc	3,2
  5012  04BD  2CC3               	goto	l1247
  5013  04BE  09F2               	comf	___awmod@dividend,f
  5014  04BF  09F3               	comf	___awmod@dividend+1,f
  5015  04C0  0AF2               	incf	___awmod@dividend,f
  5016  04C1  1903               	skipnz
  5017  04C2  0AF3               	incf	___awmod@dividend+1,f
  5018  04C3                     l1247:	
  5019  04C3  0873               	movf	___awmod@dividend+1,w
  5020  04C4  00F1               	movwf	?___awmod+1
  5021  04C5  0872               	movf	___awmod@dividend,w
  5022  04C6  00F0               	movwf	?___awmod
  5023  04C7  0008               	return
  5024  04C8                     __end_of___awmod:	
  5025                           
  5026                           	psect	text7
  5027  055C                     __ptext7:	
  5028 ;; *************** function ___awdiv *****************
  5029 ;; Defined at:
  5030 ;;		line 6 in file "C:\Program Files (x86)\Microchip\xc8\v1.38\sources\common\awdiv.c"
  5031 ;; Parameters:    Size  Location     Type
  5032 ;;  divisor         2    0[COMMON] int 
  5033 ;;  dividend        2    2[COMMON] int 
  5034 ;; Auto vars:     Size  Location     Type
  5035 ;;  quotient        2    7[COMMON] int 
  5036 ;;  sign            1    6[COMMON] unsigned char 
  5037 ;;  counter         1    5[COMMON] unsigned char 
  5038 ;; Return value:  Size  Location     Type
  5039 ;;                  2    0[COMMON] int 
  5040 ;; Registers used:
  5041 ;;		wreg, status,2, status,0
  5042 ;; Tracked objects:
  5043 ;;		On entry : 0/0
  5044 ;;		On exit  : 0/0
  5045 ;;		Unchanged: 0/0
  5046 ;; Data sizes:     COMMON   BANK0   BANK1   BANK2   BANK3   BANK4   BANK5   BANK6   BANK7   BANK8   BANK9  BANK10  BANK1
      +1  BANK12
  5047 ;;      Params:         4       0       0       0       0       0       0       0       0       0       0       0       
      +0       0
  5048 ;;      Locals:         4       0       0       0       0       0       0       0       0       0       0       0       
      +0       0
  5049 ;;      Temps:          1       0       0       0       0       0       0       0       0       0       0       0       
      +0       0
  5050 ;;      Totals:         9       0       0       0       0       0       0       0       0       0       0       0       
      +0       0
  5051 ;;Total ram usage:        9 bytes
  5052 ;; Hardware stack levels used:    1
  5053 ;; This function calls:
  5054 ;;		Nothing
  5055 ;; This function is called by:
  5056 ;;		_LCD_Write_Int
  5057 ;; This function uses a non-reentrant model
  5058 ;;
  5059                           
  5060                           
  5061                           ;psect for function ___awdiv
  5062  055C                     ___awdiv:	
  5063                           
  5064                           ;incstack = 0
  5065                           ; Regs used in ___awdiv: [wreg+status,2+status,0]
  5066  055C  01F6               	clrf	___awdiv@sign
  5067  055D  1FF1               	btfss	___awdiv@divisor+1,7
  5068  055E  2D66               	goto	l1177
  5069  055F  09F0               	comf	___awdiv@divisor,f
  5070  0560  09F1               	comf	___awdiv@divisor+1,f
  5071  0561  0AF0               	incf	___awdiv@divisor,f
  5072  0562  1903               	skipnz
  5073  0563  0AF1               	incf	___awdiv@divisor+1,f
  5074  0564  01F6               	clrf	___awdiv@sign
  5075  0565  0AF6               	incf	___awdiv@sign,f
  5076  0566                     l1177:	
  5077  0566  1FF3               	btfss	___awdiv@dividend+1,7
  5078  0567  2D71               	goto	l1183
  5079  0568  09F2               	comf	___awdiv@dividend,f
  5080  0569  09F3               	comf	___awdiv@dividend+1,f
  5081  056A  0AF2               	incf	___awdiv@dividend,f
  5082  056B  1903               	skipnz
  5083  056C  0AF3               	incf	___awdiv@dividend+1,f
  5084  056D  3001               	movlw	1
  5085  056E  00F4               	movwf	??___awdiv
  5086  056F  0874               	movf	??___awdiv,w
  5087  0570  06F6               	xorwf	___awdiv@sign,f
  5088  0571                     l1183:	
  5089  0571  01F7               	clrf	___awdiv@quotient
  5090  0572  01F8               	clrf	___awdiv@quotient+1
  5091  0573  0870               	movf	___awdiv@divisor,w
  5092  0574  0471               	iorwf	___awdiv@divisor+1,w
  5093  0575  1903               	btfsc	3,2
  5094  0576  2DA0               	goto	l1205
  5095  0577  01F5               	clrf	___awdiv@counter
  5096  0578  0AF5               	incf	___awdiv@counter,f
  5097  0579                     l1193:	
  5098  0579  1BF1               	btfsc	___awdiv@divisor+1,7
  5099  057A  2D85               	goto	l1195
  5100  057B  3001               	movlw	1
  5101  057C                     u755:	
  5102  057C  35F0               	lslf	___awdiv@divisor,f
  5103  057D  0DF1               	rlf	___awdiv@divisor+1,f
  5104  057E  0B89               	decfsz	9,f
  5105  057F  2D7C               	goto	u755
  5106  0580  3001               	movlw	1
  5107  0581  00F4               	movwf	??___awdiv
  5108  0582  0874               	movf	??___awdiv,w
  5109  0583  07F5               	addwf	___awdiv@counter,f
  5110  0584  2D79               	goto	l1193
  5111  0585                     l1195:	
  5112  0585  3001               	movlw	1
  5113  0586                     u775:	
  5114  0586  35F7               	lslf	___awdiv@quotient,f
  5115  0587  0DF8               	rlf	___awdiv@quotient+1,f
  5116  0588  0B89               	decfsz	9,f
  5117  0589  2D86               	goto	u775
  5118  058A  0871               	movf	___awdiv@divisor+1,w
  5119  058B  0273               	subwf	___awdiv@dividend+1,w
  5120  058C  1D03               	skipz
  5121  058D  2D90               	goto	u785
  5122  058E  0870               	movf	___awdiv@divisor,w
  5123  058F  0272               	subwf	___awdiv@dividend,w
  5124  0590                     u785:	
  5125  0590  1C03               	skipc
  5126  0591  2D97               	goto	l1201
  5127  0592  0870               	movf	___awdiv@divisor,w
  5128  0593  02F2               	subwf	___awdiv@dividend,f
  5129  0594  0871               	movf	___awdiv@divisor+1,w
  5130  0595  3BF3               	subwfb	___awdiv@dividend+1,f
  5131  0596  1477               	bsf	___awdiv@quotient,0
  5132  0597                     l1201:	
  5133  0597  3001               	movlw	1
  5134  0598                     u795:	
  5135  0598  36F1               	lsrf	___awdiv@divisor+1,f
  5136  0599  0CF0               	rrf	___awdiv@divisor,f
  5137  059A  0B89               	decfsz	9,f
  5138  059B  2D98               	goto	u795
  5139  059C  3001               	movlw	1
  5140  059D  02F5               	subwf	___awdiv@counter,f
  5141  059E  1D03               	btfss	3,2
  5142  059F  2D85               	goto	l1195
  5143  05A0                     l1205:	
  5144  05A0  0876               	movf	___awdiv@sign,w
  5145  05A1  1903               	btfsc	3,2
  5146  05A2  2DA8               	goto	l1209
  5147  05A3  09F7               	comf	___awdiv@quotient,f
  5148  05A4  09F8               	comf	___awdiv@quotient+1,f
  5149  05A5  0AF7               	incf	___awdiv@quotient,f
  5150  05A6  1903               	skipnz
  5151  05A7  0AF8               	incf	___awdiv@quotient+1,f
  5152  05A8                     l1209:	
  5153  05A8  0878               	movf	___awdiv@quotient+1,w
  5154  05A9  00F1               	movwf	?___awdiv+1
  5155  05AA  0877               	movf	___awdiv@quotient,w
  5156  05AB  00F0               	movwf	?___awdiv
  5157  05AC  0008               	return
  5158  05AD                     __end_of___awdiv:	
  5159                           
  5160                           	psect	text8
  5161  0511                     __ptext8:	
  5162 ;; *************** function _LCD_Write_Character *****************
  5163 ;; Defined at:
  5164 ;;		line 243 in file "lcd.c"
  5165 ;; Parameters:    Size  Location     Type
  5166 ;;  character       1    wreg     const unsigned char 
  5167 ;; Auto vars:     Size  Location     Type
  5168 ;;  character       1   11[COMMON] const unsigned char 
  5169 ;;  index           2   12[COMMON] int 
  5170 ;; Return value:  Size  Location     Type
  5171 ;;                  1    wreg      void 
  5172 ;; Registers used:
  5173 ;;		wreg, fsr0l, fsr0h, status,2, status,0, pclath, cstack
  5174 ;; Tracked objects:
  5175 ;;		On entry : 0/0
  5176 ;;		On exit  : 0/0
  5177 ;;		Unchanged: 0/0
  5178 ;; Data sizes:     COMMON   BANK0   BANK1   BANK2   BANK3   BANK4   BANK5   BANK6   BANK7   BANK8   BANK9  BANK10  BANK1
      +1  BANK12
  5179 ;;      Params:         0       0       0       0       0       0       0       0       0       0       0       0       
      +0       0
  5180 ;;      Locals:         3       0       0       0       0       0       0       0       0       0       0       0       
      +0       0
  5181 ;;      Temps:          0       5       0       0       0       0       0       0       0       0       0       0       
      +0       0
  5182 ;;      Totals:         3       5       0       0       0       0       0       0       0       0       0       0       
      +0       0
  5183 ;;Total ram usage:        8 bytes
  5184 ;; Hardware stack levels used:    1
  5185 ;; Hardware stack levels required when called:    1
  5186 ;; This function calls:
  5187 ;;		_LCDWrite
  5188 ;;		___wmul
  5189 ;; This function is called by:
  5190 ;;		_LCD_Write_String
  5191 ;;		_LCD_Write_Int
  5192 ;; This function uses a non-reentrant model
  5193 ;;
  5194                           
  5195                           
  5196                           ;psect for function _LCD_Write_Character
  5197  0511                     _LCD_Write_Character:	
  5198                           
  5199                           ;incstack = 0
  5200                           ; Regs used in _LCD_Write_Character: [wreg-fsr0h+status,2+status,0+pclath+cstack]
  5201                           ;LCD_Write_Character@character stored from wreg
  5202  0511  00FB               	movwf	LCD_Write_Character@character
  5203                           
  5204                           ;lcd.c: 247: for (int index = 0 ; index < 3 ; index++)
  5205  0512  01FC               	clrf	LCD_Write_Character@index
  5206  0513  01FD               	clrf	LCD_Write_Character@index+1
  5207  0514  087D               	movf	LCD_Write_Character@index+1,w
  5208  0515  3A80               	xorlw	128
  5209  0516  0020               	movlb	0	; select bank0
  5210  0517  00A0               	movwf	??_LCD_Write_Character
  5211  0518  3080               	movlw	128
  5212  0519  0220               	subwf	??_LCD_Write_Character,w
  5213  051A  1D03               	skipz
  5214  051B  2D1E               	goto	u705
  5215  051C  3003               	movlw	3
  5216  051D  027C               	subwf	LCD_Write_Character@index,w
  5217  051E                     u705:	
  5218  051E  1803               	btfsc	3,0
  5219  051F  2D57               	goto	l1167
  5220  0520                     l1161:	
  5221                           
  5222                           ;lcd.c: 248: {
  5223                           ;lcd.c: 249: LCDWrite(1, fonts[character - 0x20][index]);
  5224  0520  087B               	movf	LCD_Write_Character@character,w
  5225  0521  3EE0               	addlw	224
  5226  0522  00F0               	movwf	___wmul@multiplier
  5227  0523  30FF               	movlw	255
  5228  0524  1803               	skipnc
  5229  0525  3000               	movlw	0
  5230  0526  00F1               	movwf	___wmul@multiplier+1
  5231  0527  3003               	movlw	3
  5232  0528  00F2               	movwf	___wmul@multiplicand
  5233  0529  3000               	movlw	0
  5234  052A  00F3               	movwf	___wmul@multiplicand+1
  5235  052B  3183  23BD  3185   	fcall	___wmul
  5236  052E  3000               	movlw	low (_fonts| (0+32768))
  5237  052F  0020               	movlb	0	; select bank0
  5238  0530  00A0               	movwf	??_LCD_Write_Character
  5239  0531  3088               	movlw	high (_fonts| (0+32768))
  5240  0532  00A1               	movwf	??_LCD_Write_Character+1
  5241  0533  0870               	movf	?___wmul,w
  5242  0534  0720               	addwf	??_LCD_Write_Character,w
  5243  0535  00A2               	movwf	??_LCD_Write_Character+2
  5244  0536  0871               	movf	?___wmul+1,w
  5245  0537  3D21               	addwfc	??_LCD_Write_Character+1,w
  5246  0538  00A3               	movwf	??_LCD_Write_Character+3
  5247  0539  0822               	movf	??_LCD_Write_Character+2,w
  5248  053A  077C               	addwf	LCD_Write_Character@index,w
  5249  053B  0084               	movwf	4
  5250  053C  0823               	movf	??_LCD_Write_Character+3,w
  5251  053D  3D7D               	addwfc	LCD_Write_Character@index+1,w
  5252  053E  0085               	movwf	5
  5253  053F  0800               	movf	0,w	;code access
  5254  0540  00A4               	movwf	??_LCD_Write_Character+4
  5255  0541  0824               	movf	??_LCD_Write_Character+4,w
  5256  0542  00F6               	movwf	LCDWrite@data
  5257  0543  3001               	movlw	1
  5258  0544  3183  23FB  3185   	fcall	_LCDWrite
  5259  0547  3001               	movlw	1
  5260  0548  07FC               	addwf	LCD_Write_Character@index,f
  5261  0549  3000               	movlw	0
  5262  054A  3DFD               	addwfc	LCD_Write_Character@index+1,f
  5263  054B  087D               	movf	LCD_Write_Character@index+1,w
  5264  054C  3A80               	xorlw	128
  5265  054D  0020               	movlb	0	; select bank0
  5266  054E  00A0               	movwf	??_LCD_Write_Character
  5267  054F  3080               	movlw	128
  5268  0550  0220               	subwf	??_LCD_Write_Character,w
  5269  0551  1D03               	skipz
  5270  0552  2D55               	goto	u715
  5271  0553  3003               	movlw	3
  5272  0554  027C               	subwf	LCD_Write_Character@index,w
  5273  0555                     u715:	
  5274  0555  1C03               	skipc
  5275  0556  2D20               	goto	l1161
  5276  0557                     l1167:	
  5277                           
  5278                           ;lcd.c: 250: }
  5279                           ;lcd.c: 252: LCDWrite(1, 0x00);
  5280  0557  01F6               	clrf	LCDWrite@data
  5281  0558  3001               	movlw	1
  5282  0559  3183  23FB         	fcall	_LCDWrite
  5283  055B  0008               	return
  5284  055C                     __end_of_LCD_Write_Character:	
  5285                           
  5286                           	psect	text9
  5287  03BD                     __ptext9:	
  5288 ;; *************** function ___wmul *****************
  5289 ;; Defined at:
  5290 ;;		line 15 in file "C:\Program Files (x86)\Microchip\xc8\v1.38\sources\common\Umul16.c"
  5291 ;; Parameters:    Size  Location     Type
  5292 ;;  multiplier      2    0[COMMON] unsigned int 
  5293 ;;  multiplicand    2    2[COMMON] unsigned int 
  5294 ;; Auto vars:     Size  Location     Type
  5295 ;;  product         2    4[COMMON] unsigned int 
  5296 ;; Return value:  Size  Location     Type
  5297 ;;                  2    0[COMMON] unsigned int 
  5298 ;; Registers used:
  5299 ;;		wreg, status,2, status,0
  5300 ;; Tracked objects:
  5301 ;;		On entry : 0/0
  5302 ;;		On exit  : 0/0
  5303 ;;		Unchanged: 0/0
  5304 ;; Data sizes:     COMMON   BANK0   BANK1   BANK2   BANK3   BANK4   BANK5   BANK6   BANK7   BANK8   BANK9  BANK10  BANK1
      +1  BANK12
  5305 ;;      Params:         4       0       0       0       0       0       0       0       0       0       0       0       
      +0       0
  5306 ;;      Locals:         2       0       0       0       0       0       0       0       0       0       0       0       
      +0       0
  5307 ;;      Temps:          0       0       0       0       0       0       0       0       0       0       0       0       
      +0       0
  5308 ;;      Totals:         6       0       0       0       0       0       0       0       0       0       0       0       
      +0       0
  5309 ;;Total ram usage:        6 bytes
  5310 ;; Hardware stack levels used:    1
  5311 ;; This function calls:
  5312 ;;		Nothing
  5313 ;; This function is called by:
  5314 ;;		_LCD_Write_Character
  5315 ;; This function uses a non-reentrant model
  5316 ;;
  5317                           
  5318                           
  5319                           ;psect for function ___wmul
  5320  03BD                     ___wmul:	
  5321                           
  5322                           ;incstack = 0
  5323                           ; Regs used in ___wmul: [wreg+status,2+status,0]
  5324  03BD  01F4               	clrf	___wmul@product
  5325  03BE  01F5               	clrf	___wmul@product+1
  5326  03BF                     l1099:	
  5327  03BF  1C70               	btfss	___wmul@multiplier,0
  5328  03C0  2BC5               	goto	l291
  5329  03C1  0872               	movf	___wmul@multiplicand,w
  5330  03C2  07F4               	addwf	___wmul@product,f
  5331  03C3  0873               	movf	___wmul@multiplicand+1,w
  5332  03C4  3DF5               	addwfc	___wmul@product+1,f
  5333  03C5                     l291:	
  5334  03C5  3001               	movlw	1
  5335  03C6                     u665:	
  5336  03C6  35F2               	lslf	___wmul@multiplicand,f
  5337  03C7  0DF3               	rlf	___wmul@multiplicand+1,f
  5338  03C8  0B89               	decfsz	9,f
  5339  03C9  2BC6               	goto	u665
  5340  03CA  3001               	movlw	1
  5341  03CB                     u675:	
  5342  03CB  36F1               	lsrf	___wmul@multiplier+1,f
  5343  03CC  0CF0               	rrf	___wmul@multiplier,f
  5344  03CD  0B89               	decfsz	9,f
  5345  03CE  2BCB               	goto	u675
  5346  03CF  0870               	movf	___wmul@multiplier,w
  5347  03D0  0471               	iorwf	___wmul@multiplier+1,w
  5348  03D1  1D03               	btfss	3,2
  5349  03D2  2BBF               	goto	l1099
  5350  03D3  0875               	movf	___wmul@product+1,w
  5351  03D4  00F1               	movwf	?___wmul+1
  5352  03D5  0874               	movf	___wmul@product,w
  5353  03D6  00F0               	movwf	?___wmul
  5354  03D7  0008               	return
  5355  03D8                     __end_of___wmul:	
  5356                           
  5357                           	psect	text10
  5358  0420                     __ptext10:	
  5359 ;; *************** function _LCD_Clear *****************
  5360 ;; Defined at:
  5361 ;;		line 264 in file "lcd.c"
  5362 ;; Parameters:    Size  Location     Type
  5363 ;;		None
  5364 ;; Auto vars:     Size  Location     Type
  5365 ;;  index           2    1[BANK0 ] int 
  5366 ;; Return value:  Size  Location     Type
  5367 ;;                  1    wreg      void 
  5368 ;; Registers used:
  5369 ;;		wreg, status,2, status,0, pclath, cstack
  5370 ;; Tracked objects:
  5371 ;;		On entry : 0/0
  5372 ;;		On exit  : 0/0
  5373 ;;		Unchanged: 0/0
  5374 ;; Data sizes:     COMMON   BANK0   BANK1   BANK2   BANK3   BANK4   BANK5   BANK6   BANK7   BANK8   BANK9  BANK10  BANK1
      +1  BANK12
  5375 ;;      Params:         0       0       0       0       0       0       0       0       0       0       0       0       
      +0       0
  5376 ;;      Locals:         0       2       0       0       0       0       0       0       0       0       0       0       
      +0       0
  5377 ;;      Temps:          0       1       0       0       0       0       0       0       0       0       0       0       
      +0       0
  5378 ;;      Totals:         0       3       0       0       0       0       0       0       0       0       0       0       
      +0       0
  5379 ;;Total ram usage:        3 bytes
  5380 ;; Hardware stack levels used:    1
  5381 ;; Hardware stack levels required when called:    2
  5382 ;; This function calls:
  5383 ;;		_LCDWrite
  5384 ;;		_gotoXY
  5385 ;; This function is called by:
  5386 ;;		_main
  5387 ;; This function uses a non-reentrant model
  5388 ;;
  5389                           
  5390                           
  5391                           ;psect for function _LCD_Clear
  5392  0420                     _LCD_Clear:	
  5393                           
  5394                           ;lcd.c: 266: for (int index = 0 ; index < (84 * 48 / 8) ; index++)
  5395                           
  5396                           ;incstack = 0
  5397                           ; Regs used in _LCD_Clear: [wreg+status,2+status,0+pclath+cstack]
  5398  0420  0020               	movlb	0	; select bank0
  5399  0421  01A1               	clrf	LCD_Clear@index
  5400  0422  01A2               	clrf	LCD_Clear@index+1
  5401  0423  0822               	movf	LCD_Clear@index+1,w
  5402  0424  3A80               	xorlw	128
  5403  0425  00A0               	movwf	??_LCD_Clear
  5404  0426  3081               	movlw	129
  5405  0427  0220               	subwf	??_LCD_Clear,w
  5406  0428  1D03               	skipz
  5407  0429  2C2C               	goto	u945
  5408  042A  30F8               	movlw	248
  5409  042B  0221               	subwf	LCD_Clear@index,w
  5410  042C                     u945:	
  5411  042C  1803               	btfsc	3,0
  5412  042D  2C43               	goto	l1283
  5413  042E                     l1277:	
  5414                           
  5415                           ;lcd.c: 267: LCDWrite(1, 0x00);
  5416  042E  01F6               	clrf	LCDWrite@data
  5417  042F  3001               	movlw	1
  5418  0430  3183  23FB  3184   	fcall	_LCDWrite
  5419  0433  3001               	movlw	1
  5420  0434  0020               	movlb	0	; select bank0
  5421  0435  07A1               	addwf	LCD_Clear@index,f
  5422  0436  3000               	movlw	0
  5423  0437  3DA2               	addwfc	LCD_Clear@index+1,f
  5424  0438  0822               	movf	LCD_Clear@index+1,w
  5425  0439  3A80               	xorlw	128
  5426  043A  00A0               	movwf	??_LCD_Clear
  5427  043B  3081               	movlw	129
  5428  043C  0220               	subwf	??_LCD_Clear,w
  5429  043D  1D03               	skipz
  5430  043E  2C41               	goto	u955
  5431  043F  30F8               	movlw	248
  5432  0440  0221               	subwf	LCD_Clear@index,w
  5433  0441                     u955:	
  5434  0441  1C03               	skipc
  5435  0442  2C2E               	goto	l1277
  5436  0443                     l1283:	
  5437                           
  5438                           ;lcd.c: 268: gotoXY(0, 0);
  5439  0443  01FB               	clrf	gotoXY@y
  5440  0444  3000               	movlw	0
  5441  0445  3183  237A         	fcall	_gotoXY
  5442  0447  0008               	return
  5443  0448                     __end_of_LCD_Clear:	
  5444                           
  5445                           	psect	text11
  5446  037A                     __ptext11:	
  5447 ;; *************** function _gotoXY *****************
  5448 ;; Defined at:
  5449 ;;		line 224 in file "lcd.c"
  5450 ;; Parameters:    Size  Location     Type
  5451 ;;  x               1    wreg     char 
  5452 ;;  y               1   11[COMMON] char 
  5453 ;; Auto vars:     Size  Location     Type
  5454 ;;  x               1   13[COMMON] char 
  5455 ;; Return value:  Size  Location     Type
  5456 ;;                  1    wreg      void 
  5457 ;; Registers used:
  5458 ;;		wreg, status,2, status,0, pclath, cstack
  5459 ;; Tracked objects:
  5460 ;;		On entry : 0/0
  5461 ;;		On exit  : 0/0
  5462 ;;		Unchanged: 0/0
  5463 ;; Data sizes:     COMMON   BANK0   BANK1   BANK2   BANK3   BANK4   BANK5   BANK6   BANK7   BANK8   BANK9  BANK10  BANK1
      +1  BANK12
  5464 ;;      Params:         1       0       0       0       0       0       0       0       0       0       0       0       
      +0       0
  5465 ;;      Locals:         1       0       0       0       0       0       0       0       0       0       0       0       
      +0       0
  5466 ;;      Temps:          1       0       0       0       0       0       0       0       0       0       0       0       
      +0       0
  5467 ;;      Totals:         3       0       0       0       0       0       0       0       0       0       0       0       
      +0       0
  5468 ;;Total ram usage:        3 bytes
  5469 ;; Hardware stack levels used:    1
  5470 ;; Hardware stack levels required when called:    1
  5471 ;; This function calls:
  5472 ;;		_LCDWrite
  5473 ;; This function is called by:
  5474 ;;		_LCD_Clear
  5475 ;;		_drawBox
  5476 ;;		_main
  5477 ;; This function uses a non-reentrant model
  5478 ;;
  5479                           
  5480                           
  5481                           ;psect for function _gotoXY
  5482  037A                     _gotoXY:	
  5483                           
  5484                           ;incstack = 0
  5485                           ; Regs used in _gotoXY: [wreg+status,2+status,0+pclath+cstack]
  5486                           ;gotoXY@x stored from wreg
  5487  037A  00FD               	movwf	gotoXY@x
  5488                           
  5489                           ;lcd.c: 226: LCDWrite(0, 0x80 | x);
  5490  037B  087D               	movf	gotoXY@x,w
  5491  037C  3880               	iorlw	128
  5492  037D  00FC               	movwf	??_gotoXY
  5493  037E  087C               	movf	??_gotoXY,w
  5494  037F  00F6               	movwf	LCDWrite@data
  5495  0380  3000               	movlw	0
  5496  0381  3183  23FB  3183   	fcall	_LCDWrite
  5497                           
  5498                           ;lcd.c: 227: LCDWrite(0, 0x40 | y);
  5499  0384  087B               	movf	gotoXY@y,w
  5500  0385  3840               	iorlw	64
  5501  0386  00FC               	movwf	??_gotoXY
  5502  0387  087C               	movf	??_gotoXY,w
  5503  0388  00F6               	movwf	LCDWrite@data
  5504  0389  3000               	movlw	0
  5505  038A  3183  23FB         	fcall	_LCDWrite
  5506  038C  0008               	return
  5507  038D                     __end_of_gotoXY:	
  5508                           
  5509                           	psect	text12
  5510  0448                     __ptext12:	
  5511 ;; *************** function _LCDInit *****************
  5512 ;; Defined at:
  5513 ;;		line 328 in file "lcd.c"
  5514 ;; Parameters:    Size  Location     Type
  5515 ;;		None
  5516 ;; Auto vars:     Size  Location     Type
  5517 ;;		None
  5518 ;; Return value:  Size  Location     Type
  5519 ;;                  1    wreg      void 
  5520 ;; Registers used:
  5521 ;;		wreg, status,2, status,0, pclath, cstack
  5522 ;; Tracked objects:
  5523 ;;		On entry : 0/0
  5524 ;;		On exit  : 0/0
  5525 ;;		Unchanged: 0/0
  5526 ;; Data sizes:     COMMON   BANK0   BANK1   BANK2   BANK3   BANK4   BANK5   BANK6   BANK7   BANK8   BANK9  BANK10  BANK1
      +1  BANK12
  5527 ;;      Params:         0       0       0       0       0       0       0       0       0       0       0       0       
      +0       0
  5528 ;;      Locals:         0       0       0       0       0       0       0       0       0       0       0       0       
      +0       0
  5529 ;;      Temps:          1       0       0       0       0       0       0       0       0       0       0       0       
      +0       0
  5530 ;;      Totals:         1       0       0       0       0       0       0       0       0       0       0       0       
      +0       0
  5531 ;;Total ram usage:        1 bytes
  5532 ;; Hardware stack levels used:    1
  5533 ;; Hardware stack levels required when called:    1
  5534 ;; This function calls:
  5535 ;;		_LCDWrite
  5536 ;; This function is called by:
  5537 ;;		_main
  5538 ;; This function uses a non-reentrant model
  5539 ;;
  5540                           
  5541                           
  5542                           ;psect for function _LCDInit
  5543  0448                     _LCDInit:	
  5544                           
  5545                           ;lcd.c: 331: TRISCbits.TRISC3 = 0;
  5546                           
  5547                           ;incstack = 0
  5548                           ; Regs used in _LCDInit: [wreg+status,2+status,0+pclath+cstack]
  5549  0448  0020               	movlb	0	; select bank0
  5550  0449  1193               	bcf	19,3	;volatile
  5551                           
  5552                           ;lcd.c: 332: TRISCbits.TRISC4 = 0;
  5553  044A  1213               	bcf	19,4	;volatile
  5554                           
  5555                           ;lcd.c: 333: TRISCbits.TRISC5 = 0;
  5556  044B  1293               	bcf	19,5	;volatile
  5557                           
  5558                           ;lcd.c: 334: TRISCbits.TRISC6 = 0;
  5559  044C  1313               	bcf	19,6	;volatile
  5560                           
  5561                           ;lcd.c: 335: TRISCbits.TRISC7 = 0;
  5562  044D  1393               	bcf	19,7	;volatile
  5563                           
  5564                           ;lcd.c: 336: LATCbits.LATC4 = 0;
  5565  044E  1218               	bcf	24,4	;volatile
  5566                           
  5567                           ;lcd.c: 337: LATCbits.LATC5 = 0;
  5568  044F  1298               	bcf	24,5	;volatile
  5569                           
  5570                           ;lcd.c: 338: LATCbits.LATC3 = 0;
  5571  0450  1198               	bcf	24,3	;volatile
  5572                           
  5573                           ;lcd.c: 339: LATCbits.LATC7 = 0;
  5574  0451  1398               	bcf	24,7	;volatile
  5575                           
  5576                           ;lcd.c: 340: LATCbits.LATC7 = 1;
  5577  0452  1798               	bsf	24,7	;volatile
  5578                           
  5579                           ;lcd.c: 341: LCDWrite(0, 0x21);
  5580  0453  3021               	movlw	33
  5581  0454  00FB               	movwf	??_LCDInit
  5582  0455  087B               	movf	??_LCDInit,w
  5583  0456  00F6               	movwf	LCDWrite@data
  5584  0457  3000               	movlw	0
  5585  0458  3183  23FB  3184   	fcall	_LCDWrite
  5586                           
  5587                           ;lcd.c: 347: LCDWrite(0, 0xBB);
  5588  045B  30BB               	movlw	187
  5589  045C  00FB               	movwf	??_LCDInit
  5590  045D  087B               	movf	??_LCDInit,w
  5591  045E  00F6               	movwf	LCDWrite@data
  5592  045F  3000               	movlw	0
  5593  0460  3183  23FB  3184   	fcall	_LCDWrite
  5594                           
  5595                           ;lcd.c: 349: LCDWrite(0, 0x04);
  5596  0463  3004               	movlw	4
  5597  0464  00FB               	movwf	??_LCDInit
  5598  0465  087B               	movf	??_LCDInit,w
  5599  0466  00F6               	movwf	LCDWrite@data
  5600  0467  3000               	movlw	0
  5601  0468  3183  23FB  3184   	fcall	_LCDWrite
  5602                           
  5603                           ;lcd.c: 351: LCDWrite(0, 0x14);
  5604  046B  3014               	movlw	20
  5605  046C  00FB               	movwf	??_LCDInit
  5606  046D  087B               	movf	??_LCDInit,w
  5607  046E  00F6               	movwf	LCDWrite@data
  5608  046F  3000               	movlw	0
  5609  0470  3183  23FB  3184   	fcall	_LCDWrite
  5610                           
  5611                           ;lcd.c: 353: LCDWrite(0, 0x20);
  5612  0473  3020               	movlw	32
  5613  0474  00FB               	movwf	??_LCDInit
  5614  0475  087B               	movf	??_LCDInit,w
  5615  0476  00F6               	movwf	LCDWrite@data
  5616  0477  3000               	movlw	0
  5617  0478  3183  23FB  3184   	fcall	_LCDWrite
  5618                           
  5619                           ;lcd.c: 355: LCDWrite(0, 0x0C);
  5620  047B  300C               	movlw	12
  5621  047C  00FB               	movwf	??_LCDInit
  5622  047D  087B               	movf	??_LCDInit,w
  5623  047E  00F6               	movwf	LCDWrite@data
  5624  047F  3000               	movlw	0
  5625  0480  3183  23FB         	fcall	_LCDWrite
  5626  0482  0008               	return
  5627  0483                     __end_of_LCDInit:	
  5628                           
  5629                           	psect	text13
  5630  03D8                     __ptext13:	
  5631 ;; *************** function _LCDBitmap *****************
  5632 ;; Defined at:
  5633 ;;		line 231 in file "lcd.c"
  5634 ;; Parameters:    Size  Location     Type
  5635 ;;  my_array        2   11[COMMON] PTR const unsigned char 
  5636 ;;		 -> coffee(504), 
  5637 ;; Auto vars:     Size  Location     Type
  5638 ;;  index           2    0[BANK0 ] int 
  5639 ;; Return value:  Size  Location     Type
  5640 ;;                  1    wreg      void 
  5641 ;; Registers used:
  5642 ;;		wreg, fsr0l, fsr0h, status,2, status,0, pclath, cstack
  5643 ;; Tracked objects:
  5644 ;;		On entry : 0/0
  5645 ;;		On exit  : 0/0
  5646 ;;		Unchanged: 0/0
  5647 ;; Data sizes:     COMMON   BANK0   BANK1   BANK2   BANK3   BANK4   BANK5   BANK6   BANK7   BANK8   BANK9  BANK10  BANK1
      +1  BANK12
  5648 ;;      Params:         2       0       0       0       0       0       0       0       0       0       0       0       
      +0       0
  5649 ;;      Locals:         0       2       0       0       0       0       0       0       0       0       0       0       
      +0       0
  5650 ;;      Temps:          1       0       0       0       0       0       0       0       0       0       0       0       
      +0       0
  5651 ;;      Totals:         3       2       0       0       0       0       0       0       0       0       0       0       
      +0       0
  5652 ;;Total ram usage:        5 bytes
  5653 ;; Hardware stack levels used:    1
  5654 ;; Hardware stack levels required when called:    1
  5655 ;; This function calls:
  5656 ;;		_LCDWrite
  5657 ;; This function is called by:
  5658 ;;		_main
  5659 ;; This function uses a non-reentrant model
  5660 ;;
  5661                           
  5662                           
  5663                           ;psect for function _LCDBitmap
  5664  03D8                     _LCDBitmap:	
  5665                           
  5666                           ;lcd.c: 233: for (int index = 0 ; index < (84 * 48 / 8) ; index++)
  5667                           
  5668                           ;incstack = 0
  5669                           ; Regs used in _LCDBitmap: [wreg-fsr0h+status,2+status,0+pclath+cstack]
  5670  03D8  0020               	movlb	0	; select bank0
  5671  03D9  01A0               	clrf	LCDBitmap@index
  5672  03DA  01A1               	clrf	LCDBitmap@index+1
  5673  03DB                     L5:	
  5674  03DB  0821               	movf	LCDBitmap@index+1,w
  5675  03DC  3A80               	xorlw	128
  5676  03DD  00FD               	movwf	??_LCDBitmap
  5677  03DE  3081               	movlw	129
  5678  03DF  027D               	subwf	??_LCDBitmap,w
  5679  03E0  1D03               	skipz
  5680  03E1  2BE4               	goto	u915
  5681  03E2  30F8               	movlw	248
  5682  03E3  0220               	subwf	LCDBitmap@index,w
  5683  03E4                     u915:	
  5684  03E4  1803               	btfsc	3,0
  5685  03E5  0008               	return
  5686                           
  5687                           ;lcd.c: 234: LCDWrite(1, my_array[index]);
  5688  03E6  087B               	movf	LCDBitmap@my_array,w
  5689  03E7  0020               	movlb	0	; select bank0
  5690  03E8  0720               	addwf	LCDBitmap@index,w
  5691  03E9  0084               	movwf	4
  5692  03EA  087C               	movf	LCDBitmap@my_array+1,w
  5693  03EB  3D21               	addwfc	LCDBitmap@index+1,w
  5694  03EC  0085               	movwf	5
  5695  03ED  0800               	movf	0,w	;code access
  5696  03EE  00FD               	movwf	??_LCDBitmap
  5697  03EF  087D               	movf	??_LCDBitmap,w
  5698  03F0  00F6               	movwf	LCDWrite@data
  5699  03F1  3001               	movlw	1
  5700  03F2  3183  23FB  3183   	fcall	_LCDWrite
  5701  03F5  3001               	movlw	1
  5702  03F6  0020               	movlb	0	; select bank0
  5703  03F7  07A0               	addwf	LCDBitmap@index,f
  5704  03F8  3000               	movlw	0
  5705  03F9  3DA1               	addwfc	LCDBitmap@index+1,f
  5706  03FA  2BDB               	goto	L5
  5707  03FB                     __end_of_LCDBitmap:	
  5708                           
  5709                           	psect	text14
  5710  03FB                     __ptext14:	
  5711 ;; *************** function _LCDWrite *****************
  5712 ;; Defined at:
  5713 ;;		line 362 in file "lcd.c"
  5714 ;; Parameters:    Size  Location     Type
  5715 ;;  data_or_comm    1    wreg     unsigned char 
  5716 ;;  data            1    6[COMMON] unsigned char 
  5717 ;; Auto vars:     Size  Location     Type
  5718 ;;  data_or_comm    1    8[COMMON] unsigned char 
  5719 ;;  i               1   10[COMMON] unsigned char 
  5720 ;;  d               1    9[COMMON] unsigned char 
  5721 ;; Return value:  Size  Location     Type
  5722 ;;                  1    wreg      void 
  5723 ;; Registers used:
  5724 ;;		wreg, status,2, status,0
  5725 ;; Tracked objects:
  5726 ;;		On entry : 0/0
  5727 ;;		On exit  : 0/0
  5728 ;;		Unchanged: 0/0
  5729 ;; Data sizes:     COMMON   BANK0   BANK1   BANK2   BANK3   BANK4   BANK5   BANK6   BANK7   BANK8   BANK9  BANK10  BANK1
      +1  BANK12
  5730 ;;      Params:         1       0       0       0       0       0       0       0       0       0       0       0       
      +0       0
  5731 ;;      Locals:         3       0       0       0       0       0       0       0       0       0       0       0       
      +0       0
  5732 ;;      Temps:          1       0       0       0       0       0       0       0       0       0       0       0       
      +0       0
  5733 ;;      Totals:         5       0       0       0       0       0       0       0       0       0       0       0       
      +0       0
  5734 ;;Total ram usage:        5 bytes
  5735 ;; Hardware stack levels used:    1
  5736 ;; This function calls:
  5737 ;;		Nothing
  5738 ;; This function is called by:
  5739 ;;		_gotoXY
  5740 ;;		_LCDBitmap
  5741 ;;		_LCD_Write_Character
  5742 ;;		_LCD_Clear
  5743 ;;		_LCDInit
  5744 ;;		_drawBox
  5745 ;; This function uses a non-reentrant model
  5746 ;;
  5747                           
  5748                           
  5749                           ;psect for function _LCDWrite
  5750  03FB                     _LCDWrite:	
  5751                           
  5752                           ;incstack = 0
  5753                           ; Regs used in _LCDWrite: [wreg+status,2+status,0]
  5754                           ;LCDWrite@data_or_command stored from wreg
  5755  03FB  00F8               	movwf	LCDWrite@data_or_command
  5756                           
  5757                           ;lcd.c: 363: uint8_t i,d;
  5758                           ;lcd.c: 364: d=data;
  5759  03FC  0876               	movf	LCDWrite@data,w
  5760  03FD  00F7               	movwf	??_LCDWrite
  5761  03FE  0877               	movf	??_LCDWrite,w
  5762  03FF  00F9               	movwf	LCDWrite@d
  5763                           
  5764                           ;lcd.c: 365: if(data_or_command == 0)
  5765  0400  0878               	movf	LCDWrite@data_or_command,w
  5766  0401  1D03               	btfss	3,2
  5767  0402  2C06               	goto	l116
  5768                           
  5769                           ;lcd.c: 366: {
  5770                           ;lcd.c: 367: LATCbits.LATC3=0;
  5771  0403  0020               	movlb	0	; select bank0
  5772  0404  1198               	bcf	24,3	;volatile
  5773                           
  5774                           ;lcd.c: 368: }
  5775  0405  2C08               	goto	l117
  5776  0406                     l116:	
  5777                           
  5778                           ;lcd.c: 369: else
  5779                           ;lcd.c: 370: {
  5780                           ;lcd.c: 371: LATCbits.LATC3=1;
  5781  0406  0020               	movlb	0	; select bank0
  5782  0407  1598               	bsf	24,3	;volatile
  5783  0408                     l117:	
  5784                           
  5785                           ;lcd.c: 372: }
  5786                           ;lcd.c: 376: LATCbits.LATC6 = 0;
  5787  0408  1318               	bcf	24,6	;volatile
  5788                           
  5789                           ;lcd.c: 378: for(i=0;i<8;i++)
  5790  0409  01FA               	clrf	LCDWrite@i
  5791  040A  3008               	movlw	8
  5792  040B  027A               	subwf	LCDWrite@i,w
  5793  040C  1803               	btfsc	3,0
  5794  040D  2C1E               	goto	l119
  5795  040E                     l118:	
  5796                           
  5797                           ;lcd.c: 379: {
  5798                           ;lcd.c: 380: LATCbits.LATC4 = 0;
  5799  040E  1218               	bcf	24,4	;volatile
  5800                           
  5801                           ;lcd.c: 381: if(d&0x80)LATCbits.LATC4=1;
  5802  040F  1FF9               	btfss	LCDWrite@d,7
  5803  0410  2C12               	goto	l120
  5804  0411  1618               	bsf	24,4	;volatile
  5805  0412                     l120:	
  5806                           
  5807                           ;lcd.c: 382: LATCbits.LATC5=1;
  5808  0412  1698               	bsf	24,5	;volatile
  5809                           
  5810                           ;lcd.c: 383: d<<=1;
  5811  0413  1003               	clrc
  5812  0414  0DF9               	rlf	LCDWrite@d,f
  5813                           
  5814                           ;lcd.c: 384: LATCbits.LATC5=0;
  5815  0415  1298               	bcf	24,5	;volatile
  5816  0416  3001               	movlw	1
  5817  0417  00F7               	movwf	??_LCDWrite
  5818  0418  0877               	movf	??_LCDWrite,w
  5819  0419  07FA               	addwf	LCDWrite@i,f
  5820  041A  3008               	movlw	8
  5821  041B  027A               	subwf	LCDWrite@i,w
  5822  041C  1C03               	skipc
  5823  041D  2C0E               	goto	l118
  5824  041E                     l119:	
  5825                           
  5826                           ;lcd.c: 385: }
  5827                           ;lcd.c: 387: LATCbits.LATC6=1;
  5828  041E  1718               	bsf	24,6	;volatile
  5829  041F  0008               	return
  5830  0420                     __end_of_LCDWrite:	
  5831                           
  5832                           	psect	text15
  5833  0367                     __ptext15:	
  5834 ;; *************** function _Init *****************
  5835 ;; Defined at:
  5836 ;;		line 35 in file "system.c"
  5837 ;; Parameters:    Size  Location     Type
  5838 ;;		None
  5839 ;; Auto vars:     Size  Location     Type
  5840 ;;		None
  5841 ;; Return value:  Size  Location     Type
  5842 ;;                  1    wreg      void 
  5843 ;; Registers used:
  5844 ;;		wreg, status,2, status,0, pclath, cstack
  5845 ;; Tracked objects:
  5846 ;;		On entry : 0/0
  5847 ;;		On exit  : 0/0
  5848 ;;		Unchanged: 0/0
  5849 ;; Data sizes:     COMMON   BANK0   BANK1   BANK2   BANK3   BANK4   BANK5   BANK6   BANK7   BANK8   BANK9  BANK10  BANK1
      +1  BANK12
  5850 ;;      Params:         0       0       0       0       0       0       0       0       0       0       0       0       
      +0       0
  5851 ;;      Locals:         0       0       0       0       0       0       0       0       0       0       0       0       
      +0       0
  5852 ;;      Temps:          0       0       0       0       0       0       0       0       0       0       0       0       
      +0       0
  5853 ;;      Totals:         0       0       0       0       0       0       0       0       0       0       0       0       
      +0       0
  5854 ;;Total ram usage:        0 bytes
  5855 ;; Hardware stack levels used:    1
  5856 ;; Hardware stack levels required when called:    1
  5857 ;; This function calls:
  5858 ;;		_ADC_Init
  5859 ;;		_ConfigureOscillator
  5860 ;; This function is called by:
  5861 ;;		_main
  5862 ;; This function uses a non-reentrant model
  5863 ;;
  5864                           
  5865                           
  5866                           ;psect for function _Init
  5867  0367                     _Init:	
  5868                           
  5869                           ;system.c: 37: LATA = 0x01;
  5870                           
  5871                           ;incstack = 0
  5872                           ; Regs used in _Init: [wreg+status,2+status,0+pclath+cstack]
  5873  0367  3001               	movlw	1
  5874  0368  0020               	movlb	0	; select bank0
  5875  0369  0096               	movwf	22	;volatile
  5876                           
  5877                           ;system.c: 38: LATB = 0x00;
  5878  036A  0197               	clrf	23	;volatile
  5879                           
  5880                           ;system.c: 39: LATC = 0x00;
  5881  036B  0198               	clrf	24	;volatile
  5882                           
  5883                           ;system.c: 41: TRISA = 0x00;
  5884  036C  0191               	clrf	17	;volatile
  5885                           
  5886                           ;system.c: 42: TRISB = 0x00;
  5887  036D  0192               	clrf	18	;volatile
  5888                           
  5889                           ;system.c: 43: TRISC = 0x00;
  5890  036E  0193               	clrf	19	;volatile
  5891                           
  5892                           ;system.c: 45: ANSELA = 0x01;
  5893  036F  3001               	movlw	1
  5894  0370  003E               	movlb	30	; select bank30
  5895  0371  00B8               	movwf	56	;volatile
  5896                           
  5897                           ;system.c: 46: ANSELB = 0x00;
  5898  0372  01C3               	clrf	67	;volatile
  5899                           
  5900                           ;system.c: 47: ANSELC = 0x00;
  5901  0373  01CE               	clrf	78	;volatile
  5902                           
  5903                           ;system.c: 49: ADC_Init();
  5904  0374  3183  23A4  3183   	fcall	_ADC_Init
  5905                           
  5906                           ;system.c: 51: ConfigureOscillator();
  5907  0377  3183  2358         	fcall	_ConfigureOscillator
  5908  0379  0008               	return
  5909  037A                     __end_of_Init:	
  5910                           
  5911                           	psect	text16
  5912  0358                     __ptext16:	
  5913 ;; *************** function _ConfigureOscillator *****************
  5914 ;; Defined at:
  5915 ;;		line 54 in file "system.c"
  5916 ;; Parameters:    Size  Location     Type
  5917 ;;		None
  5918 ;; Auto vars:     Size  Location     Type
  5919 ;;		None
  5920 ;; Return value:  Size  Location     Type
  5921 ;;                  1    wreg      void 
  5922 ;; Registers used:
  5923 ;;		None
  5924 ;; Tracked objects:
  5925 ;;		On entry : 0/0
  5926 ;;		On exit  : 0/0
  5927 ;;		Unchanged: 0/0
  5928 ;; Data sizes:     COMMON   BANK0   BANK1   BANK2   BANK3   BANK4   BANK5   BANK6   BANK7   BANK8   BANK9  BANK10  BANK1
      +1  BANK12
  5929 ;;      Params:         0       0       0       0       0       0       0       0       0       0       0       0       
      +0       0
  5930 ;;      Locals:         0       0       0       0       0       0       0       0       0       0       0       0       
      +0       0
  5931 ;;      Temps:          0       0       0       0       0       0       0       0       0       0       0       0       
      +0       0
  5932 ;;      Totals:         0       0       0       0       0       0       0       0       0       0       0       0       
      +0       0
  5933 ;;Total ram usage:        0 bytes
  5934 ;; Hardware stack levels used:    1
  5935 ;; This function calls:
  5936 ;;		Nothing
  5937 ;; This function is called by:
  5938 ;;		_Init
  5939 ;; This function uses a non-reentrant model
  5940 ;;
  5941                           
  5942                           
  5943                           ;psect for function _ConfigureOscillator
  5944  0358                     _ConfigureOscillator:	
  5945                           
  5946                           ;incstack = 0
  5947                           ; Regs used in _ConfigureOscillator: []
  5948  0358  0008               	return
  5949  0359                     __end_of_ConfigureOscillator:	
  5950                           
  5951                           	psect	text17
  5952  03A4                     __ptext17:	
  5953 ;; *************** function _ADC_Init *****************
  5954 ;; Defined at:
  5955 ;;		line 4 in file "adcc.c"
  5956 ;; Parameters:    Size  Location     Type
  5957 ;;		None
  5958 ;; Auto vars:     Size  Location     Type
  5959 ;;		None
  5960 ;; Return value:  Size  Location     Type
  5961 ;;                  1    wreg      void 
  5962 ;; Registers used:
  5963 ;;		wreg, status,2
  5964 ;; Tracked objects:
  5965 ;;		On entry : 0/0
  5966 ;;		On exit  : 0/0
  5967 ;;		Unchanged: 0/0
  5968 ;; Data sizes:     COMMON   BANK0   BANK1   BANK2   BANK3   BANK4   BANK5   BANK6   BANK7   BANK8   BANK9  BANK10  BANK1
      +1  BANK12
  5969 ;;      Params:         0       0       0       0       0       0       0       0       0       0       0       0       
      +0       0
  5970 ;;      Locals:         0       0       0       0       0       0       0       0       0       0       0       0       
      +0       0
  5971 ;;      Temps:          0       0       0       0       0       0       0       0       0       0       0       0       
      +0       0
  5972 ;;      Totals:         0       0       0       0       0       0       0       0       0       0       0       0       
      +0       0
  5973 ;;Total ram usage:        0 bytes
  5974 ;; Hardware stack levels used:    1
  5975 ;; This function calls:
  5976 ;;		Nothing
  5977 ;; This function is called by:
  5978 ;;		_Init
  5979 ;; This function uses a non-reentrant model
  5980 ;;
  5981                           
  5982                           
  5983                           ;psect for function _ADC_Init
  5984  03A4                     _ADC_Init:	
  5985                           
  5986                           ;adcc.c: 7: ADCON1 = 0x00;
  5987                           
  5988                           ;incstack = 0
  5989                           ; Regs used in _ADC_Init: [wreg+status,2]
  5990  03A4  0021               	movlb	1	; select bank1
  5991  03A5  0194               	clrf	20	;volatile
  5992                           
  5993                           ;adcc.c: 9: ADCON2 = 0x00;
  5994  03A6  0195               	clrf	21	;volatile
  5995                           
  5996                           ;adcc.c: 11: ADCON3 = 0x00;
  5997  03A7  0196               	clrf	22	;volatile
  5998                           
  5999                           ;adcc.c: 13: ADACT = 0x00;
  6000  03A8  0199               	clrf	25	;volatile
  6001                           
  6002                           ;adcc.c: 15: ADSTAT = 0x00;
  6003  03A9  0197               	clrf	23	;volatile
  6004                           
  6005                           ;adcc.c: 17: ADCLK = 0x0F;
  6006  03AA  300F               	movlw	15
  6007  03AB  0098               	movwf	24	;volatile
  6008                           
  6009                           ;adcc.c: 20: ADREF = 0x00;
  6010  03AC  019A               	clrf	26	;volatile
  6011                           
  6012                           ;adcc.c: 22: ADCAP = 0x00;
  6013  03AD  019B               	clrf	27	;volatile
  6014                           
  6015                           ;adcc.c: 24: ADPRE = 0x00;
  6016  03AE  019C               	clrf	28	;volatile
  6017                           
  6018                           ;adcc.c: 26: ADACQ = 0x00;
  6019  03AF  019D               	clrf	29	;volatile
  6020                           
  6021                           ;adcc.c: 28: ADPCH = 0x00;
  6022  03B0  019E               	clrf	30	;volatile
  6023                           
  6024                           ;adcc.c: 30: ADRPT = 0x00;
  6025  03B1  0022               	movlb	2	; select bank2
  6026  03B2  018D               	clrf	13	;volatile
  6027                           
  6028                           ;adcc.c: 32: ADLTHL = 0x00;
  6029  03B3  018E               	clrf	14	;volatile
  6030                           
  6031                           ;adcc.c: 34: ADLTHH = 0x00;
  6032  03B4  018F               	clrf	15	;volatile
  6033                           
  6034                           ;adcc.c: 36: ADUTHL = 0x00;
  6035  03B5  0190               	clrf	16	;volatile
  6036                           
  6037                           ;adcc.c: 38: ADUTHH = 0x00;
  6038  03B6  0191               	clrf	17	;volatile
  6039                           
  6040                           ;adcc.c: 40: ADSTPTL = 0x00;
  6041  03B7  0192               	clrf	18	;volatile
  6042                           
  6043                           ;adcc.c: 42: ADSTPTH = 0x00;
  6044  03B8  0193               	clrf	19	;volatile
  6045                           
  6046                           ;adcc.c: 45: ADCON0 = 0x84;
  6047  03B9  3084               	movlw	132
  6048  03BA  0021               	movlb	1	; select bank1
  6049  03BB  0093               	movwf	19	;volatile
  6050  03BC  0008               	return
  6051  03BD                     __end_of_ADC_Init:	
  6052  007E                     btemp	set	126	;btemp
  6053  007E                     wtemp	set	126
  6054  007E                     wtemp0	set	126
  6055  0080                     wtemp1	set	128
  6056  0082                     wtemp2	set	130
  6057  0084                     wtemp3	set	132
  6058  0086                     wtemp4	set	134
  6059  0088                     wtemp5	set	136
  6060  007F                     wtemp6	set	127
  6061  007E                     ttemp	set	126
  6062  007E                     ttemp0	set	126
  6063  0081                     ttemp1	set	129
  6064  0084                     ttemp2	set	132
  6065  0087                     ttemp3	set	135
  6066  007F                     ttemp4	set	127
  6067  007E                     ltemp	set	126
  6068  007E                     ltemp0	set	126
  6069  0082                     ltemp1	set	130
  6070  0086                     ltemp2	set	134
  6071  0080                     ltemp3	set	128


Data Sizes:
    Strings     48
    Constant    807
    Data        0
    BSS         10
    Persistent  0
    Stack       0

Auto Spaces:
    Space          Size  Autos    Used
    COMMON           14     14      14
    BANK0            80     30      40
    BANK1            80      0       0
    BANK2            80      0       0
    BANK3            80      0       0
    BANK4            80      0       0
    BANK5            80      0       0
    BANK6            80      0       0
    BANK7            80      0       0
    BANK8            80      0       0
    BANK9            80      0       0
    BANK10           80      0       0
    BANK11           80      0       0
    BANK12           48      0       0

Pointer List with Targets:

    LCD_Write_String@characters	PTR const unsigned char  size(2) Largest target is 19
		 -> STR_4(CODE[6]), STR_3(CODE[15]), STR_2(CODE[19]), STR_1(CODE[8]), 

    LCDBitmap@my_array	PTR const unsigned char  size(2) Largest target is 504
		 -> coffee(CODE[504]), 


Critical Paths under _main in COMMON

    _main->_LCDBitmap
    _main->_gotoXY
    _readButton->_ADC_Read
    _drawBox->_gotoXY
    _LCD_Write_String->_LCD_Write_Character
    _LCD_Write_Int->_LCD_Write_Character
    _LCD_Write_Character->_LCDWrite
    _LCD_Clear->_gotoXY
    _gotoXY->_LCDWrite
    _LCDInit->_LCDWrite
    _LCDBitmap->_LCDWrite
    _LCDWrite->___wmul

Critical Paths under _main in BANK0

    _main->_LCD_Write_Int
    _LCD_Write_String->_LCD_Write_Character
    _LCD_Write_Int->_LCD_Write_Character

Critical Paths under _main in BANK1

    None.

Critical Paths under _main in BANK2

    None.

Critical Paths under _main in BANK3

    None.

Critical Paths under _main in BANK4

    None.

Critical Paths under _main in BANK5

    None.

Critical Paths under _main in BANK6

    None.

Critical Paths under _main in BANK7

    None.

Critical Paths under _main in BANK8

    None.

Critical Paths under _main in BANK9

    None.

Critical Paths under _main in BANK10

    None.

Critical Paths under _main in BANK11

    None.

Critical Paths under _main in BANK12

    None.

Call Graph Tables:

 ---------------------------------------------------------------------------------
 (Depth) Function   	        Calls       Base Space   Used Autos Params    Refs
 ---------------------------------------------------------------------------------
 (0) _main                                                 6     6      0   13892
                                             24 BANK0      6     6      0
                           _ADC_Read
                               _Init
                          _LCDBitmap
                            _LCDInit
                          _LCD_Clear
                      _LCD_Write_Int
                   _LCD_Write_String
                            _drawBox
                             _gotoXY
                         _readButton
 ---------------------------------------------------------------------------------
 (1) _readButton                                           1     1      0      22
                                              4 COMMON     1     1      0
                           _ADC_Read
 ---------------------------------------------------------------------------------
 (2) _ADC_Read                                             4     1      3      22
                                              0 COMMON     4     1      3
 ---------------------------------------------------------------------------------
 (1) _drawBox                                              3     3      0    2823
                                              0 BANK0      3     3      0
                           _LCDWrite
                             _gotoXY
 ---------------------------------------------------------------------------------
 (1) _LCD_Write_String                                     3     1      2    1507
                                              5 BANK0      3     1      2
                _LCD_Write_Character
 ---------------------------------------------------------------------------------
 (1) _LCD_Write_Int                                       19    14      5    3195
                                              5 BANK0     19    14      5
                _LCD_Write_Character
                            ___awdiv
                            ___awmod
                         _readButton (ARG)
 ---------------------------------------------------------------------------------
 (2) ___awmod                                              7     3      4     402
                                              0 COMMON     7     3      4
 ---------------------------------------------------------------------------------
 (2) ___awdiv                                              9     5      4     406
                                              0 COMMON     9     5      4
 ---------------------------------------------------------------------------------
 (2) _LCD_Write_Character                                  8     8      0    1250
                                             11 COMMON     3     3      0
                                              0 BANK0      5     5      0
                           _LCDWrite
                             ___wmul
 ---------------------------------------------------------------------------------
 (3) ___wmul                                               6     2      4     198
                                              0 COMMON     6     2      4
 ---------------------------------------------------------------------------------
 (1) _LCD_Clear                                            3     3      0    2597
                                              0 BANK0      3     3      0
                           _LCDWrite
                             _gotoXY
 ---------------------------------------------------------------------------------
 (1) _gotoXY                                               3     2      1    1589
                                             11 COMMON     3     2      1
                           _LCDWrite
 ---------------------------------------------------------------------------------
 (1) _LCDInit                                              1     1      0     962
                                             11 COMMON     1     1      0
                           _LCDWrite
 ---------------------------------------------------------------------------------
 (1) _LCDBitmap                                            5     3      2    1105
                                             11 COMMON     3     1      2
                                              0 BANK0      2     2      0
                           _LCDWrite
 ---------------------------------------------------------------------------------
 (2) _LCDWrite                                             5     4      1     962
                                              6 COMMON     5     4      1
                             ___wmul (ARG)
 ---------------------------------------------------------------------------------
 (1) _Init                                                 0     0      0       0
                           _ADC_Init
                _ConfigureOscillator
 ---------------------------------------------------------------------------------
 (2) _ConfigureOscillator                                  0     0      0       0
 ---------------------------------------------------------------------------------
 (2) _ADC_Init                                             0     0      0       0
 ---------------------------------------------------------------------------------
 Estimated maximum stack depth 3
 ---------------------------------------------------------------------------------

 Call Graph Graphs:

 _main (ROOT)
   _ADC_Read
   _Init
     _ADC_Init
     _ConfigureOscillator
   _LCDBitmap
     _LCDWrite
       ___wmul (ARG)
   _LCDInit
     _LCDWrite
       ___wmul (ARG)
   _LCD_Clear
     _LCDWrite
       ___wmul (ARG)
     _gotoXY
       _LCDWrite
         ___wmul (ARG)
   _LCD_Write_Int
     _LCD_Write_Character
       _LCDWrite
         ___wmul (ARG)
       ___wmul
     ___awdiv
     ___awmod
     _readButton (ARG)
       _ADC_Read
   _LCD_Write_String
     _LCD_Write_Character
       _LCDWrite
         ___wmul (ARG)
       ___wmul
   _drawBox
     _LCDWrite
       ___wmul (ARG)
     _gotoXY
       _LCDWrite
         ___wmul (ARG)
   _gotoXY
     _LCDWrite
       ___wmul (ARG)
   _readButton
     _ADC_Read

 Address spaces:
Name               Size   Autos  Total    Cost      Usage
BIGRAM             3F0      0       0       0        0.0%
EEDATA             100      0       0       0        0.0%
NULL                 0      0       0       0        0.0%
CODE                 0      0       0       0        0.0%
BITCOMMON            E      0       0       1        0.0%
BITSFR0              0      0       0       1        0.0%
SFR0                 0      0       0       1        0.0%
COMMON               E      E       E       2      100.0%
BITSFR1              0      0       0       2        0.0%
SFR1                 0      0       0       2        0.0%
BITSFR2              0      0       0       3        0.0%
SFR2                 0      0       0       3        0.0%
STACK                0      0       0       3        0.0%
BITBANK0            50      0       0       4        0.0%
BITSFR3              0      0       0       4        0.0%
SFR3                 0      0       0       4        0.0%
BANK0               50     1E      28       5       50.0%
BITSFR4              0      0       0       5        0.0%
SFR4                 0      0       0       5        0.0%
BITBANK1            50      0       0       6        0.0%
BITSFR5              0      0       0       6        0.0%
SFR5                 0      0       0       6        0.0%
BANK1               50      0       0       7        0.0%
BITSFR6              0      0       0       7        0.0%
SFR6                 0      0       0       7        0.0%
BITBANK2            50      0       0       8        0.0%
BITSFR7              0      0       0       8        0.0%
SFR7                 0      0       0       8        0.0%
BANK2               50      0       0       9        0.0%
BITSFR8              0      0       0       9        0.0%
SFR8                 0      0       0       9        0.0%
BITBANK3            50      0       0      10        0.0%
BITSFR9              0      0       0      10        0.0%
SFR9                 0      0       0      10        0.0%
BANK3               50      0       0      11        0.0%
BITSFR10             0      0       0      11        0.0%
SFR10                0      0       0      11        0.0%
BITBANK4            50      0       0      12        0.0%
BITSFR11             0      0       0      12        0.0%
SFR11                0      0       0      12        0.0%
BANK4               50      0       0      13        0.0%
BITSFR12             0      0       0      13        0.0%
SFR12                0      0       0      13        0.0%
BITBANK5            50      0       0      14        0.0%
BITSFR13             0      0       0      14        0.0%
SFR13                0      0       0      14        0.0%
BANK5               50      0       0      15        0.0%
BITSFR14             0      0       0      15        0.0%
SFR14                0      0       0      15        0.0%
BITBANK6            50      0       0      16        0.0%
BITSFR15             0      0       0      16        0.0%
SFR15                0      0       0      16        0.0%
BANK6               50      0       0      17        0.0%
BITSFR16             0      0       0      17        0.0%
SFR16                0      0       0      17        0.0%
BITBANK7            50      0       0      18        0.0%
BITSFR17             0      0       0      18        0.0%
SFR17                0      0       0      18        0.0%
BANK7               50      0       0      19        0.0%
BITSFR18             0      0       0      19        0.0%
SFR18                0      0       0      19        0.0%
BITSFR19             0      0       0      20        0.0%
SFR19                0      0       0      20        0.0%
ABS                  0      0      36      20        0.0%
BITBANK8            50      0       0      21        0.0%
BITSFR20             0      0       0      21        0.0%
SFR20                0      0       0      21        0.0%
BANK8               50      0       0      22        0.0%
BITSFR21             0      0       0      22        0.0%
SFR21                0      0       0      22        0.0%
BITBANK9            50      0       0      23        0.0%
BITSFR22             0      0       0      23        0.0%
SFR22                0      0       0      23        0.0%
BANK9               50      0       0      24        0.0%
BITSFR23             0      0       0      24        0.0%
SFR23                0      0       0      24        0.0%
BITBANK10           50      0       0      25        0.0%
BITSFR24             0      0       0      25        0.0%
SFR24                0      0       0      25        0.0%
BANK10              50      0       0      26        0.0%
BITSFR25             0      0       0      26        0.0%
SFR25                0      0       0      26        0.0%
BITBANK11           50      0       0      27        0.0%
BITSFR26             0      0       0      27        0.0%
SFR26                0      0       0      27        0.0%
BANK11              50      0       0      28        0.0%
BITSFR27             0      0       0      28        0.0%
SFR27                0      0       0      28        0.0%
BITBANK12           30      0       0      29        0.0%
BITSFR28             0      0       0      29        0.0%
SFR28                0      0       0      29        0.0%
BANK12              30      0       0      30        0.0%
BITSFR29             0      0       0      30        0.0%
SFR29                0      0       0      30        0.0%
BITSFR30             0      0       0      31        0.0%
SFR30                0      0       0      31        0.0%
DATA                 0      0      36      31        0.0%
BITSFR31             0      0       0      32        0.0%
SFR31                0      0       0      32        0.0%


Microchip Technology PIC Macro Assembler V1.38 build -256452561 
Symbol Table                                                                                   Sun Aug 05 21:18:24 2018

                           _x 0046                             _y 0047                   __CFG_CP$OFF 0000  
                          l50 0360                  ___awdiv@sign 0076           ___wmul@multiplicand 0072  
                 __CFG_LVP$ON 0000                           l120 0412                           l116 0406  
                         l117 0408                           l118 040E                           l119 041E  
                         l291 03C5                  __CFG_CPD$OFF 0000                           u705 051E  
                         u715 0555                           u665 03C6                           u915 03E4  
                         u675 03CB                           u755 057C                           u775 0586  
                         u855 049D                           u960 0732                           u945 042C  
                         u785 0590                           u955 0441                           u795 0598  
                         u875 04AC                           u885 04B3                  ___awmod@sign 0076  
                __CFG_BORV$LO 0000                           wreg 0009  __size_of_LCD_Write_Character 004B  
             __end_of_LCDInit 0483                  __CFG_ZCD$OFF 0000                          l1201 0597  
                        l1205 05A0                          l1221 048D                          l1161 0520  
                        l1209 05A8                          l1233 049A                          l1225 0494  
                        l1313 0783                          l1235 04A6                          l1243 04BB  
                        l1331 07DD                          l1315 0787                          l1307 0750  
                        l1325 07A3                          l1317 078F                          l1309 077F  
                        l1413 04E2                          l1167 0557                          l1183 0571  
                        l1247 04C3                          l1239 04B2                          l1327 07CF  
                        l1319 079F                          l1351 05D7                          l1431 050F  
                        l1193 0579                          l1177 0566                          l1345 05BB  
                        l1425 0502                          l1283 0443                          l1099 03BF  
                        l1195 0585                          l1363 0607                          l1419 04F2  
                        l1277 042E                          l1269 038D                          l1357 05E5  
                        l1429 050E                          l1375 0637                          l1463 06EC  
                        l1297 0749                          l1369 0615                          l1475 06D5  
                        STR_1 0B49                          STR_2 0B27                          STR_3 0B3A  
                        STR_4 0B51                          u1025 07BD                          u1105 0635  
                        u1115 0643                          u1055 05B9                          u1065 05D5  
                        u1217 0678                          u1075 05E3                          u1227 069A  
                        u1085 0605                          u1237 06CA                          _LATA 0016  
                        _LATB 0017                          u1095 0613                          _LATC 0018  
                        _Init 0367                  __CFG_WRT$OFF 0000                 __CFG_FCMEN$ON 0000  
          __size_of_LCDBitmap 0023             ?_LCD_Write_String 0025                          _main 065D  
          __size_of_LCD_Clear 0028                          fsr0h 0005                          fsr1h 0007  
                        fsr0l 0004                          indf0 0000                          indf1 0001  
                        fsr1l 0006                          btemp 007E             LCDBitmap@my_array 007B  
            __end_of_ADC_Init 03BD              __end_of_ADC_Read 0367                 __CFG_BOREN$ON 0000  
                        ltemp 007E                          start 0002            ??_LCD_Write_String 0027  
                        ttemp 007E                          wtemp 007E                 __CFG_MCLRE$ON 0000  
               _LCD_Write_Int 0727              __end_of_LCDWrite 0420                         ?_Init 0070  
                       _ADACQ 009D                         _ADCAP 009B                         _ADACT 0099  
                       ?_main 0070                         _ADCLK 0098                         _ADPCH 009E  
                       _ADREF 009A               __end_of___awdiv 05AD                         _ADPRE 009C  
               __CFG_WDTE$OFF 0000               __end_of___awmod 04C8                         _ADRPT 010D  
             ___awdiv@divisor 0070               ___awdiv@counter 0075                         _TRISA 0011  
                       _TRISB 0012                         _TRISC 0013           _ConfigureOscillator 0358  
             __end_of_drawBox 065D                         _fonts 0800                         main@b 003D  
                       ltemp0 007E                         ltemp1 0082                         ltemp2 0086  
                       ltemp3 0080                         ttemp0 007E                         ttemp1 0081  
                       ttemp2 0084                         ttemp3 0087                         ttemp4 007F  
                       status 0003                         wtemp0 007E                         wtemp1 0080  
                       wtemp2 0082                         wtemp3 0084                         wtemp4 0086  
                       wtemp5 0088                         wtemp6 007F          ?_ConfigureOscillator 0070  
              LCDBitmap@index 0020                ?_LCD_Write_Int 0025                __CFG_CSWEN$OFF 0000  
             __initialization 07F2                  __end_of_Init 037A                  __end_of_main 0727  
                      ??_Init 0070             __end_of_LCDBitmap 03FB                        ??_main 0038  
           __end_of_LCD_Clear 0448                     ??_LCDInit 007B       LCDWrite@data_or_command 0078  
                      _ADCON0 0093                        _ADCON1 0094                        _ADCON2 0095  
                      _ADCON3 0096                        _ADLTHH 010F                        _ADLTHL 010E  
                      _ADRESH 008D                        _ADRESL 008C                        _ADSTAT 0097  
                      _ADUTHH 0111              ___awdiv@dividend 0072                        _ADUTHL 0110  
                      _ANSELA 0F38                        _ANSELB 0F43                        _ANSELC 0F4E  
          __CFG_RSTOSC$HFINT1 0000                __CFG_WDTCCS$SC 0000         ??_ConfigureOscillator 0070  
              __CFG_PWRTE$OFF 0000        LCD_Write_Int@numPlaces 0028                        ___wmul 03BD  
                   ??___awdiv 0074                __CFG_STVREN$ON 0000                     ??___awmod 0074  
                      _coffee 092F               ADC_Read@channel 0073                        _gotoXY 037A  
                      _button 0045              ___awdiv@quotient 0077               ___awmod@divisor 0070  
             ___awmod@counter 0075                     ??_drawBox 0020                  LCDWrite@data 0076  
                   ?_ADC_Init 0070                     ?_ADC_Read 0070              LCD_Write_Int@str 002F  
     __end_of__initialization 07FD                     ?_LCDWrite 0076               ??_LCD_Write_Int 002A  
              __pcstackCOMMON 0070           _LCD_Write_Character 0511                 __end_of_fonts 092F  
                   LCDWrite@d 0079                     LCDWrite@i 007A                    ??_ADC_Init 0070  
                  ??_ADC_Read 0073          ?_LCD_Write_Character 0070                    __pbssBANK0 003E  
                  ??_LCDWrite 0077                    __pmaintext 065D                       ?___wmul 0070  
             __CFG_PPS1WAY$ON 0000                       ?_gotoXY 007B     __size_of_LCD_Write_String 0017  
                     _ADSTPTH 0113                       _ADSTPTL 0112                       _LCDInit 0448  
       ??_LCD_Write_Character 0020                LCD_Clear@index 0021          __CFG_SCANE$available 0000  
                     ___awdiv 055C                       ___awmod 0483                    _readButton 04C8  
             __size_of___wmul 001B               __size_of_gotoXY 0013                       __ptext1 04C8  
                     __ptext2 0359                       __ptext3 05AD                       __ptext4 038D  
                     __ptext5 0727                       __ptext6 0483                       __ptext7 055C  
                     __ptext8 0511                       __ptext9 03BD                       _drawBox 05AD  
            ___awmod@dividend 0072                     _LCDBitmap 03D8                     _LCD_Clear 0420  
        end_of_initialization 07FD                       gotoXY@x 007D                       gotoXY@y 007B  
           LCD_Write_Int@sign 0029    LCD_Write_String@characters 0025                  __pstringtext 0800  
       __CFG_WDTCPS$WDTCPS_31 0000      LCD_Write_Character@index 007C                    ?_LCDBitmap 007B  
                   _TRISCbits 0013                    ?_LCD_Clear 0070             __size_of_ADC_Init 0019  
           __size_of_ADC_Read 000E              __CFG_FEXTOSC$OFF 0000   __end_of_ConfigureOscillator 0359  
           __size_of_LCDWrite 0025                   ?_readButton 0070                __end_of___wmul 03D8  
            _LCD_Write_String 038D                __end_of_coffee 0B27                __end_of_gotoXY 038D  
         start_initialization 07F2      LCD_Write_Int@fieldLength 0027         __end_of_LCD_Write_Int 07F2  
            __CFG_LPBOREN$OFF 0000                      ??___wmul 0074                      ??_gotoXY 007C  
                    ?_LCDInit 0070                     ___latbits 0002                   ??_LCDBitmap 007D  
               __pcstackBANK0 0020                   ??_LCD_Clear 0020           __size_of_readButton 0049  
                    ?___awdiv 0070                      ?___awmod 0070   __end_of_LCD_Write_Character 055C  
                    ?_drawBox 0070                      _ADC_Init 03A4                      _ADC_Read 0359  
              ___wmul@product 0074                      _LATCbits 0018                      _LCDWrite 03FB  
                  _ADCON0bits 0093             ___wmul@multiplier 0070                     main@count 003B  
            __size_of_LCDInit 003B      __end_of_LCD_Write_String 03A4                  ??_readButton 0074  
              LCD_Write_Int@i 0036                LCD_Write_Int@j 0034              __size_of___awdiv 0051  
            __size_of___awmod 0045                   _readButtons 0043              __size_of_drawBox 00B0  
                    __ptext10 0420                      __ptext11 037A                      __ptext12 0448  
                    __ptext13 03D8                      __ptext14 03FB                      __ptext15 0367  
                    __ptext16 0358                      __ptext17 03A4            __end_of_readButton 0511  
         LCD_Write_Int@F13665 003E                 __size_of_Init 0013                 __size_of_main 00CA  
        __CFG_WDTCWS$WDTCWS_7 0000  __size_of_ConfigureOscillator 0001                      drawBox@j 0021  
           __CFG_CLKOUTEN$OFF 0000            LCD_Write_Int@value 0025        __size_of_LCD_Write_Int 00CB  
LCD_Write_Character@character 007B  
