

Microchip Technology PIC LITE Macro Assembler V1.35 build -356382666 
                                                                                               Fri Apr 21 21:54:42 2017

Microchip Technology Omniscient Code Generator v1.35 (Free mode) build 201507080246
     1                           	processor	16F18855
     2                           	opt	pw 120
     3                           	opt	lm
     4                           	psect	stringtext,global,class=STRCODE,delta=2
     5                           	psect	cinit,global,class=CODE,merge=1,delta=2
     6                           	psect	bssBANK0,global,class=BANK0,space=1,delta=1
     7                           	psect	cstackCOMMON,global,class=COMMON,space=1,delta=1
     8                           	psect	cstackBANK0,global,class=BANK0,space=1,delta=1
     9                           	psect	maintext,global,class=CODE,merge=1,split=1,delta=2
    10                           	psect	text1,local,class=CODE,merge=1,delta=2
    11                           	psect	text2,local,class=CODE,merge=1,delta=2
    12                           	psect	text3,local,class=CODE,merge=1,delta=2
    13                           	psect	text4,local,class=CODE,merge=1,delta=2
    14                           	psect	text5,local,class=CODE,merge=1,delta=2
    15                           	psect	text6,local,class=CODE,merge=1,delta=2
    16                           	psect	text7,local,class=CODE,merge=1,delta=2
    17                           	psect	text8,local,class=CODE,merge=1,delta=2
    18                           	psect	text9,local,class=CODE,merge=1,delta=2
    19                           	psect	text10,local,class=CODE,merge=1,delta=2
    20                           	psect	text11,local,class=CODE,merge=1,delta=2
    21                           	psect	text12,local,class=CODE,merge=1,delta=2
    22                           	psect	text13,local,class=CODE,merge=1,delta=2
    23                           	psect	text14,local,class=CODE,merge=1,delta=2
    24                           	psect	text15,local,class=CODE,merge=1,delta=2
    25                           	psect	text16,local,class=CODE,merge=1,delta=2
    26                           	psect	text17,local,class=CODE,merge=1,delta=2
    27                           	psect	text18,local,class=CODE,merge=1,delta=2
    28                           	psect	text19,local,class=CODE,merge=1,delta=2
    29                           	dabs	1,0x7E,2
    30  0000                     	;# 
    31  0001                     	;# 
    32  0002                     	;# 
    33  0003                     	;# 
    34  0004                     	;# 
    35  0005                     	;# 
    36  0006                     	;# 
    37  0007                     	;# 
    38  0008                     	;# 
    39  0009                     	;# 
    40  000A                     	;# 
    41  000B                     	;# 
    42  000C                     	;# 
    43  000D                     	;# 
    44  000E                     	;# 
    45  0010                     	;# 
    46  0011                     	;# 
    47  0012                     	;# 
    48  0013                     	;# 
    49  0016                     	;# 
    50  0017                     	;# 
    51  0018                     	;# 
    52  001C                     	;# 
    53  001C                     	;# 
    54  001D                     	;# 
    55  001D                     	;# 
    56  001E                     	;# 
    57  001F                     	;# 
    58  008C                     	;# 
    59  008C                     	;# 
    60  008D                     	;# 
    61  008E                     	;# 
    62  008E                     	;# 
    63  008F                     	;# 
    64  0090                     	;# 
    65  0090                     	;# 
    66  0091                     	;# 
    67  0093                     	;# 
    68  0094                     	;# 
    69  0095                     	;# 
    70  0096                     	;# 
    71  0097                     	;# 
    72  0098                     	;# 
    73  0099                     	;# 
    74  009A                     	;# 
    75  009B                     	;# 
    76  009C                     	;# 
    77  009D                     	;# 
    78  009E                     	;# 
    79  010C                     	;# 
    80  010D                     	;# 
    81  010E                     	;# 
    82  010E                     	;# 
    83  010F                     	;# 
    84  0110                     	;# 
    85  0110                     	;# 
    86  0111                     	;# 
    87  0112                     	;# 
    88  0112                     	;# 
    89  0113                     	;# 
    90  0114                     	;# 
    91  0114                     	;# 
    92  0115                     	;# 
    93  0116                     	;# 
    94  0116                     	;# 
    95  0117                     	;# 
    96  0119                     	;# 
    97  0119                     	;# 
    98  0119                     	;# 
    99  011A                     	;# 
   100  011A                     	;# 
   101  011A                     	;# 
   102  011B                     	;# 
   103  011B                     	;# 
   104  011B                     	;# 
   105  011B                     	;# 
   106  011B                     	;# 
   107  011C                     	;# 
   108  011C                     	;# 
   109  011C                     	;# 
   110  011D                     	;# 
   111  011D                     	;# 
   112  011D                     	;# 
   113  011E                     	;# 
   114  011E                     	;# 
   115  011E                     	;# 
   116  011F                     	;# 
   117  011F                     	;# 
   118  011F                     	;# 
   119  011F                     	;# 
   120  011F                     	;# 
   121  018C                     	;# 
   122  018D                     	;# 
   123  018E                     	;# 
   124  018F                     	;# 
   125  0190                     	;# 
   126  0191                     	;# 
   127  0192                     	;# 
   128  0196                     	;# 
   129  0197                     	;# 
   130  0198                     	;# 
   131  0199                     	;# 
   132  019A                     	;# 
   133  019B                     	;# 
   134  019C                     	;# 
   135  020C                     	;# 
   136  020D                     	;# 
   137  020E                     	;# 
   138  020F                     	;# 
   139  020F                     	;# 
   140  0210                     	;# 
   141  0210                     	;# 
   142  0211                     	;# 
   143  0211                     	;# 
   144  0212                     	;# 
   145  0213                     	;# 
   146  0214                     	;# 
   147  0215                     	;# 
   148  0215                     	;# 
   149  0216                     	;# 
   150  0216                     	;# 
   151  0217                     	;# 
   152  0217                     	;# 
   153  0218                     	;# 
   154  0219                     	;# 
   155  021A                     	;# 
   156  021B                     	;# 
   157  021B                     	;# 
   158  021C                     	;# 
   159  021C                     	;# 
   160  021D                     	;# 
   161  021D                     	;# 
   162  021E                     	;# 
   163  021F                     	;# 
   164  028C                     	;# 
   165  028C                     	;# 
   166  028D                     	;# 
   167  028D                     	;# 
   168  028E                     	;# 
   169  028F                     	;# 
   170  0290                     	;# 
   171  0291                     	;# 
   172  0292                     	;# 
   173  0292                     	;# 
   174  0293                     	;# 
   175  0293                     	;# 
   176  0294                     	;# 
   177  0295                     	;# 
   178  0296                     	;# 
   179  0297                     	;# 
   180  0298                     	;# 
   181  0298                     	;# 
   182  0299                     	;# 
   183  0299                     	;# 
   184  029A                     	;# 
   185  029B                     	;# 
   186  029C                     	;# 
   187  029D                     	;# 
   188  030C                     	;# 
   189  030C                     	;# 
   190  030D                     	;# 
   191  030E                     	;# 
   192  030F                     	;# 
   193  0310                     	;# 
   194  0310                     	;# 
   195  0311                     	;# 
   196  0312                     	;# 
   197  0313                     	;# 
   198  0314                     	;# 
   199  0314                     	;# 
   200  0315                     	;# 
   201  0316                     	;# 
   202  0317                     	;# 
   203  0318                     	;# 
   204  0318                     	;# 
   205  0319                     	;# 
   206  031A                     	;# 
   207  031B                     	;# 
   208  031C                     	;# 
   209  031C                     	;# 
   210  031D                     	;# 
   211  031E                     	;# 
   212  031F                     	;# 
   213  038C                     	;# 
   214  038C                     	;# 
   215  038D                     	;# 
   216  038E                     	;# 
   217  0390                     	;# 
   218  0390                     	;# 
   219  0391                     	;# 
   220  0392                     	;# 
   221  040C                     	;# 
   222  040D                     	;# 
   223  040E                     	;# 
   224  040F                     	;# 
   225  0410                     	;# 
   226  0411                     	;# 
   227  0416                     	;# 
   228  0416                     	;# 
   229  0417                     	;# 
   230  0418                     	;# 
   231  0418                     	;# 
   232  0419                     	;# 
   233  041A                     	;# 
   234  041A                     	;# 
   235  041B                     	;# 
   236  041C                     	;# 
   237  041C                     	;# 
   238  041D                     	;# 
   239  041E                     	;# 
   240  041F                     	;# 
   241  048C                     	;# 
   242  048C                     	;# 
   243  048D                     	;# 
   244  048E                     	;# 
   245  048F                     	;# 
   246  048F                     	;# 
   247  0490                     	;# 
   248  0491                     	;# 
   249  0492                     	;# 
   250  0492                     	;# 
   251  0493                     	;# 
   252  0494                     	;# 
   253  0495                     	;# 
   254  0495                     	;# 
   255  0496                     	;# 
   256  0497                     	;# 
   257  0498                     	;# 
   258  0499                     	;# 
   259  049A                     	;# 
   260  049B                     	;# 
   261  049C                     	;# 
   262  049D                     	;# 
   263  050C                     	;# 
   264  050C                     	;# 
   265  050D                     	;# 
   266  050E                     	;# 
   267  050F                     	;# 
   268  050F                     	;# 
   269  0510                     	;# 
   270  0511                     	;# 
   271  0512                     	;# 
   272  0512                     	;# 
   273  0513                     	;# 
   274  0514                     	;# 
   275  0515                     	;# 
   276  0515                     	;# 
   277  0516                     	;# 
   278  0517                     	;# 
   279  0518                     	;# 
   280  0519                     	;# 
   281  051A                     	;# 
   282  051B                     	;# 
   283  051C                     	;# 
   284  051D                     	;# 
   285  058C                     	;# 
   286  058C                     	;# 
   287  058D                     	;# 
   288  058E                     	;# 
   289  058F                     	;# 
   290  058F                     	;# 
   291  0590                     	;# 
   292  0591                     	;# 
   293  0592                     	;# 
   294  0593                     	;# 
   295  060C                     	;# 
   296  060D                     	;# 
   297  060E                     	;# 
   298  060F                     	;# 
   299  0610                     	;# 
   300  0611                     	;# 
   301  0612                     	;# 
   302  0613                     	;# 
   303  0614                     	;# 
   304  0616                     	;# 
   305  0617                     	;# 
   306  0618                     	;# 
   307  0619                     	;# 
   308  061A                     	;# 
   309  061B                     	;# 
   310  061C                     	;# 
   311  061D                     	;# 
   312  061E                     	;# 
   313  068C                     	;# 
   314  068D                     	;# 
   315  068E                     	;# 
   316  068F                     	;# 
   317  0690                     	;# 
   318  0691                     	;# 
   319  0692                     	;# 
   320  0693                     	;# 
   321  0694                     	;# 
   322  070C                     	;# 
   323  070D                     	;# 
   324  070E                     	;# 
   325  070F                     	;# 
   326  0710                     	;# 
   327  0711                     	;# 
   328  0712                     	;# 
   329  0713                     	;# 
   330  0714                     	;# 
   331  0716                     	;# 
   332  0717                     	;# 
   333  0718                     	;# 
   334  0719                     	;# 
   335  071A                     	;# 
   336  071B                     	;# 
   337  071C                     	;# 
   338  071D                     	;# 
   339  071E                     	;# 
   340  0796                     	;# 
   341  0797                     	;# 
   342  0798                     	;# 
   343  0799                     	;# 
   344  079A                     	;# 
   345  079B                     	;# 
   346  080C                     	;# 
   347  080D                     	;# 
   348  080E                     	;# 
   349  080F                     	;# 
   350  0810                     	;# 
   351  0811                     	;# 
   352  0812                     	;# 
   353  0813                     	;# 
   354  0814                     	;# 
   355  081A                     	;# 
   356  081B                     	;# 
   357  081C                     	;# 
   358  081D                     	;# 
   359  081E                     	;# 
   360  081F                     	;# 
   361  088C                     	;# 
   362  088D                     	;# 
   363  088E                     	;# 
   364  088F                     	;# 
   365  0890                     	;# 
   366  0891                     	;# 
   367  0892                     	;# 
   368  0893                     	;# 
   369  0895                     	;# 
   370  0896                     	;# 
   371  0897                     	;# 
   372  0898                     	;# 
   373  0899                     	;# 
   374  089A                     	;# 
   375  089B                     	;# 
   376  090C                     	;# 
   377  090E                     	;# 
   378  090F                     	;# 
   379  091F                     	;# 
   380  098F                     	;# 
   381  098F                     	;# 
   382  0990                     	;# 
   383  0991                     	;# 
   384  0992                     	;# 
   385  0993                     	;# 
   386  0994                     	;# 
   387  0995                     	;# 
   388  0996                     	;# 
   389  0997                     	;# 
   390  0E0F                     	;# 
   391  0E10                     	;# 
   392  0E11                     	;# 
   393  0E12                     	;# 
   394  0E13                     	;# 
   395  0E14                     	;# 
   396  0E15                     	;# 
   397  0E16                     	;# 
   398  0E17                     	;# 
   399  0E18                     	;# 
   400  0E19                     	;# 
   401  0E1A                     	;# 
   402  0E1B                     	;# 
   403  0E1C                     	;# 
   404  0E1D                     	;# 
   405  0E1E                     	;# 
   406  0E1F                     	;# 
   407  0E20                     	;# 
   408  0E21                     	;# 
   409  0E22                     	;# 
   410  0E23                     	;# 
   411  0E24                     	;# 
   412  0E25                     	;# 
   413  0E26                     	;# 
   414  0E27                     	;# 
   415  0E28                     	;# 
   416  0E29                     	;# 
   417  0E2A                     	;# 
   418  0E2B                     	;# 
   419  0E2C                     	;# 
   420  0E2D                     	;# 
   421  0E2E                     	;# 
   422  0E2F                     	;# 
   423  0E30                     	;# 
   424  0E31                     	;# 
   425  0E32                     	;# 
   426  0E33                     	;# 
   427  0E34                     	;# 
   428  0E35                     	;# 
   429  0E36                     	;# 
   430  0E37                     	;# 
   431  0E8F                     	;# 
   432  0E90                     	;# 
   433  0E91                     	;# 
   434  0E92                     	;# 
   435  0E93                     	;# 
   436  0E94                     	;# 
   437  0E95                     	;# 
   438  0E96                     	;# 
   439  0E97                     	;# 
   440  0E9C                     	;# 
   441  0E9D                     	;# 
   442  0E9E                     	;# 
   443  0EA1                     	;# 
   444  0EA2                     	;# 
   445  0EA3                     	;# 
   446  0EA4                     	;# 
   447  0EA5                     	;# 
   448  0EA9                     	;# 
   449  0EAA                     	;# 
   450  0EAB                     	;# 
   451  0EAC                     	;# 
   452  0EB1                     	;# 
   453  0EB2                     	;# 
   454  0EB3                     	;# 
   455  0EB8                     	;# 
   456  0EB9                     	;# 
   457  0EBA                     	;# 
   458  0EBB                     	;# 
   459  0EBC                     	;# 
   460  0EBD                     	;# 
   461  0EBE                     	;# 
   462  0EC3                     	;# 
   463  0EC5                     	;# 
   464  0EC6                     	;# 
   465  0EC7                     	;# 
   466  0EC8                     	;# 
   467  0EC9                     	;# 
   468  0ECA                     	;# 
   469  0ECB                     	;# 
   470  0ECC                     	;# 
   471  0F10                     	;# 
   472  0F11                     	;# 
   473  0F12                     	;# 
   474  0F13                     	;# 
   475  0F14                     	;# 
   476  0F15                     	;# 
   477  0F16                     	;# 
   478  0F17                     	;# 
   479  0F18                     	;# 
   480  0F19                     	;# 
   481  0F1A                     	;# 
   482  0F1B                     	;# 
   483  0F1C                     	;# 
   484  0F1D                     	;# 
   485  0F1E                     	;# 
   486  0F1F                     	;# 
   487  0F20                     	;# 
   488  0F21                     	;# 
   489  0F22                     	;# 
   490  0F23                     	;# 
   491  0F24                     	;# 
   492  0F25                     	;# 
   493  0F26                     	;# 
   494  0F27                     	;# 
   495  0F38                     	;# 
   496  0F39                     	;# 
   497  0F3A                     	;# 
   498  0F3B                     	;# 
   499  0F3C                     	;# 
   500  0F3D                     	;# 
   501  0F3E                     	;# 
   502  0F3F                     	;# 
   503  0F40                     	;# 
   504  0F41                     	;# 
   505  0F43                     	;# 
   506  0F44                     	;# 
   507  0F45                     	;# 
   508  0F46                     	;# 
   509  0F47                     	;# 
   510  0F48                     	;# 
   511  0F49                     	;# 
   512  0F4A                     	;# 
   513  0F4B                     	;# 
   514  0F4C                     	;# 
   515  0F4E                     	;# 
   516  0F4F                     	;# 
   517  0F50                     	;# 
   518  0F51                     	;# 
   519  0F52                     	;# 
   520  0F53                     	;# 
   521  0F54                     	;# 
   522  0F55                     	;# 
   523  0F56                     	;# 
   524  0F57                     	;# 
   525  0F65                     	;# 
   526  0F68                     	;# 
   527  0F69                     	;# 
   528  0F6A                     	;# 
   529  0F6B                     	;# 
   530  0FE4                     	;# 
   531  0FE5                     	;# 
   532  0FE6                     	;# 
   533  0FE7                     	;# 
   534  0FE8                     	;# 
   535  0FE9                     	;# 
   536  0FEA                     	;# 
   537  0FEB                     	;# 
   538  0FED                     	;# 
   539  0FEE                     	;# 
   540  0FEF                     	;# 
   541  0000                     	;# 
   542  0001                     	;# 
   543  0002                     	;# 
   544  0003                     	;# 
   545  0004                     	;# 
   546  0005                     	;# 
   547  0006                     	;# 
   548  0007                     	;# 
   549  0008                     	;# 
   550  0009                     	;# 
   551  000A                     	;# 
   552  000B                     	;# 
   553  000C                     	;# 
   554  000D                     	;# 
   555  000E                     	;# 
   556  0010                     	;# 
   557  0011                     	;# 
   558  0012                     	;# 
   559  0013                     	;# 
   560  0016                     	;# 
   561  0017                     	;# 
   562  0018                     	;# 
   563  001C                     	;# 
   564  001C                     	;# 
   565  001D                     	;# 
   566  001D                     	;# 
   567  001E                     	;# 
   568  001F                     	;# 
   569  008C                     	;# 
   570  008C                     	;# 
   571  008D                     	;# 
   572  008E                     	;# 
   573  008E                     	;# 
   574  008F                     	;# 
   575  0090                     	;# 
   576  0090                     	;# 
   577  0091                     	;# 
   578  0093                     	;# 
   579  0094                     	;# 
   580  0095                     	;# 
   581  0096                     	;# 
   582  0097                     	;# 
   583  0098                     	;# 
   584  0099                     	;# 
   585  009A                     	;# 
   586  009B                     	;# 
   587  009C                     	;# 
   588  009D                     	;# 
   589  009E                     	;# 
   590  010C                     	;# 
   591  010D                     	;# 
   592  010E                     	;# 
   593  010E                     	;# 
   594  010F                     	;# 
   595  0110                     	;# 
   596  0110                     	;# 
   597  0111                     	;# 
   598  0112                     	;# 
   599  0112                     	;# 
   600  0113                     	;# 
   601  0114                     	;# 
   602  0114                     	;# 
   603  0115                     	;# 
   604  0116                     	;# 
   605  0116                     	;# 
   606  0117                     	;# 
   607  0119                     	;# 
   608  0119                     	;# 
   609  0119                     	;# 
   610  011A                     	;# 
   611  011A                     	;# 
   612  011A                     	;# 
   613  011B                     	;# 
   614  011B                     	;# 
   615  011B                     	;# 
   616  011B                     	;# 
   617  011B                     	;# 
   618  011C                     	;# 
   619  011C                     	;# 
   620  011C                     	;# 
   621  011D                     	;# 
   622  011D                     	;# 
   623  011D                     	;# 
   624  011E                     	;# 
   625  011E                     	;# 
   626  011E                     	;# 
   627  011F                     	;# 
   628  011F                     	;# 
   629  011F                     	;# 
   630  011F                     	;# 
   631  011F                     	;# 
   632  018C                     	;# 
   633  018D                     	;# 
   634  018E                     	;# 
   635  018F                     	;# 
   636  0190                     	;# 
   637  0191                     	;# 
   638  0192                     	;# 
   639  0196                     	;# 
   640  0197                     	;# 
   641  0198                     	;# 
   642  0199                     	;# 
   643  019A                     	;# 
   644  019B                     	;# 
   645  019C                     	;# 
   646  020C                     	;# 
   647  020D                     	;# 
   648  020E                     	;# 
   649  020F                     	;# 
   650  020F                     	;# 
   651  0210                     	;# 
   652  0210                     	;# 
   653  0211                     	;# 
   654  0211                     	;# 
   655  0212                     	;# 
   656  0213                     	;# 
   657  0214                     	;# 
   658  0215                     	;# 
   659  0215                     	;# 
   660  0216                     	;# 
   661  0216                     	;# 
   662  0217                     	;# 
   663  0217                     	;# 
   664  0218                     	;# 
   665  0219                     	;# 
   666  021A                     	;# 
   667  021B                     	;# 
   668  021B                     	;# 
   669  021C                     	;# 
   670  021C                     	;# 
   671  021D                     	;# 
   672  021D                     	;# 
   673  021E                     	;# 
   674  021F                     	;# 
   675  028C                     	;# 
   676  028C                     	;# 
   677  028D                     	;# 
   678  028D                     	;# 
   679  028E                     	;# 
   680  028F                     	;# 
   681  0290                     	;# 
   682  0291                     	;# 
   683  0292                     	;# 
   684  0292                     	;# 
   685  0293                     	;# 
   686  0293                     	;# 
   687  0294                     	;# 
   688  0295                     	;# 
   689  0296                     	;# 
   690  0297                     	;# 
   691  0298                     	;# 
   692  0298                     	;# 
   693  0299                     	;# 
   694  0299                     	;# 
   695  029A                     	;# 
   696  029B                     	;# 
   697  029C                     	;# 
   698  029D                     	;# 
   699  030C                     	;# 
   700  030C                     	;# 
   701  030D                     	;# 
   702  030E                     	;# 
   703  030F                     	;# 
   704  0310                     	;# 
   705  0310                     	;# 
   706  0311                     	;# 
   707  0312                     	;# 
   708  0313                     	;# 
   709  0314                     	;# 
   710  0314                     	;# 
   711  0315                     	;# 
   712  0316                     	;# 
   713  0317                     	;# 
   714  0318                     	;# 
   715  0318                     	;# 
   716  0319                     	;# 
   717  031A                     	;# 
   718  031B                     	;# 
   719  031C                     	;# 
   720  031C                     	;# 
   721  031D                     	;# 
   722  031E                     	;# 
   723  031F                     	;# 
   724  038C                     	;# 
   725  038C                     	;# 
   726  038D                     	;# 
   727  038E                     	;# 
   728  0390                     	;# 
   729  0390                     	;# 
   730  0391                     	;# 
   731  0392                     	;# 
   732  040C                     	;# 
   733  040D                     	;# 
   734  040E                     	;# 
   735  040F                     	;# 
   736  0410                     	;# 
   737  0411                     	;# 
   738  0416                     	;# 
   739  0416                     	;# 
   740  0417                     	;# 
   741  0418                     	;# 
   742  0418                     	;# 
   743  0419                     	;# 
   744  041A                     	;# 
   745  041A                     	;# 
   746  041B                     	;# 
   747  041C                     	;# 
   748  041C                     	;# 
   749  041D                     	;# 
   750  041E                     	;# 
   751  041F                     	;# 
   752  048C                     	;# 
   753  048C                     	;# 
   754  048D                     	;# 
   755  048E                     	;# 
   756  048F                     	;# 
   757  048F                     	;# 
   758  0490                     	;# 
   759  0491                     	;# 
   760  0492                     	;# 
   761  0492                     	;# 
   762  0493                     	;# 
   763  0494                     	;# 
   764  0495                     	;# 
   765  0495                     	;# 
   766  0496                     	;# 
   767  0497                     	;# 
   768  0498                     	;# 
   769  0499                     	;# 
   770  049A                     	;# 
   771  049B                     	;# 
   772  049C                     	;# 
   773  049D                     	;# 
   774  050C                     	;# 
   775  050C                     	;# 
   776  050D                     	;# 
   777  050E                     	;# 
   778  050F                     	;# 
   779  050F                     	;# 
   780  0510                     	;# 
   781  0511                     	;# 
   782  0512                     	;# 
   783  0512                     	;# 
   784  0513                     	;# 
   785  0514                     	;# 
   786  0515                     	;# 
   787  0515                     	;# 
   788  0516                     	;# 
   789  0517                     	;# 
   790  0518                     	;# 
   791  0519                     	;# 
   792  051A                     	;# 
   793  051B                     	;# 
   794  051C                     	;# 
   795  051D                     	;# 
   796  058C                     	;# 
   797  058C                     	;# 
   798  058D                     	;# 
   799  058E                     	;# 
   800  058F                     	;# 
   801  058F                     	;# 
   802  0590                     	;# 
   803  0591                     	;# 
   804  0592                     	;# 
   805  0593                     	;# 
   806  060C                     	;# 
   807  060D                     	;# 
   808  060E                     	;# 
   809  060F                     	;# 
   810  0610                     	;# 
   811  0611                     	;# 
   812  0612                     	;# 
   813  0613                     	;# 
   814  0614                     	;# 
   815  0616                     	;# 
   816  0617                     	;# 
   817  0618                     	;# 
   818  0619                     	;# 
   819  061A                     	;# 
   820  061B                     	;# 
   821  061C                     	;# 
   822  061D                     	;# 
   823  061E                     	;# 
   824  068C                     	;# 
   825  068D                     	;# 
   826  068E                     	;# 
   827  068F                     	;# 
   828  0690                     	;# 
   829  0691                     	;# 
   830  0692                     	;# 
   831  0693                     	;# 
   832  0694                     	;# 
   833  070C                     	;# 
   834  070D                     	;# 
   835  070E                     	;# 
   836  070F                     	;# 
   837  0710                     	;# 
   838  0711                     	;# 
   839  0712                     	;# 
   840  0713                     	;# 
   841  0714                     	;# 
   842  0716                     	;# 
   843  0717                     	;# 
   844  0718                     	;# 
   845  0719                     	;# 
   846  071A                     	;# 
   847  071B                     	;# 
   848  071C                     	;# 
   849  071D                     	;# 
   850  071E                     	;# 
   851  0796                     	;# 
   852  0797                     	;# 
   853  0798                     	;# 
   854  0799                     	;# 
   855  079A                     	;# 
   856  079B                     	;# 
   857  080C                     	;# 
   858  080D                     	;# 
   859  080E                     	;# 
   860  080F                     	;# 
   861  0810                     	;# 
   862  0811                     	;# 
   863  0812                     	;# 
   864  0813                     	;# 
   865  0814                     	;# 
   866  081A                     	;# 
   867  081B                     	;# 
   868  081C                     	;# 
   869  081D                     	;# 
   870  081E                     	;# 
   871  081F                     	;# 
   872  088C                     	;# 
   873  088D                     	;# 
   874  088E                     	;# 
   875  088F                     	;# 
   876  0890                     	;# 
   877  0891                     	;# 
   878  0892                     	;# 
   879  0893                     	;# 
   880  0895                     	;# 
   881  0896                     	;# 
   882  0897                     	;# 
   883  0898                     	;# 
   884  0899                     	;# 
   885  089A                     	;# 
   886  089B                     	;# 
   887  090C                     	;# 
   888  090E                     	;# 
   889  090F                     	;# 
   890  091F                     	;# 
   891  098F                     	;# 
   892  098F                     	;# 
   893  0990                     	;# 
   894  0991                     	;# 
   895  0992                     	;# 
   896  0993                     	;# 
   897  0994                     	;# 
   898  0995                     	;# 
   899  0996                     	;# 
   900  0997                     	;# 
   901  0E0F                     	;# 
   902  0E10                     	;# 
   903  0E11                     	;# 
   904  0E12                     	;# 
   905  0E13                     	;# 
   906  0E14                     	;# 
   907  0E15                     	;# 
   908  0E16                     	;# 
   909  0E17                     	;# 
   910  0E18                     	;# 
   911  0E19                     	;# 
   912  0E1A                     	;# 
   913  0E1B                     	;# 
   914  0E1C                     	;# 
   915  0E1D                     	;# 
   916  0E1E                     	;# 
   917  0E1F                     	;# 
   918  0E20                     	;# 
   919  0E21                     	;# 
   920  0E22                     	;# 
   921  0E23                     	;# 
   922  0E24                     	;# 
   923  0E25                     	;# 
   924  0E26                     	;# 
   925  0E27                     	;# 
   926  0E28                     	;# 
   927  0E29                     	;# 
   928  0E2A                     	;# 
   929  0E2B                     	;# 
   930  0E2C                     	;# 
   931  0E2D                     	;# 
   932  0E2E                     	;# 
   933  0E2F                     	;# 
   934  0E30                     	;# 
   935  0E31                     	;# 
   936  0E32                     	;# 
   937  0E33                     	;# 
   938  0E34                     	;# 
   939  0E35                     	;# 
   940  0E36                     	;# 
   941  0E37                     	;# 
   942  0E8F                     	;# 
   943  0E90                     	;# 
   944  0E91                     	;# 
   945  0E92                     	;# 
   946  0E93                     	;# 
   947  0E94                     	;# 
   948  0E95                     	;# 
   949  0E96                     	;# 
   950  0E97                     	;# 
   951  0E9C                     	;# 
   952  0E9D                     	;# 
   953  0E9E                     	;# 
   954  0EA1                     	;# 
   955  0EA2                     	;# 
   956  0EA3                     	;# 
   957  0EA4                     	;# 
   958  0EA5                     	;# 
   959  0EA9                     	;# 
   960  0EAA                     	;# 
   961  0EAB                     	;# 
   962  0EAC                     	;# 
   963  0EB1                     	;# 
   964  0EB2                     	;# 
   965  0EB3                     	;# 
   966  0EB8                     	;# 
   967  0EB9                     	;# 
   968  0EBA                     	;# 
   969  0EBB                     	;# 
   970  0EBC                     	;# 
   971  0EBD                     	;# 
   972  0EBE                     	;# 
   973  0EC3                     	;# 
   974  0EC5                     	;# 
   975  0EC6                     	;# 
   976  0EC7                     	;# 
   977  0EC8                     	;# 
   978  0EC9                     	;# 
   979  0ECA                     	;# 
   980  0ECB                     	;# 
   981  0ECC                     	;# 
   982  0F10                     	;# 
   983  0F11                     	;# 
   984  0F12                     	;# 
   985  0F13                     	;# 
   986  0F14                     	;# 
   987  0F15                     	;# 
   988  0F16                     	;# 
   989  0F17                     	;# 
   990  0F18                     	;# 
   991  0F19                     	;# 
   992  0F1A                     	;# 
   993  0F1B                     	;# 
   994  0F1C                     	;# 
   995  0F1D                     	;# 
   996  0F1E                     	;# 
   997  0F1F                     	;# 
   998  0F20                     	;# 
   999  0F21                     	;# 
  1000  0F22                     	;# 
  1001  0F23                     	;# 
  1002  0F24                     	;# 
  1003  0F25                     	;# 
  1004  0F26                     	;# 
  1005  0F27                     	;# 
  1006  0F38                     	;# 
  1007  0F39                     	;# 
  1008  0F3A                     	;# 
  1009  0F3B                     	;# 
  1010  0F3C                     	;# 
  1011  0F3D                     	;# 
  1012  0F3E                     	;# 
  1013  0F3F                     	;# 
  1014  0F40                     	;# 
  1015  0F41                     	;# 
  1016  0F43                     	;# 
  1017  0F44                     	;# 
  1018  0F45                     	;# 
  1019  0F46                     	;# 
  1020  0F47                     	;# 
  1021  0F48                     	;# 
  1022  0F49                     	;# 
  1023  0F4A                     	;# 
  1024  0F4B                     	;# 
  1025  0F4C                     	;# 
  1026  0F4E                     	;# 
  1027  0F4F                     	;# 
  1028  0F50                     	;# 
  1029  0F51                     	;# 
  1030  0F52                     	;# 
  1031  0F53                     	;# 
  1032  0F54                     	;# 
  1033  0F55                     	;# 
  1034  0F56                     	;# 
  1035  0F57                     	;# 
  1036  0F65                     	;# 
  1037  0F68                     	;# 
  1038  0F69                     	;# 
  1039  0F6A                     	;# 
  1040  0F6B                     	;# 
  1041  0FE4                     	;# 
  1042  0FE5                     	;# 
  1043  0FE6                     	;# 
  1044  0FE7                     	;# 
  1045  0FE8                     	;# 
  1046  0FE9                     	;# 
  1047  0FEA                     	;# 
  1048  0FEB                     	;# 
  1049  0FED                     	;# 
  1050  0FEE                     	;# 
  1051  0FEF                     	;# 
  1052  0000                     	;# 
  1053  0001                     	;# 
  1054  0002                     	;# 
  1055  0003                     	;# 
  1056  0004                     	;# 
  1057  0005                     	;# 
  1058  0006                     	;# 
  1059  0007                     	;# 
  1060  0008                     	;# 
  1061  0009                     	;# 
  1062  000A                     	;# 
  1063  000B                     	;# 
  1064  000C                     	;# 
  1065  000D                     	;# 
  1066  000E                     	;# 
  1067  0010                     	;# 
  1068  0011                     	;# 
  1069  0012                     	;# 
  1070  0013                     	;# 
  1071  0016                     	;# 
  1072  0017                     	;# 
  1073  0018                     	;# 
  1074  001C                     	;# 
  1075  001C                     	;# 
  1076  001D                     	;# 
  1077  001D                     	;# 
  1078  001E                     	;# 
  1079  001F                     	;# 
  1080  008C                     	;# 
  1081  008C                     	;# 
  1082  008D                     	;# 
  1083  008E                     	;# 
  1084  008E                     	;# 
  1085  008F                     	;# 
  1086  0090                     	;# 
  1087  0090                     	;# 
  1088  0091                     	;# 
  1089  0093                     	;# 
  1090  0094                     	;# 
  1091  0095                     	;# 
  1092  0096                     	;# 
  1093  0097                     	;# 
  1094  0098                     	;# 
  1095  0099                     	;# 
  1096  009A                     	;# 
  1097  009B                     	;# 
  1098  009C                     	;# 
  1099  009D                     	;# 
  1100  009E                     	;# 
  1101  010C                     	;# 
  1102  010D                     	;# 
  1103  010E                     	;# 
  1104  010E                     	;# 
  1105  010F                     	;# 
  1106  0110                     	;# 
  1107  0110                     	;# 
  1108  0111                     	;# 
  1109  0112                     	;# 
  1110  0112                     	;# 
  1111  0113                     	;# 
  1112  0114                     	;# 
  1113  0114                     	;# 
  1114  0115                     	;# 
  1115  0116                     	;# 
  1116  0116                     	;# 
  1117  0117                     	;# 
  1118  0119                     	;# 
  1119  0119                     	;# 
  1120  0119                     	;# 
  1121  011A                     	;# 
  1122  011A                     	;# 
  1123  011A                     	;# 
  1124  011B                     	;# 
  1125  011B                     	;# 
  1126  011B                     	;# 
  1127  011B                     	;# 
  1128  011B                     	;# 
  1129  011C                     	;# 
  1130  011C                     	;# 
  1131  011C                     	;# 
  1132  011D                     	;# 
  1133  011D                     	;# 
  1134  011D                     	;# 
  1135  011E                     	;# 
  1136  011E                     	;# 
  1137  011E                     	;# 
  1138  011F                     	;# 
  1139  011F                     	;# 
  1140  011F                     	;# 
  1141  011F                     	;# 
  1142  011F                     	;# 
  1143  018C                     	;# 
  1144  018D                     	;# 
  1145  018E                     	;# 
  1146  018F                     	;# 
  1147  0190                     	;# 
  1148  0191                     	;# 
  1149  0192                     	;# 
  1150  0196                     	;# 
  1151  0197                     	;# 
  1152  0198                     	;# 
  1153  0199                     	;# 
  1154  019A                     	;# 
  1155  019B                     	;# 
  1156  019C                     	;# 
  1157  020C                     	;# 
  1158  020D                     	;# 
  1159  020E                     	;# 
  1160  020F                     	;# 
  1161  020F                     	;# 
  1162  0210                     	;# 
  1163  0210                     	;# 
  1164  0211                     	;# 
  1165  0211                     	;# 
  1166  0212                     	;# 
  1167  0213                     	;# 
  1168  0214                     	;# 
  1169  0215                     	;# 
  1170  0215                     	;# 
  1171  0216                     	;# 
  1172  0216                     	;# 
  1173  0217                     	;# 
  1174  0217                     	;# 
  1175  0218                     	;# 
  1176  0219                     	;# 
  1177  021A                     	;# 
  1178  021B                     	;# 
  1179  021B                     	;# 
  1180  021C                     	;# 
  1181  021C                     	;# 
  1182  021D                     	;# 
  1183  021D                     	;# 
  1184  021E                     	;# 
  1185  021F                     	;# 
  1186  028C                     	;# 
  1187  028C                     	;# 
  1188  028D                     	;# 
  1189  028D                     	;# 
  1190  028E                     	;# 
  1191  028F                     	;# 
  1192  0290                     	;# 
  1193  0291                     	;# 
  1194  0292                     	;# 
  1195  0292                     	;# 
  1196  0293                     	;# 
  1197  0293                     	;# 
  1198  0294                     	;# 
  1199  0295                     	;# 
  1200  0296                     	;# 
  1201  0297                     	;# 
  1202  0298                     	;# 
  1203  0298                     	;# 
  1204  0299                     	;# 
  1205  0299                     	;# 
  1206  029A                     	;# 
  1207  029B                     	;# 
  1208  029C                     	;# 
  1209  029D                     	;# 
  1210  030C                     	;# 
  1211  030C                     	;# 
  1212  030D                     	;# 
  1213  030E                     	;# 
  1214  030F                     	;# 
  1215  0310                     	;# 
  1216  0310                     	;# 
  1217  0311                     	;# 
  1218  0312                     	;# 
  1219  0313                     	;# 
  1220  0314                     	;# 
  1221  0314                     	;# 
  1222  0315                     	;# 
  1223  0316                     	;# 
  1224  0317                     	;# 
  1225  0318                     	;# 
  1226  0318                     	;# 
  1227  0319                     	;# 
  1228  031A                     	;# 
  1229  031B                     	;# 
  1230  031C                     	;# 
  1231  031C                     	;# 
  1232  031D                     	;# 
  1233  031E                     	;# 
  1234  031F                     	;# 
  1235  038C                     	;# 
  1236  038C                     	;# 
  1237  038D                     	;# 
  1238  038E                     	;# 
  1239  0390                     	;# 
  1240  0390                     	;# 
  1241  0391                     	;# 
  1242  0392                     	;# 
  1243  040C                     	;# 
  1244  040D                     	;# 
  1245  040E                     	;# 
  1246  040F                     	;# 
  1247  0410                     	;# 
  1248  0411                     	;# 
  1249  0416                     	;# 
  1250  0416                     	;# 
  1251  0417                     	;# 
  1252  0418                     	;# 
  1253  0418                     	;# 
  1254  0419                     	;# 
  1255  041A                     	;# 
  1256  041A                     	;# 
  1257  041B                     	;# 
  1258  041C                     	;# 
  1259  041C                     	;# 
  1260  041D                     	;# 
  1261  041E                     	;# 
  1262  041F                     	;# 
  1263  048C                     	;# 
  1264  048C                     	;# 
  1265  048D                     	;# 
  1266  048E                     	;# 
  1267  048F                     	;# 
  1268  048F                     	;# 
  1269  0490                     	;# 
  1270  0491                     	;# 
  1271  0492                     	;# 
  1272  0492                     	;# 
  1273  0493                     	;# 
  1274  0494                     	;# 
  1275  0495                     	;# 
  1276  0495                     	;# 
  1277  0496                     	;# 
  1278  0497                     	;# 
  1279  0498                     	;# 
  1280  0499                     	;# 
  1281  049A                     	;# 
  1282  049B                     	;# 
  1283  049C                     	;# 
  1284  049D                     	;# 
  1285  050C                     	;# 
  1286  050C                     	;# 
  1287  050D                     	;# 
  1288  050E                     	;# 
  1289  050F                     	;# 
  1290  050F                     	;# 
  1291  0510                     	;# 
  1292  0511                     	;# 
  1293  0512                     	;# 
  1294  0512                     	;# 
  1295  0513                     	;# 
  1296  0514                     	;# 
  1297  0515                     	;# 
  1298  0515                     	;# 
  1299  0516                     	;# 
  1300  0517                     	;# 
  1301  0518                     	;# 
  1302  0519                     	;# 
  1303  051A                     	;# 
  1304  051B                     	;# 
  1305  051C                     	;# 
  1306  051D                     	;# 
  1307  058C                     	;# 
  1308  058C                     	;# 
  1309  058D                     	;# 
  1310  058E                     	;# 
  1311  058F                     	;# 
  1312  058F                     	;# 
  1313  0590                     	;# 
  1314  0591                     	;# 
  1315  0592                     	;# 
  1316  0593                     	;# 
  1317  060C                     	;# 
  1318  060D                     	;# 
  1319  060E                     	;# 
  1320  060F                     	;# 
  1321  0610                     	;# 
  1322  0611                     	;# 
  1323  0612                     	;# 
  1324  0613                     	;# 
  1325  0614                     	;# 
  1326  0616                     	;# 
  1327  0617                     	;# 
  1328  0618                     	;# 
  1329  0619                     	;# 
  1330  061A                     	;# 
  1331  061B                     	;# 
  1332  061C                     	;# 
  1333  061D                     	;# 
  1334  061E                     	;# 
  1335  068C                     	;# 
  1336  068D                     	;# 
  1337  068E                     	;# 
  1338  068F                     	;# 
  1339  0690                     	;# 
  1340  0691                     	;# 
  1341  0692                     	;# 
  1342  0693                     	;# 
  1343  0694                     	;# 
  1344  070C                     	;# 
  1345  070D                     	;# 
  1346  070E                     	;# 
  1347  070F                     	;# 
  1348  0710                     	;# 
  1349  0711                     	;# 
  1350  0712                     	;# 
  1351  0713                     	;# 
  1352  0714                     	;# 
  1353  0716                     	;# 
  1354  0717                     	;# 
  1355  0718                     	;# 
  1356  0719                     	;# 
  1357  071A                     	;# 
  1358  071B                     	;# 
  1359  071C                     	;# 
  1360  071D                     	;# 
  1361  071E                     	;# 
  1362  0796                     	;# 
  1363  0797                     	;# 
  1364  0798                     	;# 
  1365  0799                     	;# 
  1366  079A                     	;# 
  1367  079B                     	;# 
  1368  080C                     	;# 
  1369  080D                     	;# 
  1370  080E                     	;# 
  1371  080F                     	;# 
  1372  0810                     	;# 
  1373  0811                     	;# 
  1374  0812                     	;# 
  1375  0813                     	;# 
  1376  0814                     	;# 
  1377  081A                     	;# 
  1378  081B                     	;# 
  1379  081C                     	;# 
  1380  081D                     	;# 
  1381  081E                     	;# 
  1382  081F                     	;# 
  1383  088C                     	;# 
  1384  088D                     	;# 
  1385  088E                     	;# 
  1386  088F                     	;# 
  1387  0890                     	;# 
  1388  0891                     	;# 
  1389  0892                     	;# 
  1390  0893                     	;# 
  1391  0895                     	;# 
  1392  0896                     	;# 
  1393  0897                     	;# 
  1394  0898                     	;# 
  1395  0899                     	;# 
  1396  089A                     	;# 
  1397  089B                     	;# 
  1398  090C                     	;# 
  1399  090E                     	;# 
  1400  090F                     	;# 
  1401  091F                     	;# 
  1402  098F                     	;# 
  1403  098F                     	;# 
  1404  0990                     	;# 
  1405  0991                     	;# 
  1406  0992                     	;# 
  1407  0993                     	;# 
  1408  0994                     	;# 
  1409  0995                     	;# 
  1410  0996                     	;# 
  1411  0997                     	;# 
  1412  0E0F                     	;# 
  1413  0E10                     	;# 
  1414  0E11                     	;# 
  1415  0E12                     	;# 
  1416  0E13                     	;# 
  1417  0E14                     	;# 
  1418  0E15                     	;# 
  1419  0E16                     	;# 
  1420  0E17                     	;# 
  1421  0E18                     	;# 
  1422  0E19                     	;# 
  1423  0E1A                     	;# 
  1424  0E1B                     	;# 
  1425  0E1C                     	;# 
  1426  0E1D                     	;# 
  1427  0E1E                     	;# 
  1428  0E1F                     	;# 
  1429  0E20                     	;# 
  1430  0E21                     	;# 
  1431  0E22                     	;# 
  1432  0E23                     	;# 
  1433  0E24                     	;# 
  1434  0E25                     	;# 
  1435  0E26                     	;# 
  1436  0E27                     	;# 
  1437  0E28                     	;# 
  1438  0E29                     	;# 
  1439  0E2A                     	;# 
  1440  0E2B                     	;# 
  1441  0E2C                     	;# 
  1442  0E2D                     	;# 
  1443  0E2E                     	;# 
  1444  0E2F                     	;# 
  1445  0E30                     	;# 
  1446  0E31                     	;# 
  1447  0E32                     	;# 
  1448  0E33                     	;# 
  1449  0E34                     	;# 
  1450  0E35                     	;# 
  1451  0E36                     	;# 
  1452  0E37                     	;# 
  1453  0E8F                     	;# 
  1454  0E90                     	;# 
  1455  0E91                     	;# 
  1456  0E92                     	;# 
  1457  0E93                     	;# 
  1458  0E94                     	;# 
  1459  0E95                     	;# 
  1460  0E96                     	;# 
  1461  0E97                     	;# 
  1462  0E9C                     	;# 
  1463  0E9D                     	;# 
  1464  0E9E                     	;# 
  1465  0EA1                     	;# 
  1466  0EA2                     	;# 
  1467  0EA3                     	;# 
  1468  0EA4                     	;# 
  1469  0EA5                     	;# 
  1470  0EA9                     	;# 
  1471  0EAA                     	;# 
  1472  0EAB                     	;# 
  1473  0EAC                     	;# 
  1474  0EB1                     	;# 
  1475  0EB2                     	;# 
  1476  0EB3                     	;# 
  1477  0EB8                     	;# 
  1478  0EB9                     	;# 
  1479  0EBA                     	;# 
  1480  0EBB                     	;# 
  1481  0EBC                     	;# 
  1482  0EBD                     	;# 
  1483  0EBE                     	;# 
  1484  0EC3                     	;# 
  1485  0EC5                     	;# 
  1486  0EC6                     	;# 
  1487  0EC7                     	;# 
  1488  0EC8                     	;# 
  1489  0EC9                     	;# 
  1490  0ECA                     	;# 
  1491  0ECB                     	;# 
  1492  0ECC                     	;# 
  1493  0F10                     	;# 
  1494  0F11                     	;# 
  1495  0F12                     	;# 
  1496  0F13                     	;# 
  1497  0F14                     	;# 
  1498  0F15                     	;# 
  1499  0F16                     	;# 
  1500  0F17                     	;# 
  1501  0F18                     	;# 
  1502  0F19                     	;# 
  1503  0F1A                     	;# 
  1504  0F1B                     	;# 
  1505  0F1C                     	;# 
  1506  0F1D                     	;# 
  1507  0F1E                     	;# 
  1508  0F1F                     	;# 
  1509  0F20                     	;# 
  1510  0F21                     	;# 
  1511  0F22                     	;# 
  1512  0F23                     	;# 
  1513  0F24                     	;# 
  1514  0F25                     	;# 
  1515  0F26                     	;# 
  1516  0F27                     	;# 
  1517  0F38                     	;# 
  1518  0F39                     	;# 
  1519  0F3A                     	;# 
  1520  0F3B                     	;# 
  1521  0F3C                     	;# 
  1522  0F3D                     	;# 
  1523  0F3E                     	;# 
  1524  0F3F                     	;# 
  1525  0F40                     	;# 
  1526  0F41                     	;# 
  1527  0F43                     	;# 
  1528  0F44                     	;# 
  1529  0F45                     	;# 
  1530  0F46                     	;# 
  1531  0F47                     	;# 
  1532  0F48                     	;# 
  1533  0F49                     	;# 
  1534  0F4A                     	;# 
  1535  0F4B                     	;# 
  1536  0F4C                     	;# 
  1537  0F4E                     	;# 
  1538  0F4F                     	;# 
  1539  0F50                     	;# 
  1540  0F51                     	;# 
  1541  0F52                     	;# 
  1542  0F53                     	;# 
  1543  0F54                     	;# 
  1544  0F55                     	;# 
  1545  0F56                     	;# 
  1546  0F57                     	;# 
  1547  0F65                     	;# 
  1548  0F68                     	;# 
  1549  0F69                     	;# 
  1550  0F6A                     	;# 
  1551  0F6B                     	;# 
  1552  0FE4                     	;# 
  1553  0FE5                     	;# 
  1554  0FE6                     	;# 
  1555  0FE7                     	;# 
  1556  0FE8                     	;# 
  1557  0FE9                     	;# 
  1558  0FEA                     	;# 
  1559  0FEB                     	;# 
  1560  0FED                     	;# 
  1561  0FEE                     	;# 
  1562  0FEF                     	;# 
  1563                           
  1564                           	psect	stringtext
  1565  0800                     __pstringtext:	
  1566  0800                     _Font:	
  1567  0800  34FF               	retlw	255
  1568  0801  34FF               	retlw	255
  1569  0802  34FF               	retlw	255
  1570  0803  3455               	retlw	85
  1571  0804  3455               	retlw	85
  1572  0805  3455               	retlw	85
  1573  0806  3455               	retlw	85
  1574  0807  34FF               	retlw	255
  1575  0808  34A0               	retlw	160
  1576  0809  34FF               	retlw	255
  1577  080A  3455               	retlw	85
  1578  080B  3455               	retlw	85
  1579  080C  3455               	retlw	85
  1580  080D  3455               	retlw	85
  1581  080E  34F8               	retlw	248
  1582  080F  34FF               	retlw	255
  1583  0810  34F8               	retlw	248
  1584  0811  3455               	retlw	85
  1585  0812  3455               	retlw	85
  1586  0813  3455               	retlw	85
  1587  0814  3455               	retlw	85
  1588  0815  34EB               	retlw	235
  1589  0816  3480               	retlw	128
  1590  0817  34EB               	retlw	235
  1591  0818  3480               	retlw	128
  1592  0819  34EB               	retlw	235
  1593  081A  3455               	retlw	85
  1594  081B  3455               	retlw	85
  1595  081C  34D9               	retlw	217
  1596  081D  34B6               	retlw	182
  1597  081E  3480               	retlw	128
  1598  081F  34B6               	retlw	182
  1599  0820  34CD               	retlw	205
  1600  0821  3455               	retlw	85
  1601  0822  3455               	retlw	85
  1602  0823  349C               	retlw	156
  1603  0824  34EC               	retlw	236
  1604  0825  34F7               	retlw	247
  1605  0826  349B               	retlw	155
  1606  0827  349C               	retlw	156
  1607  0828  3455               	retlw	85
  1608  0829  3455               	retlw	85
  1609  082A  34C9               	retlw	201
  1610  082B  34B6               	retlw	182
  1611  082C  34FF               	retlw	255
  1612  082D  34DD               	retlw	221
  1613  082E  34AF               	retlw	175
  1614  082F  3455               	retlw	85
  1615  0830  3455               	retlw	85
  1616  0831  34FB               	retlw	251
  1617  0832  34FC               	retlw	252
  1618  0833  34FF               	retlw	255
  1619  0834  3455               	retlw	85
  1620  0835  3455               	retlw	85
  1621  0836  3455               	retlw	85
  1622  0837  3455               	retlw	85
  1623  0838  34E3               	retlw	227
  1624  0839  34DD               	retlw	221
  1625  083A  34BE               	retlw	190
  1626  083B  3455               	retlw	85
  1627  083C  3455               	retlw	85
  1628  083D  3455               	retlw	85
  1629  083E  3455               	retlw	85
  1630  083F  34BE               	retlw	190
  1631  0840  34DD               	retlw	221
  1632  0841  34E3               	retlw	227
  1633  0842  3455               	retlw	85
  1634  0843  3455               	retlw	85
  1635  0844  3455               	retlw	85
  1636  0845  3455               	retlw	85
  1637  0846  34EB               	retlw	235
  1638  0847  34D5               	retlw	213
  1639  0848  34E3               	retlw	227
  1640  0849  34D5               	retlw	213
  1641  084A  34EB               	retlw	235
  1642  084B  3455               	retlw	85
  1643  084C  3455               	retlw	85
  1644  084D  34F7               	retlw	247
  1645  084E  34F7               	retlw	247
  1646  084F  34C1               	retlw	193
  1647  0850  34F7               	retlw	247
  1648  0851  34F7               	retlw	247
  1649  0852  3455               	retlw	85
  1650  0853  3455               	retlw	85
  1651  0854  347F               	retlw	127
  1652  0855  349F               	retlw	159
  1653  0856  3455               	retlw	85
  1654  0857  3455               	retlw	85
  1655  0858  3455               	retlw	85
  1656  0859  3455               	retlw	85
  1657  085A  3455               	retlw	85
  1658  085B  34F7               	retlw	247
  1659  085C  34F7               	retlw	247
  1660  085D  34F7               	retlw	247
  1661  085E  34F7               	retlw	247
  1662  085F  34F7               	retlw	247
  1663  0860  3455               	retlw	85
  1664  0861  3455               	retlw	85
  1665  0862  34BF               	retlw	191
  1666  0863  3455               	retlw	85
  1667  0864  3455               	retlw	85
  1668  0865  3455               	retlw	85
  1669  0866  3455               	retlw	85
  1670  0867  3455               	retlw	85
  1671  0868  3455               	retlw	85
  1672  0869  349F               	retlw	159
  1673  086A  34EF               	retlw	239
  1674  086B  34F7               	retlw	247
  1675  086C  34FB               	retlw	251
  1676  086D  34FC               	retlw	252
  1677  086E  3455               	retlw	85
  1678  086F  3455               	retlw	85
  1679  0870  34C1               	retlw	193
  1680  0871  34AE               	retlw	174
  1681  0872  34B6               	retlw	182
  1682  0873  34BA               	retlw	186
  1683  0874  34C1               	retlw	193
  1684  0875  3455               	retlw	85
  1685  0876  3455               	retlw	85
  1686  0877  34FF               	retlw	255
  1687  0878  34BD               	retlw	189
  1688  0879  3480               	retlw	128
  1689  087A  34BF               	retlw	191
  1690  087B  34FF               	retlw	255
  1691  087C  3455               	retlw	85
  1692  087D  3455               	retlw	85
  1693  087E  349D               	retlw	157
  1694  087F  34AE               	retlw	174
  1695  0880  34B6               	retlw	182
  1696  0881  34B6               	retlw	182
  1697  0882  34B9               	retlw	185
  1698  0883  3455               	retlw	85
  1699  0884  3455               	retlw	85
  1700  0885  34DD               	retlw	221
  1701  0886  34BE               	retlw	190
  1702  0887  34B6               	retlw	182
  1703  0888  34B6               	retlw	182
  1704  0889  34C9               	retlw	201
  1705  088A  3455               	retlw	85
  1706  088B  3455               	retlw	85
  1707  088C  34E7               	retlw	231
  1708  088D  34EB               	retlw	235
  1709  088E  34ED               	retlw	237
  1710  088F  3480               	retlw	128
  1711  0890  34EF               	retlw	239
  1712  0891  3455               	retlw	85
  1713  0892  3455               	retlw	85
  1714  0893  34D8               	retlw	216
  1715  0894  34B6               	retlw	182
  1716  0895  34B6               	retlw	182
  1717  0896  34B6               	retlw	182
  1718  0897  34CE               	retlw	206
  1719  0898  3455               	retlw	85
  1720  0899  3455               	retlw	85
  1721  089A  34C3               	retlw	195
  1722  089B  34B5               	retlw	181
  1723  089C  34B6               	retlw	182
  1724  089D  34B6               	retlw	182
  1725  089E  34CF               	retlw	207
  1726  089F  3455               	retlw	85
  1727  08A0  3455               	retlw	85
  1728  08A1  34FE               	retlw	254
  1729  08A2  348E               	retlw	142
  1730  08A3  34F6               	retlw	246
  1731  08A4  34FA               	retlw	250
  1732  08A5  34FC               	retlw	252
  1733  08A6  3455               	retlw	85
  1734  08A7  3455               	retlw	85
  1735  08A8  34C9               	retlw	201
  1736  08A9  34B6               	retlw	182
  1737  08AA  34B6               	retlw	182
  1738  08AB  34B6               	retlw	182
  1739  08AC  34C9               	retlw	201
  1740  08AD  3455               	retlw	85
  1741  08AE  3455               	retlw	85
  1742  08AF  34F9               	retlw	249
  1743  08B0  34B6               	retlw	182
  1744  08B1  34B6               	retlw	182
  1745  08B2  34D6               	retlw	214
  1746  08B3  34E1               	retlw	225
  1747  08B4  3455               	retlw	85
  1748  08B5  3455               	retlw	85
  1749  08B6  34EB               	retlw	235
  1750  08B7  3455               	retlw	85
  1751  08B8  3455               	retlw	85
  1752  08B9  3455               	retlw	85
  1753  08BA  3455               	retlw	85
  1754  08BB  3455               	retlw	85
  1755  08BC  3455               	retlw	85
  1756  08BD  347F               	retlw	127
  1757  08BE  3497               	retlw	151
  1758  08BF  3455               	retlw	85
  1759  08C0  3455               	retlw	85
  1760  08C1  3455               	retlw	85
  1761  08C2  3455               	retlw	85
  1762  08C3  3455               	retlw	85
  1763  08C4  34F7               	retlw	247
  1764  08C5  34EB               	retlw	235
  1765  08C6  34DD               	retlw	221
  1766  08C7  34BE               	retlw	190
  1767  08C8  3455               	retlw	85
  1768  08C9  3455               	retlw	85
  1769  08CA  3455               	retlw	85
  1770  08CB  34EB               	retlw	235
  1771  08CC  34EB               	retlw	235
  1772  08CD  34EB               	retlw	235
  1773  08CE  34EB               	retlw	235
  1774  08CF  3455               	retlw	85
  1775  08D0  3455               	retlw	85
  1776  08D1  3455               	retlw	85
  1777  08D2  34BE               	retlw	190
  1778  08D3  34DD               	retlw	221
  1779  08D4  34EB               	retlw	235
  1780  08D5  34F7               	retlw	247
  1781  08D6  3455               	retlw	85
  1782  08D7  3455               	retlw	85
  1783  08D8  3455               	retlw	85
  1784  08D9  34FD               	retlw	253
  1785  08DA  34FE               	retlw	254
  1786  08DB  34AE               	retlw	174
  1787  08DC  34F6               	retlw	246
  1788  08DD  34F9               	retlw	249
  1789  08DE  3455               	retlw	85
  1790  08DF  3455               	retlw	85
  1791  08E0  34C1               	retlw	193
  1792  08E1  34BE               	retlw	190
  1793  08E2  34A2               	retlw	162
  1794  08E3  34FF               	retlw	255
  1795  08E4  34B1               	retlw	177
  1796  08E5  3455               	retlw	85
  1797  08E6  3455               	retlw	85
  1798  08E7  3483               	retlw	131
  1799  08E8  34ED               	retlw	237
  1800  08E9  34EE               	retlw	238
  1801  08EA  34ED               	retlw	237
  1802  08EB  3483               	retlw	131
  1803  08EC  3455               	retlw	85
  1804  08ED  3455               	retlw	85
  1805  08EE  3480               	retlw	128
  1806  08EF  34B6               	retlw	182
  1807  08F0  34B6               	retlw	182
  1808  08F1  34B6               	retlw	182
  1809  08F2  34C9               	retlw	201
  1810  08F3  3455               	retlw	85
  1811  08F4  3455               	retlw	85
  1812  08F5  34C1               	retlw	193
  1813  08F6  34BE               	retlw	190
  1814  08F7  34BE               	retlw	190
  1815  08F8  34BE               	retlw	190
  1816  08F9  34DD               	retlw	221
  1817  08FA  3455               	retlw	85
  1818  08FB  3455               	retlw	85
  1819  08FC  3480               	retlw	128
  1820  08FD  34BE               	retlw	190
  1821  08FE  34BE               	retlw	190
  1822  08FF  34DD               	retlw	221
  1823  0900  34E3               	retlw	227
  1824  0901  3455               	retlw	85
  1825  0902  3455               	retlw	85
  1826  0903  3480               	retlw	128
  1827  0904  34B6               	retlw	182
  1828  0905  34B6               	retlw	182
  1829  0906  34B6               	retlw	182
  1830  0907  34BE               	retlw	190
  1831  0908  3455               	retlw	85
  1832  0909  3455               	retlw	85
  1833  090A  3480               	retlw	128
  1834  090B  34F6               	retlw	246
  1835  090C  34F6               	retlw	246
  1836  090D  34F6               	retlw	246
  1837  090E  34FE               	retlw	254
  1838  090F  3455               	retlw	85
  1839  0910  3455               	retlw	85
  1840  0911  34C1               	retlw	193
  1841  0912  34BE               	retlw	190
  1842  0913  34B6               	retlw	182
  1843  0914  34D6               	retlw	214
  1844  0915  348D               	retlw	141
  1845  0916  3455               	retlw	85
  1846  0917  3455               	retlw	85
  1847  0918  3480               	retlw	128
  1848  0919  34F7               	retlw	247
  1849  091A  34F7               	retlw	247
  1850  091B  34F7               	retlw	247
  1851  091C  3480               	retlw	128
  1852  091D  3455               	retlw	85
  1853  091E  3455               	retlw	85
  1854  091F  34BE               	retlw	190
  1855  0920  3480               	retlw	128
  1856  0921  34BE               	retlw	190
  1857  0922  3455               	retlw	85
  1858  0923  3455               	retlw	85
  1859  0924  3455               	retlw	85
  1860  0925  3455               	retlw	85
  1861  0926  34DF               	retlw	223
  1862  0927  34BF               	retlw	191
  1863  0928  34BE               	retlw	190
  1864  0929  34C0               	retlw	192
  1865  092A  34FE               	retlw	254
  1866  092B  3455               	retlw	85
  1867  092C  3455               	retlw	85
  1868  092D  3480               	retlw	128
  1869  092E  34F7               	retlw	247
  1870  092F  34EB               	retlw	235
  1871  0930  34DD               	retlw	221
  1872  0931  34BE               	retlw	190
  1873  0932  3455               	retlw	85
  1874  0933  3455               	retlw	85
  1875  0934  3480               	retlw	128
  1876  0935  34BF               	retlw	191
  1877  0936  34BF               	retlw	191
  1878  0937  34BF               	retlw	191
  1879  0938  3455               	retlw	85
  1880  0939  3455               	retlw	85
  1881  093A  3455               	retlw	85
  1882  093B  3480               	retlw	128
  1883  093C  34FD               	retlw	253
  1884  093D  34F3               	retlw	243
  1885  093E  34FD               	retlw	253
  1886  093F  3480               	retlw	128
  1887  0940  3455               	retlw	85
  1888  0941  3455               	retlw	85
  1889  0942  3480               	retlw	128
  1890  0943  34F9               	retlw	249
  1891  0944  34F7               	retlw	247
  1892  0945  34CF               	retlw	207
  1893  0946  3480               	retlw	128
  1894  0947  3455               	retlw	85
  1895  0948  3455               	retlw	85
  1896  0949  34C1               	retlw	193
  1897  094A  34BE               	retlw	190
  1898  094B  34BE               	retlw	190
  1899  094C  34BE               	retlw	190
  1900  094D  34C1               	retlw	193
  1901  094E  3455               	retlw	85
  1902  094F  3455               	retlw	85
  1903  0950  3480               	retlw	128
  1904  0951  34F6               	retlw	246
  1905  0952  34F6               	retlw	246
  1906  0953  34F6               	retlw	246
  1907  0954  34F9               	retlw	249
  1908  0955  3455               	retlw	85
  1909  0956  3455               	retlw	85
  1910  0957  34C1               	retlw	193
  1911  0958  34BE               	retlw	190
  1912  0959  34AE               	retlw	174
  1913  095A  34DE               	retlw	222
  1914  095B  34A1               	retlw	161
  1915  095C  3455               	retlw	85
  1916  095D  3455               	retlw	85
  1917  095E  3480               	retlw	128
  1918  095F  34F6               	retlw	246
  1919  0960  34E6               	retlw	230
  1920  0961  34D6               	retlw	214
  1921  0962  34B9               	retlw	185
  1922  0963  3455               	retlw	85
  1923  0964  3455               	retlw	85
  1924  0965  34D9               	retlw	217
  1925  0966  34B6               	retlw	182
  1926  0967  34B6               	retlw	182
  1927  0968  34B6               	retlw	182
  1928  0969  34CD               	retlw	205
  1929  096A  3455               	retlw	85
  1930  096B  3455               	retlw	85
  1931  096C  34FE               	retlw	254
  1932  096D  34FE               	retlw	254
  1933  096E  3480               	retlw	128
  1934  096F  34FE               	retlw	254
  1935  0970  34FE               	retlw	254
  1936  0971  3455               	retlw	85
  1937  0972  3455               	retlw	85
  1938  0973  34C0               	retlw	192
  1939  0974  34BF               	retlw	191
  1940  0975  34BF               	retlw	191
  1941  0976  34BF               	retlw	191
  1942  0977  34C0               	retlw	192
  1943  0978  3455               	retlw	85
  1944  0979  3455               	retlw	85
  1945  097A  34F0               	retlw	240
  1946  097B  34CF               	retlw	207
  1947  097C  34BF               	retlw	191
  1948  097D  34CF               	retlw	207
  1949  097E  34F0               	retlw	240
  1950  097F  3455               	retlw	85
  1951  0980  3455               	retlw	85
  1952  0981  34F0               	retlw	240
  1953  0982  34CF               	retlw	207
  1954  0983  34BF               	retlw	191
  1955  0984  34C7               	retlw	199
  1956  0985  34BF               	retlw	191
  1957  0986  34CF               	retlw	207
  1958  0987  34F0               	retlw	240
  1959  0988  349C               	retlw	156
  1960  0989  34EB               	retlw	235
  1961  098A  34F7               	retlw	247
  1962  098B  34EB               	retlw	235
  1963  098C  349C               	retlw	156
  1964  098D  3455               	retlw	85
  1965  098E  3455               	retlw	85
  1966  098F  34F8               	retlw	248
  1967  0990  34F7               	retlw	247
  1968  0991  348F               	retlw	143
  1969  0992  34F7               	retlw	247
  1970  0993  34F8               	retlw	248
  1971  0994  3455               	retlw	85
  1972  0995  3455               	retlw	85
  1973  0996  349E               	retlw	158
  1974  0997  34AE               	retlw	174
  1975  0998  34B6               	retlw	182
  1976  0999  34BA               	retlw	186
  1977  099A  34BC               	retlw	188
  1978  099B  3455               	retlw	85
  1979  099C  3455               	retlw	85
  1980  099D  3480               	retlw	128
  1981  099E  34BE               	retlw	190
  1982  099F  34BE               	retlw	190
  1983  09A0  3455               	retlw	85
  1984  09A1  3455               	retlw	85
  1985  09A2  3455               	retlw	85
  1986  09A3  3455               	retlw	85
  1987  09A4  34FC               	retlw	252
  1988  09A5  34FB               	retlw	251
  1989  09A6  34F7               	retlw	247
  1990  09A7  34EF               	retlw	239
  1991  09A8  349F               	retlw	159
  1992  09A9  3455               	retlw	85
  1993  09AA  3455               	retlw	85
  1994  09AB  34BE               	retlw	190
  1995  09AC  34BE               	retlw	190
  1996  09AD  3480               	retlw	128
  1997  09AE  3455               	retlw	85
  1998  09AF  3455               	retlw	85
  1999  09B0  3455               	retlw	85
  2000  09B1  3455               	retlw	85
  2001  09B2  34F7               	retlw	247
  2002  09B3  34FB               	retlw	251
  2003  09B4  34FD               	retlw	253
  2004  09B5  34FB               	retlw	251
  2005  09B6  34F7               	retlw	247
  2006  09B7  3455               	retlw	85
  2007  09B8  3455               	retlw	85
  2008  09B9  34BF               	retlw	191
  2009  09BA  34BF               	retlw	191
  2010  09BB  34BF               	retlw	191
  2011  09BC  34BF               	retlw	191
  2012  09BD  34BF               	retlw	191
  2013  09BE  3455               	retlw	85
  2014  09BF  3455               	retlw	85
  2015  09C0  34FC               	retlw	252
  2016  09C1  34FB               	retlw	251
  2017  09C2  34FF               	retlw	255
  2018  09C3  3455               	retlw	85
  2019  09C4  3455               	retlw	85
  2020  09C5  3455               	retlw	85
  2021  09C6  3455               	retlw	85
  2022  09C7  34DF               	retlw	223
  2023  09C8  34AB               	retlw	171
  2024  09C9  34AB               	retlw	171
  2025  09CA  3487               	retlw	135
  2026  09CB  3455               	retlw	85
  2027  09CC  3455               	retlw	85
  2028  09CD  3455               	retlw	85
  2029  09CE  3480               	retlw	128
  2030  09CF  34D7               	retlw	215
  2031  09D0  34BB               	retlw	187
  2032  09D1  34BB               	retlw	187
  2033  09D2  34C7               	retlw	199
  2034  09D3  3455               	retlw	85
  2035  09D4  3455               	retlw	85
  2036  09D5  34C7               	retlw	199
  2037  09D6  34BB               	retlw	187
  2038  09D7  34BB               	retlw	187
  2039  09D8  34D7               	retlw	215
  2040  09D9  3455               	retlw	85
  2041  09DA  3455               	retlw	85
  2042  09DB  3455               	retlw	85
  2043  09DC  34C7               	retlw	199
  2044  09DD  34BB               	retlw	187
  2045  09DE  34BB               	retlw	187
  2046  09DF  34D7               	retlw	215
  2047  09E0  3480               	retlw	128
  2048  09E1  3455               	retlw	85
  2049  09E2  3455               	retlw	85
  2050  09E3  34C7               	retlw	199
  2051  09E4  34AB               	retlw	171
  2052  09E5  34AB               	retlw	171
  2053  09E6  34B7               	retlw	183
  2054  09E7  3455               	retlw	85
  2055  09E8  3455               	retlw	85
  2056  09E9  3455               	retlw	85
  2057  09EA  34F7               	retlw	247
  2058  09EB  3481               	retlw	129
  2059  09EC  34F6               	retlw	246
  2060  09ED  34FD               	retlw	253
  2061  09EE  3455               	retlw	85
  2062  09EF  3455               	retlw	85
  2063  09F0  3455               	retlw	85
  2064  09F1  3467               	retlw	103
  2065  09F2  345B               	retlw	91
  2066  09F3  345B               	retlw	91
  2067  09F4  34A7               	retlw	167
  2068  09F5  3455               	retlw	85
  2069  09F6  3455               	retlw	85
  2070  09F7  3455               	retlw	85
  2071  09F8  3480               	retlw	128
  2072  09F9  34F7               	retlw	247
  2073  09FA  34FB               	retlw	251
  2074  09FB  34FB               	retlw	251
  2075  09FC  3487               	retlw	135
  2076  09FD  3455               	retlw	85
  2077  09FE  3455               	retlw	85
  2078  09FF  34C2               	retlw	194
  2079  0A00  34BF               	retlw	191
  2080  0A01  3455               	retlw	85
  2081  0A02  3455               	retlw	85
  2082  0A03  3455               	retlw	85
  2083  0A04  3455               	retlw	85
  2084  0A05  3455               	retlw	85
  2085  0A06  347F               	retlw	127
  2086  0A07  347B               	retlw	123
  2087  0A08  3482               	retlw	130
  2088  0A09  3455               	retlw	85
  2089  0A0A  3455               	retlw	85
  2090  0A0B  3455               	retlw	85
  2091  0A0C  3455               	retlw	85
  2092  0A0D  3480               	retlw	128
  2093  0A0E  34EF               	retlw	239
  2094  0A0F  34D7               	retlw	215
  2095  0A10  34BB               	retlw	187
  2096  0A11  3455               	retlw	85
  2097  0A12  3455               	retlw	85
  2098  0A13  3455               	retlw	85
  2099  0A14  34FE               	retlw	254
  2100  0A15  3480               	retlw	128
  2101  0A16  34FF               	retlw	255
  2102  0A17  3455               	retlw	85
  2103  0A18  3455               	retlw	85
  2104  0A19  3455               	retlw	85
  2105  0A1A  3455               	retlw	85
  2106  0A1B  3483               	retlw	131
  2107  0A1C  34F7               	retlw	247
  2108  0A1D  34FB               	retlw	251
  2109  0A1E  3487               	retlw	135
  2110  0A1F  34FB               	retlw	251
  2111  0A20  3487               	retlw	135
  2112  0A21  3455               	retlw	85
  2113  0A22  3483               	retlw	131
  2114  0A23  34F7               	retlw	247
  2115  0A24  34FB               	retlw	251
  2116  0A25  34FB               	retlw	251
  2117  0A26  3487               	retlw	135
  2118  0A27  3455               	retlw	85
  2119  0A28  3455               	retlw	85
  2120  0A29  34C7               	retlw	199
  2121  0A2A  34BB               	retlw	187
  2122  0A2B  34BB               	retlw	187
  2123  0A2C  34C7               	retlw	199
  2124  0A2D  3455               	retlw	85
  2125  0A2E  3455               	retlw	85
  2126  0A2F  3455               	retlw	85
  2127  0A30  3403               	retlw	3
  2128  0A31  34E7               	retlw	231
  2129  0A32  34DB               	retlw	219
  2130  0A33  34DB               	retlw	219
  2131  0A34  34E7               	retlw	231
  2132  0A35  3455               	retlw	85
  2133  0A36  3455               	retlw	85
  2134  0A37  34E7               	retlw	231
  2135  0A38  34DB               	retlw	219
  2136  0A39  34DB               	retlw	219
  2137  0A3A  34E7               	retlw	231
  2138  0A3B  3403               	retlw	3
  2139  0A3C  3455               	retlw	85
  2140  0A3D  3455               	retlw	85
  2141  0A3E  3483               	retlw	131
  2142  0A3F  34F7               	retlw	247
  2143  0A40  34FB               	retlw	251
  2144  0A41  34FB               	retlw	251
  2145  0A42  34F7               	retlw	247
  2146  0A43  3455               	retlw	85
  2147  0A44  3455               	retlw	85
  2148  0A45  34B7               	retlw	183
  2149  0A46  34AB               	retlw	171
  2150  0A47  34AB               	retlw	171
  2151  0A48  34DB               	retlw	219
  2152  0A49  3455               	retlw	85
  2153  0A4A  3455               	retlw	85
  2154  0A4B  3455               	retlw	85
  2155  0A4C  34FB               	retlw	251
  2156  0A4D  34C1               	retlw	193
  2157  0A4E  34BB               	retlw	187
  2158  0A4F  3455               	retlw	85
  2159  0A50  3455               	retlw	85
  2160  0A51  3455               	retlw	85
  2161  0A52  3455               	retlw	85
  2162  0A53  34C3               	retlw	195
  2163  0A54  34BF               	retlw	191
  2164  0A55  34BF               	retlw	191
  2165  0A56  34DF               	retlw	223
  2166  0A57  3483               	retlw	131
  2167  0A58  3455               	retlw	85
  2168  0A59  3455               	retlw	85
  2169  0A5A  34E3               	retlw	227
  2170  0A5B  34DF               	retlw	223
  2171  0A5C  34BF               	retlw	191
  2172  0A5D  34DF               	retlw	223
  2173  0A5E  34E3               	retlw	227
  2174  0A5F  3455               	retlw	85
  2175  0A60  3455               	retlw	85
  2176  0A61  34C3               	retlw	195
  2177  0A62  34BF               	retlw	191
  2178  0A63  34CF               	retlw	207
  2179  0A64  34BF               	retlw	191
  2180  0A65  34C3               	retlw	195
  2181  0A66  3455               	retlw	85
  2182  0A67  3455               	retlw	85
  2183  0A68  34BB               	retlw	187
  2184  0A69  34D7               	retlw	215
  2185  0A6A  34EF               	retlw	239
  2186  0A6B  34D7               	retlw	215
  2187  0A6C  34BB               	retlw	187
  2188  0A6D  3455               	retlw	85
  2189  0A6E  3455               	retlw	85
  2190  0A6F  34E3               	retlw	227
  2191  0A70  345F               	retlw	95
  2192  0A71  345F               	retlw	95
  2193  0A72  3483               	retlw	131
  2194  0A73  3455               	retlw	85
  2195  0A74  3455               	retlw	85
  2196  0A75  3455               	retlw	85
  2197  0A76  349B               	retlw	155
  2198  0A77  34AB               	retlw	171
  2199  0A78  34AB               	retlw	171
  2200  0A79  34B3               	retlw	179
  2201  0A7A  3455               	retlw	85
  2202  0A7B  3455               	retlw	85
  2203  0A7C  3455               	retlw	85
  2204  0A7D  34F7               	retlw	247
  2205  0A7E  34C9               	retlw	201
  2206  0A7F  34BE               	retlw	190
  2207  0A80  3455               	retlw	85
  2208  0A81  3455               	retlw	85
  2209  0A82  3455               	retlw	85
  2210  0A83  3455               	retlw	85
  2211  0A84  34FF               	retlw	255
  2212  0A85  3480               	retlw	128
  2213  0A86  34FF               	retlw	255
  2214  0A87  3455               	retlw	85
  2215  0A88  3455               	retlw	85
  2216  0A89  3455               	retlw	85
  2217  0A8A  3455               	retlw	85
  2218  0A8B  34BE               	retlw	190
  2219  0A8C  34C9               	retlw	201
  2220  0A8D  34F7               	retlw	247
  2221  0A8E  3455               	retlw	85
  2222  0A8F  3455               	retlw	85
  2223  0A90  3455               	retlw	85
  2224  0A91  3455               	retlw	85
  2225  0A92  34FF               	retlw	255
  2226  0A93  34FF               	retlw	255
  2227  0A94  3455               	retlw	85
  2228  0A95  3455               	retlw	85
  2229  0A96  3455               	retlw	85
  2230  0A97  3455               	retlw	85
  2231  0A98  3455               	retlw	85
  2232  0A99  3401               	retlw	1
  2233  0A9A  347D               	retlw	125
  2234  0A9B  347D               	retlw	125
  2235  0A9C  347D               	retlw	125
  2236  0A9D  3401               	retlw	1
  2237  0A9E  3455               	retlw	85
  2238  0A9F  3455               	retlw	85
  2239  0AA0                     __end_of_Font:	
  2240  0AA0                     _Logo:	
  2241  0AA0  3414               	retlw	20
  2242  0AA1  3415               	retlw	21
  2243  0AA2  3400               	retlw	0
  2244  0AA3  3406               	retlw	6
  2245  0AA4  3400               	retlw	0
  2246  0AA5  3460               	retlw	96
  2247  0AA6  3400               	retlw	0
  2248  0AA7  3440               	retlw	64
  2249  0AA8  342F               	retlw	47
  2250  0AA9  3400               	retlw	0
  2251  0AAA  34FC               	retlw	252
  2252  0AAB  3403               	retlw	3
  2253  0AAC  3480               	retlw	128
  2254  0AAD  341F               	retlw	31
  2255  0AAE  3400               	retlw	0
  2256  0AAF  34F8               	retlw	248
  2257  0AB0  3401               	retlw	1
  2258  0AB1  3492               	retlw	146
  2259  0AB2  349F               	retlw	159
  2260  0AB3  34F4               	retlw	244
  2261  0AB4  34FB               	retlw	251
  2262  0AB5  34FD               	retlw	253
  2263  0AB6  34FE               	retlw	254
  2264  0AB7  34FF               	retlw	255
  2265  0AB8  34E7               	retlw	231
  2266  0AB9  34FF               	retlw	255
  2267  0ABA  347F               	retlw	127
  2268  0ABB  34FF               	retlw	255
  2269  0ABC  34FF               	retlw	255
  2270  0ABD  34EF               	retlw	239
  2271  0ABE  34FF               	retlw	255
  2272  0ABF  347F               	retlw	127
  2273  0AC0  34FC               	retlw	252
  2274  0AC1  34FF               	retlw	255
  2275  0AC2  3483               	retlw	131
  2276  0AC3  34FF               	retlw	255
  2277  0AC4  341F               	retlw	31
  2278  0AC5  34F0               	retlw	240
  2279  0AC6  34FF               	retlw	255
  2280  0AC7  3400               	retlw	0
  2281  0AC8  34FE               	retlw	254
  2282  0AC9  3407               	retlw	7
  2283  0ACA  34F0               	retlw	240
  2284  0ACB  34FF               	retlw	255
  2285  0ACC  3400               	retlw	0
  2286  0ACD  3460               	retlw	96
  2287  0ACE  3400               	retlw	0
  2288  0ACF  3400               	retlw	0
  2289  0AD0  3406               	retlw	6
  2290  0AD1  3400               	retlw	0
  2291  0AD2  3460               	retlw	96
  2292  0AD3  3400               	retlw	0
  2293  0AD4  3400               	retlw	0
  2294  0AD5  3406               	retlw	6
  2295  0AD6  3400               	retlw	0
  2296  0AD7                     __end_of_Logo:	
  2297  0016                     _LATA	set	22
  2298  0017                     _LATB	set	23
  2299  0017                     _LATBbits	set	23
  2300  0018                     _LATC	set	24
  2301  000C                     _PORTA	set	12
  2302  000D                     _PORTB	set	13
  2303  000E                     _PORTC	set	14
  2304  0011                     _TRISA	set	17
  2305  0012                     _TRISB	set	18
  2306  0012                     _TRISBbits	set	18
  2307  0013                     _TRISC	set	19
  2308  0F38                     _ANSELA	set	3896
  2309  0F43                     _ANSELB	set	3907
  2310  0F4E                     _ANSELC	set	3918
  2311  0AD7                     STR_1:	
  2312  0AD7  3416               	retlw	22
  2313  0AD8  3420               	retlw	32	;' '
  2314  0AD9  34DA               	retlw	-38
  2315  0ADA  346E               	retlw	110	;'n'
  2316  0ADB  346E               	retlw	110	;'n'
  2317  0ADC  3479               	retlw	121	;'y'
  2318  0ADD  345A               	retlw	90	;'Z'
  2319  0ADE  3465               	retlw	101	;'e'
  2320  0ADF  3465               	retlw	101	;'e'
  2321  0AE0  3427               	retlw	39	;'''
  2322  0AE1  3473               	retlw	115	;'s'
  2323  0AE2  3416               	retlw	22
  2324  0AE3  3420               	retlw	32	;' '
  2325  0AE4  3410               	retlw	16
  2326  0AE5  3420               	retlw	32	;' '
  2327  0AE6  3445               	retlw	69	;'E'
  2328  0AE7  346C               	retlw	108	;'l'
  2329  0AE8  3465               	retlw	101	;'e'
  2330  0AE9  3463               	retlw	99	;'c'
  2331  0AEA  3474               	retlw	116	;'t'
  2332  0AEB  3472               	retlw	114	;'r'
  2333  0AEC  346F               	retlw	111	;'o'
  2334  0AED  346E               	retlw	110	;'n'
  2335  0AEE  3469               	retlw	105	;'i'
  2336  0AEF  3463               	retlw	99	;'c'
  2337  0AF0  3473               	retlw	115	;'s'
  2338  0AF1  340A               	retlw	10
  2339  0AF2  3420               	retlw	32	;' '
  2340  0AF3  3454               	retlw	84	;'T'
  2341  0AF4  3469               	retlw	105	;'i'
  2342  0AF5  3474               	retlw	116	;'t'
  2343  0AF6  346C               	retlw	108	;'l'
  2344  0AF7  3465               	retlw	101	;'e'
  2345  0AF8  343A               	retlw	58	;':'
  2346  0AF9  340A               	retlw	10
  2347  0AFA  3420               	retlw	32	;' '
  2348  0AFB  3441               	retlw	65	;'A'
  2349  0AFC  3475               	retlw	117	;'u'
  2350  0AFD  3474               	retlw	116	;'t'
  2351  0AFE  3468               	retlw	104	;'h'
  2352  0AFF  346F               	retlw	111	;'o'
  2353  0B00  3472               	retlw	114	;'r'
  2354  0B01  343A               	retlw	58	;':'
  2355  0B02  340A               	retlw	10
  2356  0B03  3420               	retlw	32	;' '
  2357  0B04  3444               	retlw	68	;'D'
  2358  0B05  3461               	retlw	97	;'a'
  2359  0B06  3474               	retlw	116	;'t'
  2360  0B07  3465               	retlw	101	;'e'
  2361  0B08  343A               	retlw	58	;':'
  2362  0B09  340A               	retlw	10
  2363  0B0A  3420               	retlw	32	;' '
  2364  0B0B  3448               	retlw	72	;'H'
  2365  0B0C  3461               	retlw	97	;'a'
  2366  0B0D  3472               	retlw	114	;'r'
  2367  0B0E  3464               	retlw	100	;'d'
  2368  0B0F  3477               	retlw	119	;'w'
  2369  0B10  3461               	retlw	97	;'a'
  2370  0B11  3472               	retlw	114	;'r'
  2371  0B12  3465               	retlw	101	;'e'
  2372  0B13  343A               	retlw	58	;':'
  2373  0B14  3400               	retlw	0
  2374  0B15                     STR_2:	
  2375  0B15  3416               	retlw	22
  2376  0B16  3438               	retlw	56	;'8'
  2377  0B17  3418               	retlw	24
  2378  0B18  3420               	retlw	32	;' '
  2379  0B19  3447               	retlw	71	;'G'
  2380  0B1A  3472               	retlw	114	;'r'
  2381  0B1B  3461               	retlw	97	;'a'
  2382  0B1C  3470               	retlw	112	;'p'
  2383  0B1D  3468               	retlw	104	;'h'
  2384  0B1E  3469               	retlw	105	;'i'
  2385  0B1F  3463               	retlw	99	;'c'
  2386  0B20  3420               	retlw	32	;' '
  2387  0B21  3464               	retlw	100	;'d'
  2388  0B22  3465               	retlw	101	;'e'
  2389  0B23  346D               	retlw	109	;'m'
  2390  0B24  346F               	retlw	111	;'o'
  2391  0B25  342E               	retlw	46	;'.'
  2392  0B26  3400               	retlw	0
  2393  0B27                     STR_4:	
  2394  0B27  3416               	retlw	22
  2395  0B28  3438               	retlw	56	;'8'
  2396  0B29  3428               	retlw	40	;'('
  2397  0B2A  3420               	retlw	32	;' '
  2398  0B2B  3441               	retlw	65	;'A'
  2399  0B2C  3470               	retlw	112	;'p'
  2400  0B2D  3472               	retlw	114	;'r'
  2401  0B2E  3420               	retlw	32	;' '
  2402  0B2F  3431               	retlw	49	;'1'
  2403  0B30  3439               	retlw	57	;'9'
  2404  0B31  3420               	retlw	32	;' '
  2405  0B32  3432               	retlw	50	;'2'
  2406  0B33  3430               	retlw	48	;'0'
  2407  0B34  3431               	retlw	49	;'1'
  2408  0B35  3437               	retlw	55	;'7'
  2409  0B36  342E               	retlw	46	;'.'
  2410  0B37  3400               	retlw	0
  2411  0B38                     STR_3:	
  2412  0B38  3416               	retlw	22
  2413  0B39  3438               	retlw	56	;'8'
  2414  0B3A  3420               	retlw	32	;' '
  2415  0B3B  3420               	retlw	32	;' '
  2416  0B3C  3444               	retlw	68	;'D'
  2417  0B3D  3461               	retlw	97	;'a'
  2418  0B3E  3476               	retlw	118	;'v'
  2419  0B3F  3465               	retlw	101	;'e'
  2420  0B40  3420               	retlw	32	;' '
  2421  0B41  345A               	retlw	90	;'Z'
  2422  0B42  3469               	retlw	105	;'i'
  2423  0B43  3465               	retlw	101	;'e'
  2424  0B44  3467               	retlw	103	;'g'
  2425  0B45  346C               	retlw	108	;'l'
  2426  0B46  342E               	retlw	46	;'.'
  2427  0B47  3400               	retlw	0
  2428  0B48                     STR_5:	
  2429  0B48  3416               	retlw	22
  2430  0B49  3438               	retlw	56	;'8'
  2431  0B4A  3430               	retlw	48	;'0'
  2432  0B4B  3420               	retlw	32	;' '
  2433  0B4C  3431               	retlw	49	;'1'
  2434  0B4D  3436               	retlw	54	;'6'
  2435  0B4E  3446               	retlw	70	;'F'
  2436  0B4F  3431               	retlw	49	;'1'
  2437  0B50  3438               	retlw	56	;'8'
  2438  0B51  3438               	retlw	56	;'8'
  2439  0B52  3435               	retlw	53	;'5'
  2440  0B53  3435               	retlw	53	;'5'
  2441  0B54  342E               	retlw	46	;'.'
  2442  0B55  3400               	retlw	0
  2443                           
  2444                           ; #config settings
  2445  0000                     
  2446                           	psect	cinit
  2447  07FA                     start_initialization:	
  2448  07FA                     __initialization:	
  2449                           
  2450                           ; Clear objects allocated to BANK0
  2451  07FA  01A7               	clrf	__pbssBANK0& (0+127)
  2452  07FB  01A8               	clrf	(__pbssBANK0+1)& (0+127)
  2453  07FC  01A9               	clrf	(__pbssBANK0+2)& (0+127)
  2454  07FD                     end_of_initialization:	
  2455                           ;End of C runtime variable initialization code
  2456                           
  2457  07FD                     __end_of__initialization:	
  2458  07FD  0020               	movlb	0
  2459  07FE  3187  2F3B         	ljmp	_main	;jump to C main() function
  2460                           
  2461                           	psect	bssBANK0
  2462  0027                     __pbssBANK0:	
  2463  0027                     _W:	
  2464  0027                     	ds	1
  2465  0028                     _XPos:	
  2466  0028                     	ds	1
  2467  0029                     _YPos:	
  2468  0029                     	ds	1
  2469                           
  2470                           	psect	cstackCOMMON
  2471  0070                     __pcstackCOMMON:	
  2472  0070                     ?_Init:	
  2473  0070                     ??_Init:	
  2474                           ; 0 bytes @ 0x0
  2475                           
  2476  0070                     ?_Init_GLCD:	
  2477                           ; 0 bytes @ 0x0
  2478                           
  2479  0070                     ?_GLCD_Write_Cmd:	
  2480                           ; 0 bytes @ 0x0
  2481                           
  2482  0070                     ?_GLCD_Write_Data:	
  2483                           ; 0 bytes @ 0x0
  2484                           
  2485  0070                     ?_WritePosition:	
  2486                           ; 0 bytes @ 0x0
  2487                           
  2488  0070                     ?_main:	
  2489                           ; 0 bytes @ 0x0
  2490                           
  2491  0070                     ??_GLCD_Read:	
  2492                           ; 0 bytes @ 0x0
  2493                           
  2494  0070                     ?_Wait_Not_Busy:	
  2495                           ; 0 bytes @ 0x0
  2496                           
  2497  0070                     ?_MoveRight:	
  2498                           ; 0 bytes @ 0x0
  2499                           
  2500  0070                     ?_ClearScreen:	
  2501                           ; 0 bytes @ 0x0
  2502                           
  2503  0070                     ?_PutChar:	
  2504                           ; 0 bytes @ 0x0
  2505                           
  2506  0070                     ?_GLCD_Read_Data:	
  2507                           ; 0 bytes @ 0x0
  2508                           
  2509  0070                     ?_GLCD_Read:	
  2510                           ; 1 bytes @ 0x0
  2511                           
  2512  0070                     ?___wmul:	
  2513                           ; 1 bytes @ 0x0
  2514                           
  2515  0070                     ___wmul@multiplier:	
  2516                           ; 2 bytes @ 0x0
  2517                           
  2518                           
  2519                           ; 2 bytes @ 0x0
  2520  0070                     	ds	1
  2521  0071                     ??_GLCD_Write_Cmd:	
  2522  0071                     ??_GLCD_Read_Data:	
  2523                           ; 0 bytes @ 0x1
  2524                           
  2525  0071                     ??_GLCD_Write_Data:	
  2526                           ; 0 bytes @ 0x1
  2527                           
  2528  0071                     ??_Wait_Not_Busy:	
  2529                           ; 0 bytes @ 0x1
  2530                           
  2531  0071                     GLCD_Write_Cmd@data:	
  2532                           ; 0 bytes @ 0x1
  2533                           
  2534  0071                     GLCD_Write_Data@data:	
  2535                           ; 1 bytes @ 0x1
  2536                           
  2537                           
  2538                           ; 1 bytes @ 0x1
  2539  0071                     	ds	1
  2540  0072                     ??_WritePosition:	
  2541  0072                     ?_plot:	
  2542                           ; 0 bytes @ 0x2
  2543                           
  2544  0072                     plot@y:	
  2545                           ; 0 bytes @ 0x2
  2546                           
  2547  0072                     ___wmul@multiplicand:	
  2548                           ; 1 bytes @ 0x2
  2549                           
  2550                           
  2551                           ; 2 bytes @ 0x2
  2552  0072                     	ds	1
  2553  0073                     ?_SetPos:	
  2554  0073                     ??_plot:	
  2555                           ; 0 bytes @ 0x3
  2556                           
  2557  0073                     ??_MoveRight:	
  2558                           ; 0 bytes @ 0x3
  2559                           
  2560  0073                     SetPos@y:	
  2561                           ; 0 bytes @ 0x3
  2562                           
  2563                           
  2564                           ; 1 bytes @ 0x3
  2565  0073                     	ds	1
  2566  0074                     ??_SetPos:	
  2567  0074                     ??___wmul:	
  2568                           ; 0 bytes @ 0x4
  2569                           
  2570  0074                     ___wmul@product:	
  2571                           ; 0 bytes @ 0x4
  2572                           
  2573                           
  2574                           ; 2 bytes @ 0x4
  2575  0074                     	ds	1
  2576  0075                     plot@d:	
  2577  0075                     SetPos@x:	
  2578                           ; 1 bytes @ 0x5
  2579                           
  2580                           
  2581                           ; 1 bytes @ 0x5
  2582  0075                     	ds	1
  2583  0076                     ??_ClearScreen:	
  2584  0076                     ??_PutChar:	
  2585                           ; 0 bytes @ 0x6
  2586                           
  2587  0076                     plot@x:	
  2588                           ; 0 bytes @ 0x6
  2589                           
  2590                           
  2591                           ; 1 bytes @ 0x6
  2592  0076                     	ds	1
  2593  0077                     ?_PutLogo:	
  2594  0077                     ?_hline:	
  2595                           ; 0 bytes @ 0x7
  2596                           
  2597  0077                     ?_vline:	
  2598                           ; 0 bytes @ 0x7
  2599                           
  2600  0077                     hline@y1:	
  2601                           ; 0 bytes @ 0x7
  2602                           
  2603  0077                     vline@x2:	
  2604                           ; 1 bytes @ 0x7
  2605                           
  2606  0077                     ClearScreen@j:	
  2607                           ; 1 bytes @ 0x7
  2608                           
  2609  0077                     PutLogo@logo:	
  2610                           ; 1 bytes @ 0x7
  2611                           
  2612                           
  2613                           ; 2 bytes @ 0x7
  2614  0077                     	ds	1
  2615  0078                     hline@y2:	
  2616  0078                     vline@y:	
  2617                           ; 1 bytes @ 0x8
  2618                           
  2619  0078                     ClearScreen@i:	
  2620                           ; 1 bytes @ 0x8
  2621                           
  2622                           
  2623                           ; 1 bytes @ 0x8
  2624  0078                     	ds	1
  2625  0079                     ??_Init_GLCD:	
  2626  0079                     ??_PutLogo:	
  2627                           ; 0 bytes @ 0x9
  2628                           
  2629  0079                     ??_hline:	
  2630                           ; 0 bytes @ 0x9
  2631                           
  2632  0079                     ??_vline:	
  2633                           ; 0 bytes @ 0x9
  2634                           
  2635                           
  2636                           ; 0 bytes @ 0x9
  2637  0079                     	ds	1
  2638  007A                     hline@x:	
  2639  007A                     vline@x1:	
  2640                           ; 1 bytes @ 0xA
  2641                           
  2642                           
  2643                           ; 1 bytes @ 0xA
  2644  007A                     	ds	1
  2645  007B                     hline@i:	
  2646  007B                     vline@i:	
  2647                           ; 1 bytes @ 0xB
  2648                           
  2649  007B                     PutChar@d:	
  2650                           ; 1 bytes @ 0xB
  2651                           
  2652                           
  2653                           ; 1 bytes @ 0xB
  2654  007B                     	ds	1
  2655  007C                     ??_box:	
  2656  007C                     PutChar@data:	
  2657                           ; 0 bytes @ 0xC
  2658                           
  2659                           
  2660                           ; 1 bytes @ 0xC
  2661  007C                     	ds	1
  2662  007D                     PutChar@i:	
  2663                           
  2664                           ; 1 bytes @ 0xD
  2665  007D                     	ds	1
  2666                           
  2667                           	psect	cstackBANK0
  2668  0020                     __pcstackBANK0:	
  2669  0020                     ?_PutMessage:	
  2670  0020                     ?_box:	
  2671                           ; 0 bytes @ 0x0
  2672                           
  2673  0020                     box@y1:	
  2674                           ; 0 bytes @ 0x0
  2675                           
  2676  0020                     PutLogo@h:	
  2677                           ; 1 bytes @ 0x0
  2678                           
  2679  0020                     PutMessage@Message:	
  2680                           ; 1 bytes @ 0x0
  2681                           
  2682                           
  2683                           ; 2 bytes @ 0x0
  2684  0020                     	ds	1
  2685  0021                     box@x2:	
  2686  0021                     PutLogo@i:	
  2687                           ; 1 bytes @ 0x1
  2688                           
  2689                           
  2690                           ; 1 bytes @ 0x1
  2691  0021                     	ds	1
  2692  0022                     ??_PutMessage:	
  2693  0022                     box@y2:	
  2694                           ; 0 bytes @ 0x2
  2695                           
  2696  0022                     PutLogo@Byte:	
  2697                           ; 1 bytes @ 0x2
  2698                           
  2699                           
  2700                           ; 1 bytes @ 0x2
  2701  0022                     	ds	1
  2702  0023                     box@x1:	
  2703  0023                     PutLogo@bitcount:	
  2704                           ; 1 bytes @ 0x3
  2705                           
  2706                           
  2707                           ; 1 bytes @ 0x3
  2708  0023                     	ds	1
  2709  0024                     PutLogo@w:	
  2710                           
  2711                           ; 1 bytes @ 0x4
  2712  0024                     	ds	1
  2713  0025                     ??_main:	
  2714                           
  2715                           ; 0 bytes @ 0x5
  2716  0025                     	ds	2
  2717                           
  2718                           	psect	maintext
  2719  073B                     __pmaintext:	
  2720 ;;
  2721 ;;Main: autosize = 0, tempsize = 2, incstack = 0, save=0
  2722 ;;
  2723 ;; *************** function _main *****************
  2724 ;; Defined at:
  2725 ;;		line 7 in file "main.c"
  2726 ;; Parameters:    Size  Location     Type
  2727 ;;		None
  2728 ;; Auto vars:     Size  Location     Type
  2729 ;;  i               1    0        unsigned char 
  2730 ;; Return value:  Size  Location     Type
  2731 ;;		None               void
  2732 ;; Registers used:
  2733 ;;		wreg, fsr0l, fsr0h, status,2, status,0, pclath, cstack
  2734 ;; Tracked objects:
  2735 ;;		On entry : B1F/0
  2736 ;;		On exit  : 0/0
  2737 ;;		Unchanged: 0/0
  2738 ;; Data sizes:     COMMON   BANK0   BANK1   BANK2   BANK3   BANK4   BANK5   BANK6   BANK7   BANK8   BANK9  BANK10  BANK1
      +1  BANK12
  2739 ;;      Params:         0       0       0       0       0       0       0       0       0       0       0       0       
      +0       0
  2740 ;;      Locals:         0       0       0       0       0       0       0       0       0       0       0       0       
      +0       0
  2741 ;;      Temps:          0       2       0       0       0       0       0       0       0       0       0       0       
      +0       0
  2742 ;;      Totals:         0       2       0       0       0       0       0       0       0       0       0       0       
      +0       0
  2743 ;;Total ram usage:        2 bytes
  2744 ;; Hardware stack levels required when called:    7
  2745 ;; This function calls:
  2746 ;;		_Init
  2747 ;;		_Init_GLCD
  2748 ;;		_PutLogo
  2749 ;;		_PutMessage
  2750 ;;		_SetPos
  2751 ;;		_box
  2752 ;; This function is called by:
  2753 ;;		Startup code after reset
  2754 ;; This function uses a non-reentrant model
  2755 ;;
  2756                           
  2757                           
  2758                           ;psect for function _main
  2759  073B                     _main:	
  2760                           
  2761                           ;main.c: 9: Init();
  2762                           
  2763                           ;incstack = 0
  2764                           ; Regs used in _main: [wreg-fsr0h+status,2+status,0+pclath+cstack]
  2765  073B  3185  2523  3187   	fcall	_Init
  2766                           
  2767                           ;main.c: 10: unsigned char i;
  2768                           ;main.c: 11: Init_GLCD();
  2769  073E  3185  2543  3187   	fcall	_Init_GLCD
  2770                           
  2771                           ;main.c: 13: PutMessage((unsigned char* const)"\x16\x20\x08DannyZee's\x16\x20\x10 Electr
      +                          onics\n Title:\n Author:\n Date:\n Hardware:");
  2772  0741  30D7               	movlw	low (STR_1| (0+32768))
  2773  0742  0020               	movlb	0	; select bank0
  2774  0743  00A0               	movwf	PutMessage@Message
  2775  0744  308A               	movlw	high (STR_1| (0+32768))
  2776  0745  00A1               	movwf	PutMessage@Message+1
  2777  0746  3186  2662  3187   	fcall	_PutMessage
  2778                           
  2779                           ;main.c: 14: PutMessage((unsigned char* const)"\x16\x38\x18 Graphic demo.");
  2780  0749  3015               	movlw	low (STR_2| (0+32768))
  2781  074A  0020               	movlb	0	; select bank0
  2782  074B  00A0               	movwf	PutMessage@Message
  2783  074C  308B               	movlw	high (STR_2| (0+32768))
  2784  074D  00A1               	movwf	PutMessage@Message+1
  2785  074E  3186  2662  3187   	fcall	_PutMessage
  2786                           
  2787                           ;main.c: 15: PutMessage((unsigned char* const)"\x16\x38\x20 Dave Ziegl.");
  2788  0751  3038               	movlw	low (STR_3| (0+32768))
  2789  0752  0020               	movlb	0	; select bank0
  2790  0753  00A0               	movwf	PutMessage@Message
  2791  0754  308B               	movlw	high (STR_3| (0+32768))
  2792  0755  00A1               	movwf	PutMessage@Message+1
  2793  0756  3186  2662  3187   	fcall	_PutMessage
  2794                           
  2795                           ;main.c: 16: PutMessage((unsigned char* const)"\x16\x38\x28 Apr 19 2017.");
  2796  0759  3027               	movlw	low (STR_4| (0+32768))
  2797  075A  0020               	movlb	0	; select bank0
  2798  075B  00A0               	movwf	PutMessage@Message
  2799  075C  308B               	movlw	high (STR_4| (0+32768))
  2800  075D  00A1               	movwf	PutMessage@Message+1
  2801  075E  3186  2662  3187   	fcall	_PutMessage
  2802                           
  2803                           ;main.c: 17: PutMessage((unsigned char* const)"\x16\x38\x30 16F18855.");
  2804  0761  3048               	movlw	low (STR_5| (0+32768))
  2805  0762  0020               	movlb	0	; select bank0
  2806  0763  00A0               	movwf	PutMessage@Message
  2807  0764  308B               	movlw	high (STR_5| (0+32768))
  2808  0765  00A1               	movwf	PutMessage@Message+1
  2809  0766  3186  2662  3187   	fcall	_PutMessage
  2810                           
  2811                           ;main.c: 18: box(1,1,126,62);
  2812  0769  0020               	movlb	0	; select bank0
  2813  076A  01A0               	clrf	box@y1
  2814  076B  0AA0               	incf	box@y1,f
  2815  076C  307E               	movlw	126
  2816  076D  00A5               	movwf	??_main
  2817  076E  0825               	movf	??_main,w
  2818  076F  00A1               	movwf	box@x2
  2819  0770  303E               	movlw	62
  2820  0771  00A6               	movwf	??_main+1
  2821  0772  0826               	movf	??_main+1,w
  2822  0773  00A2               	movwf	box@y2
  2823  0774  3001               	movlw	1
  2824  0775  3186  262D  3187   	fcall	_box
  2825                           
  2826                           ;main.c: 19: SetPos(3,3);
  2827  0778  3003               	movlw	3
  2828  0779  0020               	movlb	0	; select bank0
  2829  077A  00A5               	movwf	??_main
  2830  077B  0825               	movf	??_main,w
  2831  077C  00F3               	movwf	SetPos@y
  2832  077D  3003               	movlw	3
  2833  077E  3185  2516  3187   	fcall	_SetPos
  2834                           
  2835                           ;main.c: 20: PutLogo((const unsigned char*)Logo);
  2836  0781  30A0               	movlw	low (_Logo| (0+32768))
  2837  0782  00F7               	movwf	PutLogo@logo
  2838  0783  308A               	movlw	high (_Logo| (0+32768))
  2839  0784  00F8               	movwf	PutLogo@logo+1
  2840  0785  3186  26E6  3187   	fcall	_PutLogo
  2841                           
  2842                           ;main.c: 21: SetPos(127-3-20,3);
  2843  0788  3003               	movlw	3
  2844  0789  0020               	movlb	0	; select bank0
  2845  078A  00A5               	movwf	??_main
  2846  078B  0825               	movf	??_main,w
  2847  078C  00F3               	movwf	SetPos@y
  2848  078D  3068               	movlw	104
  2849  078E  3185  2516  3187   	fcall	_SetPos
  2850                           
  2851                           ;main.c: 22: PutLogo((const unsigned char*)Logo);
  2852  0791  30A0               	movlw	low (_Logo| (0+32768))
  2853  0792  00F7               	movwf	PutLogo@logo
  2854  0793  308A               	movlw	high (_Logo| (0+32768))
  2855  0794  00F8               	movwf	PutLogo@logo+1
  2856  0795  3186  26E6  3187   	fcall	_PutLogo
  2857  0798                     l19:	
  2858                           ;main.c: 23: while (1)
  2859                           
  2860                           
  2861                           ;main.c: 24: {
  2862  0798  2F98               	goto	l19
  2863  0799                     __end_of_main:	
  2864                           
  2865                           	psect	text1
  2866  062D                     __ptext1:	
  2867 ;; *************** function _box *****************
  2868 ;; Defined at:
  2869 ;;		line 45 in file "glcd.c"
  2870 ;; Parameters:    Size  Location     Type
  2871 ;;  x1              1    wreg     unsigned char 
  2872 ;;  y1              1    0[BANK0 ] unsigned char 
  2873 ;;  x2              1    1[BANK0 ] unsigned char 
  2874 ;;  y2              1    2[BANK0 ] unsigned char 
  2875 ;; Auto vars:     Size  Location     Type
  2876 ;;  x1              1    3[BANK0 ] unsigned char 
  2877 ;; Return value:  Size  Location     Type
  2878 ;;		None               void
  2879 ;; Registers used:
  2880 ;;		wreg, status,2, status,0, pclath, cstack
  2881 ;; Tracked objects:
  2882 ;;		On entry : 0/0
  2883 ;;		On exit  : 0/0
  2884 ;;		Unchanged: 0/0
  2885 ;; Data sizes:     COMMON   BANK0   BANK1   BANK2   BANK3   BANK4   BANK5   BANK6   BANK7   BANK8   BANK9  BANK10  BANK1
      +1  BANK12
  2886 ;;      Params:         0       3       0       0       0       0       0       0       0       0       0       0       
      +0       0
  2887 ;;      Locals:         0       1       0       0       0       0       0       0       0       0       0       0       
      +0       0
  2888 ;;      Temps:          2       0       0       0       0       0       0       0       0       0       0       0       
      +0       0
  2889 ;;      Totals:         2       4       0       0       0       0       0       0       0       0       0       0       
      +0       0
  2890 ;;Total ram usage:        6 bytes
  2891 ;; Hardware stack levels used:    1
  2892 ;; Hardware stack levels required when called:    5
  2893 ;; This function calls:
  2894 ;;		_hline
  2895 ;;		_vline
  2896 ;; This function is called by:
  2897 ;;		_main
  2898 ;; This function uses a non-reentrant model
  2899 ;;
  2900                           
  2901                           
  2902                           ;psect for function _box
  2903  062D                     _box:	
  2904                           
  2905                           ;incstack = 0
  2906                           ; Regs used in _box: [wreg+status,2+status,0+pclath+cstack]
  2907                           ;box@x1 stored from wreg
  2908  062D  0020               	movlb	0	; select bank0
  2909  062E  00A3               	movwf	box@x1
  2910                           
  2911                           ;glcd.c: 47: vline(x1,x2,y1);
  2912  062F  0821               	movf	box@x2,w
  2913  0630  00FC               	movwf	??_box
  2914  0631  087C               	movf	??_box,w
  2915  0632  00F7               	movwf	vline@x2
  2916  0633  0820               	movf	box@y1,w
  2917  0634  00FD               	movwf	??_box+1
  2918  0635  087D               	movf	??_box+1,w
  2919  0636  00F8               	movwf	vline@y
  2920  0637  0823               	movf	box@x1,w
  2921  0638  3185  256E  3186   	fcall	_vline
  2922                           
  2923                           ;glcd.c: 48: vline(x1,x2,y2);
  2924  063B  0020               	movlb	0	; select bank0
  2925  063C  0821               	movf	box@x2,w
  2926  063D  00FC               	movwf	??_box
  2927  063E  087C               	movf	??_box,w
  2928  063F  00F7               	movwf	vline@x2
  2929  0640  0822               	movf	box@y2,w
  2930  0641  00FD               	movwf	??_box+1
  2931  0642  087D               	movf	??_box+1,w
  2932  0643  00F8               	movwf	vline@y
  2933  0644  0823               	movf	box@x1,w
  2934  0645  3185  256E  3186   	fcall	_vline
  2935                           
  2936                           ;glcd.c: 49: hline(x1,y1,y2);
  2937  0648  0020               	movlb	0	; select bank0
  2938  0649  0820               	movf	box@y1,w
  2939  064A  00FC               	movwf	??_box
  2940  064B  087C               	movf	??_box,w
  2941  064C  00F7               	movwf	hline@y1
  2942  064D  0822               	movf	box@y2,w
  2943  064E  00FD               	movwf	??_box+1
  2944  064F  087D               	movf	??_box+1,w
  2945  0650  00F8               	movwf	hline@y2
  2946  0651  0823               	movf	box@x1,w
  2947  0652  3185  2558  3186   	fcall	_hline
  2948                           
  2949                           ;glcd.c: 50: hline(x2,y1,y2);
  2950  0655  0020               	movlb	0	; select bank0
  2951  0656  0820               	movf	box@y1,w
  2952  0657  00FC               	movwf	??_box
  2953  0658  087C               	movf	??_box,w
  2954  0659  00F7               	movwf	hline@y1
  2955  065A  0822               	movf	box@y2,w
  2956  065B  00FD               	movwf	??_box+1
  2957  065C  087D               	movf	??_box+1,w
  2958  065D  00F8               	movwf	hline@y2
  2959  065E  0821               	movf	box@x2,w
  2960  065F  3185  2558         	fcall	_hline
  2961  0661  0008               	return
  2962  0662                     __end_of_box:	
  2963                           
  2964                           	psect	text2
  2965  056E                     __ptext2:	
  2966 ;; *************** function _vline *****************
  2967 ;; Defined at:
  2968 ;;		line 38 in file "glcd.c"
  2969 ;; Parameters:    Size  Location     Type
  2970 ;;  x1              1    wreg     unsigned char 
  2971 ;;  x2              1    7[COMMON] unsigned char 
  2972 ;;  y               1    8[COMMON] unsigned char 
  2973 ;; Auto vars:     Size  Location     Type
  2974 ;;  x1              1   10[COMMON] unsigned char 
  2975 ;;  i               1   11[COMMON] unsigned char 
  2976 ;; Return value:  Size  Location     Type
  2977 ;;		None               void
  2978 ;; Registers used:
  2979 ;;		wreg, status,2, status,0, pclath, cstack
  2980 ;; Tracked objects:
  2981 ;;		On entry : 0/0
  2982 ;;		On exit  : 0/0
  2983 ;;		Unchanged: 0/0
  2984 ;; Data sizes:     COMMON   BANK0   BANK1   BANK2   BANK3   BANK4   BANK5   BANK6   BANK7   BANK8   BANK9  BANK10  BANK1
      +1  BANK12
  2985 ;;      Params:         2       0       0       0       0       0       0       0       0       0       0       0       
      +0       0
  2986 ;;      Locals:         2       0       0       0       0       0       0       0       0       0       0       0       
      +0       0
  2987 ;;      Temps:          1       0       0       0       0       0       0       0       0       0       0       0       
      +0       0
  2988 ;;      Totals:         5       0       0       0       0       0       0       0       0       0       0       0       
      +0       0
  2989 ;;Total ram usage:        5 bytes
  2990 ;; Hardware stack levels used:    1
  2991 ;; Hardware stack levels required when called:    4
  2992 ;; This function calls:
  2993 ;;		_plot
  2994 ;; This function is called by:
  2995 ;;		_box
  2996 ;; This function uses a non-reentrant model
  2997 ;;
  2998                           
  2999                           
  3000                           ;psect for function _vline
  3001  056E                     _vline:	
  3002                           
  3003                           ;incstack = 0
  3004                           ; Regs used in _vline: [wreg+status,2+status,0+pclath+cstack]
  3005                           ;vline@x1 stored from wreg
  3006  056E  00FA               	movwf	vline@x1
  3007                           
  3008                           ;glcd.c: 40: unsigned char i;
  3009                           ;glcd.c: 41: for(i=x1;i<x2;i++)
  3010  056F  087A               	movf	vline@x1,w
  3011  0570  00F9               	movwf	??_vline
  3012  0571  0879               	movf	??_vline,w
  3013  0572  00FB               	movwf	vline@i
  3014  0573                     l990:	
  3015  0573  0877               	movf	vline@x2,w
  3016  0574  027B               	subwf	vline@i,w
  3017  0575  1803               	btfsc	3,0
  3018  0576  0008               	return
  3019                           
  3020                           ;glcd.c: 42: plot(i,y);
  3021  0577  0878               	movf	vline@y,w
  3022  0578  00F9               	movwf	??_vline
  3023  0579  0879               	movf	??_vline,w
  3024  057A  00F2               	movwf	plot@y
  3025  057B  087B               	movf	vline@i,w
  3026  057C  3186  26A2  3185   	fcall	_plot
  3027  057F  3001               	movlw	1
  3028  0580  00F9               	movwf	??_vline
  3029  0581  0879               	movf	??_vline,w
  3030  0582  07FB               	addwf	vline@i,f
  3031  0583  2D73               	goto	l990
  3032  0584                     __end_of_vline:	
  3033                           
  3034                           	psect	text3
  3035  0558                     __ptext3:	
  3036 ;; *************** function _hline *****************
  3037 ;; Defined at:
  3038 ;;		line 29 in file "glcd.c"
  3039 ;; Parameters:    Size  Location     Type
  3040 ;;  x               1    wreg     unsigned char 
  3041 ;;  y1              1    7[COMMON] unsigned char 
  3042 ;;  y2              1    8[COMMON] unsigned char 
  3043 ;; Auto vars:     Size  Location     Type
  3044 ;;  x               1   10[COMMON] unsigned char 
  3045 ;;  i               1   11[COMMON] unsigned char 
  3046 ;; Return value:  Size  Location     Type
  3047 ;;		None               void
  3048 ;; Registers used:
  3049 ;;		wreg, status,2, status,0, pclath, cstack
  3050 ;; Tracked objects:
  3051 ;;		On entry : 0/0
  3052 ;;		On exit  : 0/0
  3053 ;;		Unchanged: 0/0
  3054 ;; Data sizes:     COMMON   BANK0   BANK1   BANK2   BANK3   BANK4   BANK5   BANK6   BANK7   BANK8   BANK9  BANK10  BANK1
      +1  BANK12
  3055 ;;      Params:         2       0       0       0       0       0       0       0       0       0       0       0       
      +0       0
  3056 ;;      Locals:         2       0       0       0       0       0       0       0       0       0       0       0       
      +0       0
  3057 ;;      Temps:          1       0       0       0       0       0       0       0       0       0       0       0       
      +0       0
  3058 ;;      Totals:         5       0       0       0       0       0       0       0       0       0       0       0       
      +0       0
  3059 ;;Total ram usage:        5 bytes
  3060 ;; Hardware stack levels used:    1
  3061 ;; Hardware stack levels required when called:    4
  3062 ;; This function calls:
  3063 ;;		_plot
  3064 ;; This function is called by:
  3065 ;;		_box
  3066 ;; This function uses a non-reentrant model
  3067 ;;
  3068                           
  3069                           
  3070                           ;psect for function _hline
  3071  0558                     _hline:	
  3072                           
  3073                           ;incstack = 0
  3074                           ; Regs used in _hline: [wreg+status,2+status,0+pclath+cstack]
  3075                           ;hline@x stored from wreg
  3076  0558  00FA               	movwf	hline@x
  3077                           
  3078                           ;glcd.c: 31: unsigned char i;
  3079                           ;glcd.c: 32: for(i=y1;i<y2;i++)
  3080  0559  0877               	movf	hline@y1,w
  3081  055A  00F9               	movwf	??_hline
  3082  055B  0879               	movf	??_hline,w
  3083  055C  00FB               	movwf	hline@i
  3084  055D                     l982:	
  3085  055D  0878               	movf	hline@y2,w
  3086  055E  027B               	subwf	hline@i,w
  3087  055F  1803               	btfsc	3,0
  3088  0560  0008               	return
  3089                           
  3090                           ;glcd.c: 33: {
  3091                           ;glcd.c: 34: plot(x,i);
  3092  0561  087B               	movf	hline@i,w
  3093  0562  00F9               	movwf	??_hline
  3094  0563  0879               	movf	??_hline,w
  3095  0564  00F2               	movwf	plot@y
  3096  0565  087A               	movf	hline@x,w
  3097  0566  3186  26A2  3185   	fcall	_plot
  3098  0569  3001               	movlw	1
  3099  056A  00F9               	movwf	??_hline
  3100  056B  0879               	movf	??_hline,w
  3101  056C  07FB               	addwf	hline@i,f
  3102  056D  2D5D               	goto	l982
  3103  056E                     __end_of_hline:	
  3104                           
  3105                           	psect	text4
  3106  0662                     __ptext4:	
  3107 ;; *************** function _PutMessage *****************
  3108 ;; Defined at:
  3109 ;;		line 221 in file "glcd.c"
  3110 ;; Parameters:    Size  Location     Type
  3111 ;;  Message         2    0[BANK0 ] PTR const unsigned char 
  3112 ;;		 -> STR_5(14), STR_4(17), STR_3(16), STR_2(18), 
  3113 ;;		 -> STR_1(62), 
  3114 ;; Auto vars:     Size  Location     Type
  3115 ;;		None
  3116 ;; Return value:  Size  Location     Type
  3117 ;;		None               void
  3118 ;; Registers used:
  3119 ;;		wreg, fsr0l, fsr0h, status,2, status,0, pclath, cstack
  3120 ;; Tracked objects:
  3121 ;;		On entry : 0/0
  3122 ;;		On exit  : 0/0
  3123 ;;		Unchanged: 0/0
  3124 ;; Data sizes:     COMMON   BANK0   BANK1   BANK2   BANK3   BANK4   BANK5   BANK6   BANK7   BANK8   BANK9  BANK10  BANK1
      +1  BANK12
  3125 ;;      Params:         0       2       0       0       0       0       0       0       0       0       0       0       
      +0       0
  3126 ;;      Locals:         0       0       0       0       0       0       0       0       0       0       0       0       
      +0       0
  3127 ;;      Temps:          0       1       0       0       0       0       0       0       0       0       0       0       
      +0       0
  3128 ;;      Totals:         0       3       0       0       0       0       0       0       0       0       0       0       
      +0       0
  3129 ;;Total ram usage:        3 bytes
  3130 ;; Hardware stack levels used:    1
  3131 ;; Hardware stack levels required when called:    6
  3132 ;; This function calls:
  3133 ;;		_PutChar
  3134 ;;		_WritePosition
  3135 ;; This function is called by:
  3136 ;;		_main
  3137 ;; This function uses a non-reentrant model
  3138 ;;
  3139                           
  3140                           
  3141                           ;psect for function _PutMessage
  3142  0662                     _PutMessage:	
  3143  0662                     l1074:	
  3144                           ;glcd.c: 223: while(*Message!=0)
  3145                           
  3146                           ;incstack = 0
  3147                           ; Regs used in _PutMessage: [wreg-fsr0h+status,2+status,0+pclath+cstack]
  3148                           
  3149  0662  0020               	movlb	0	; select bank0
  3150  0663  0820               	movf	PutMessage@Message,w
  3151  0664  0084               	movwf	4
  3152  0665  0821               	movf	PutMessage@Message+1,w
  3153  0666  0085               	movwf	5
  3154  0667  0012               	moviw fsr0++
  3155  0668  1903               	btfsc	3,2
  3156  0669  0008               	return
  3157                           
  3158                           ;glcd.c: 224: if(*Message==0x16)
  3159  066A  0020               	movlb	0	; select bank0
  3160  066B  0820               	movf	PutMessage@Message,w
  3161  066C  0084               	movwf	4
  3162  066D  0821               	movf	PutMessage@Message+1,w
  3163  066E  0085               	movwf	5
  3164  066F  0012               	moviw fsr0++
  3165  0670  3A16               	xorlw	22
  3166  0671  1D03               	btfss	3,2
  3167  0672  2E93               	goto	l1070
  3168                           
  3169                           ;glcd.c: 225: {
  3170                           ;glcd.c: 226: *Message++;
  3171  0673  3001               	movlw	1
  3172  0674  07A0               	addwf	PutMessage@Message,f
  3173  0675  3000               	movlw	0
  3174  0676  3DA1               	addwfc	PutMessage@Message+1,f
  3175                           
  3176                           ;glcd.c: 227: XPos=*Message++;
  3177  0677  0820               	movf	PutMessage@Message,w
  3178  0678  0084               	movwf	4
  3179  0679  0821               	movf	PutMessage@Message+1,w
  3180  067A  0085               	movwf	5
  3181  067B  0800               	movf	0,w	;code access
  3182  067C  00A2               	movwf	??_PutMessage
  3183  067D  0822               	movf	??_PutMessage,w
  3184  067E  00A8               	movwf	_XPos
  3185  067F  3001               	movlw	1
  3186  0680  07A0               	addwf	PutMessage@Message,f
  3187  0681  3000               	movlw	0
  3188  0682  3DA1               	addwfc	PutMessage@Message+1,f
  3189                           
  3190                           ;glcd.c: 228: YPos=*Message++;
  3191  0683  0820               	movf	PutMessage@Message,w
  3192  0684  0084               	movwf	4
  3193  0685  0821               	movf	PutMessage@Message+1,w
  3194  0686  0085               	movwf	5
  3195  0687  0800               	movf	0,w	;code access
  3196  0688  00A2               	movwf	??_PutMessage
  3197  0689  0822               	movf	??_PutMessage,w
  3198  068A  00A9               	movwf	_YPos
  3199  068B  3001               	movlw	1
  3200  068C  07A0               	addwf	PutMessage@Message,f
  3201  068D  3000               	movlw	0
  3202  068E  3DA1               	addwfc	PutMessage@Message+1,f
  3203                           
  3204                           ;glcd.c: 229: WritePosition();
  3205  068F  3185  259F  3186   	fcall	_WritePosition
  3206                           
  3207                           ;glcd.c: 230: }
  3208  0692  2E62               	goto	l1074
  3209  0693                     l1070:	
  3210                           
  3211                           ;glcd.c: 231: else
  3212                           ;glcd.c: 232: PutChar(*Message++);
  3213  0693  0020               	movlb	0	; select bank0
  3214  0694  0820               	movf	PutMessage@Message,w
  3215  0695  0084               	movwf	4
  3216  0696  0821               	movf	PutMessage@Message+1,w
  3217  0697  0085               	movwf	5
  3218  0698  0800               	movf	0,w	;code access
  3219  0699  3187  2799  3186   	fcall	_PutChar
  3220  069C  3001               	movlw	1
  3221  069D  0020               	movlb	0	; select bank0
  3222  069E  07A0               	addwf	PutMessage@Message,f
  3223  069F  3000               	movlw	0
  3224  06A0  3DA1               	addwfc	PutMessage@Message+1,f
  3225  06A1  2E62               	goto	l1074
  3226  06A2                     __end_of_PutMessage:	
  3227                           
  3228                           	psect	text5
  3229  0799                     __ptext5:	
  3230 ;; *************** function _PutChar *****************
  3231 ;; Defined at:
  3232 ;;		line 189 in file "glcd.c"
  3233 ;; Parameters:    Size  Location     Type
  3234 ;;  data            1    wreg     unsigned char 
  3235 ;; Auto vars:     Size  Location     Type
  3236 ;;  data            1   12[COMMON] unsigned char 
  3237 ;;  i               1   13[COMMON] unsigned char 
  3238 ;;  d               1   11[COMMON] unsigned char 
  3239 ;; Return value:  Size  Location     Type
  3240 ;;		None               void
  3241 ;; Registers used:
  3242 ;;		wreg, fsr0l, fsr0h, status,2, status,0, pclath, cstack
  3243 ;; Tracked objects:
  3244 ;;		On entry : 0/0
  3245 ;;		On exit  : 0/0
  3246 ;;		Unchanged: 0/0
  3247 ;; Data sizes:     COMMON   BANK0   BANK1   BANK2   BANK3   BANK4   BANK5   BANK6   BANK7   BANK8   BANK9  BANK10  BANK1
      +1  BANK12
  3248 ;;      Params:         0       0       0       0       0       0       0       0       0       0       0       0       
      +0       0
  3249 ;;      Locals:         3       0       0       0       0       0       0       0       0       0       0       0       
      +0       0
  3250 ;;      Temps:          5       0       0       0       0       0       0       0       0       0       0       0       
      +0       0
  3251 ;;      Totals:         8       0       0       0       0       0       0       0       0       0       0       0       
      +0       0
  3252 ;;Total ram usage:        8 bytes
  3253 ;; Hardware stack levels used:    1
  3254 ;; Hardware stack levels required when called:    5
  3255 ;; This function calls:
  3256 ;;		_GLCD_Write_Data
  3257 ;;		_MoveRight
  3258 ;;		_WritePosition
  3259 ;;		___wmul
  3260 ;; This function is called by:
  3261 ;;		_PutMessage
  3262 ;; This function uses a non-reentrant model
  3263 ;;
  3264                           
  3265                           
  3266                           ;psect for function _PutChar
  3267  0799                     _PutChar:	
  3268                           
  3269                           ;incstack = 0
  3270                           ; Regs used in _PutChar: [wreg-fsr0h+status,2+status,0+pclath+cstack]
  3271                           ;PutChar@data stored from wreg
  3272  0799  00FC               	movwf	PutChar@data
  3273                           
  3274                           ;glcd.c: 191: unsigned char i,d;
  3275                           ;glcd.c: 192: if(data<32)
  3276  079A  3020               	movlw	32
  3277  079B  027C               	subwf	PutChar@data,w
  3278  079C  1C03               	btfss	3,0
  3279  079D  2FAD               	goto	l1030
  3280  079E  2FB8               	goto	l1034
  3281  079F                     l1024:	
  3282                           ;glcd.c: 195: {
  3283                           ;glcd.c: 196: case 13:
  3284                           
  3285                           ;glcd.c: 193: {
  3286                           ;glcd.c: 194: switch(data)
  3287                           
  3288                           
  3289                           ;glcd.c: 197: XPos=0;
  3290  079F  0020               	movlb	0	; select bank0
  3291  07A0  01A8               	clrf	_XPos
  3292  07A1                     l124:	
  3293                           ;glcd.c: 198: case 10:
  3294                           
  3295                           
  3296                           ;glcd.c: 199: XPos=0;
  3297  07A1  0020               	movlb	0	; select bank0
  3298  07A2  01A8               	clrf	_XPos
  3299                           
  3300                           ;glcd.c: 200: YPos+=8;
  3301  07A3  3008               	movlw	8
  3302  07A4  00F6               	movwf	??_PutChar
  3303  07A5  0876               	movf	??_PutChar,w
  3304  07A6  07A9               	addwf	_YPos,f
  3305                           
  3306                           ;glcd.c: 201: YPos=YPos&63;
  3307  07A7  0829               	movf	_YPos,w
  3308  07A8  393F               	andlw	63
  3309  07A9  00F6               	movwf	??_PutChar
  3310  07AA  0876               	movf	??_PutChar,w
  3311  07AB  00A9               	movwf	_YPos
  3312                           
  3313                           ;glcd.c: 202: }
  3314  07AC  2FB5               	goto	l1032
  3315  07AD                     l1030:	
  3316  07AD  087C               	movf	PutChar@data,w
  3317                           
  3318                           ; Switch size 1, requested type "space"
  3319                           ; Number of cases is 2, Range of values is 10 to 13
  3320                           ; switch strategies available:
  3321                           ; Name         Instructions Cycles
  3322                           ; simple_byte            7     4 (average)
  3323                           ; direct_byte           17     9 (fixed)
  3324                           ; jumptable            263     9 (fixed)
  3325                           ;	Chosen strategy is simple_byte
  3326  07AE  3A0A               	xorlw	10	; case 10
  3327  07AF  1903               	skipnz
  3328  07B0  2FA1               	goto	l124
  3329  07B1  3A07               	xorlw	7	; case 13
  3330  07B2  1903               	skipnz
  3331  07B3  2F9F               	goto	l1024
  3332  07B4  2FB5               	goto	l1032
  3333  07B5                     l1032:	
  3334                           
  3335                           ;glcd.c: 203: WritePosition();
  3336  07B5  3185  259F         	fcall	_WritePosition
  3337                           
  3338                           ;glcd.c: 204: }
  3339  07B7  0008               	return
  3340  07B8                     l1034:	
  3341                           
  3342                           ;glcd.c: 205: else
  3343                           ;glcd.c: 206: {
  3344                           ;glcd.c: 207: for(i=0;i<7;i++)
  3345  07B8  01FD               	clrf	PutChar@i
  3346  07B9  3007               	movlw	7
  3347  07BA  027D               	subwf	PutChar@i,w
  3348  07BB  1803               	btfsc	3,0
  3349  07BC  2FF3               	goto	l1050
  3350  07BD                     l1040:	
  3351                           
  3352                           ;glcd.c: 208: {
  3353                           ;glcd.c: 209: d=Font[data-32][i];
  3354  07BD  087C               	movf	PutChar@data,w
  3355  07BE  3EE0               	addlw	224
  3356  07BF  00F0               	movwf	___wmul@multiplier
  3357  07C0  30FF               	movlw	255
  3358  07C1  1803               	skipnc
  3359  07C2  3000               	movlw	0
  3360  07C3  00F1               	movwf	___wmul@multiplier+1
  3361  07C4  3007               	movlw	7
  3362  07C5  00F2               	movwf	___wmul@multiplicand
  3363  07C6  3000               	movlw	0
  3364  07C7  00F3               	movwf	___wmul@multiplicand+1
  3365  07C8  3185  2584  3187   	fcall	___wmul
  3366  07CB  3000               	movlw	low (_Font| (0+32768))
  3367  07CC  00F6               	movwf	??_PutChar
  3368  07CD  3088               	movlw	high (_Font| (0+32768))
  3369  07CE  00F7               	movwf	??_PutChar+1
  3370  07CF  0870               	movf	?___wmul,w
  3371  07D0  0776               	addwf	??_PutChar,w
  3372  07D1  00F8               	movwf	??_PutChar+2
  3373  07D2  0871               	movf	?___wmul+1,w
  3374  07D3  3D77               	addwfc	??_PutChar+1,w
  3375  07D4  00F9               	movwf	??_PutChar+3
  3376  07D5  087D               	movf	PutChar@i,w
  3377  07D6  0778               	addwf	??_PutChar+2,w
  3378  07D7  0084               	movwf	4
  3379  07D8  0879               	movf	??_PutChar+3,w
  3380  07D9  1803               	skipnc
  3381  07DA  0A79               	incf	??_PutChar+3,w
  3382  07DB  0085               	movwf	5
  3383  07DC  0800               	movf	0,w	;code access
  3384  07DD  00FA               	movwf	??_PutChar+4
  3385  07DE  087A               	movf	??_PutChar+4,w
  3386  07DF  00FB               	movwf	PutChar@d
  3387                           
  3388                           ;glcd.c: 210: if(d!=0x55)
  3389  07E0  3055               	movlw	85
  3390  07E1  067B               	xorwf	PutChar@d,w
  3391  07E2  1903               	btfsc	3,2
  3392  07E3  2FEB               	goto	l1046
  3393                           
  3394                           ;glcd.c: 211: {
  3395                           ;glcd.c: 212: GLCD_Write_Data(d);
  3396  07E4  087B               	movf	PutChar@d,w
  3397  07E5  3184  24FE  3187   	fcall	_GLCD_Write_Data
  3398                           
  3399                           ;glcd.c: 213: MoveRight();
  3400  07E8  3185  25BC  3187   	fcall	_MoveRight
  3401  07EB                     l1046:	
  3402  07EB  3001               	movlw	1
  3403  07EC  00F6               	movwf	??_PutChar
  3404  07ED  0876               	movf	??_PutChar,w
  3405  07EE  07FD               	addwf	PutChar@i,f
  3406  07EF  3007               	movlw	7
  3407  07F0  027D               	subwf	PutChar@i,w
  3408  07F1  1C03               	skipc
  3409  07F2  2FBD               	goto	l1040
  3410  07F3                     l1050:	
  3411                           
  3412                           ;glcd.c: 214: }
  3413                           ;glcd.c: 215: }
  3414                           ;glcd.c: 216: GLCD_Write_Data(0xff);
  3415  07F3  30FF               	movlw	255
  3416  07F4  3184  24FE  3187   	fcall	_GLCD_Write_Data
  3417                           
  3418                           ;glcd.c: 217: MoveRight();
  3419  07F7  3185  25BC         	fcall	_MoveRight
  3420  07F9  0008               	return
  3421  07FA                     __end_of_PutChar:	
  3422                           
  3423                           	psect	text6
  3424  0584                     __ptext6:	
  3425 ;; *************** function ___wmul *****************
  3426 ;; Defined at:
  3427 ;;		line 15 in file "C:\Program Files (x86)\Microchip\xc8\v1.35\sources\common\Umul16.c"
  3428 ;; Parameters:    Size  Location     Type
  3429 ;;  multiplier      2    0[COMMON] unsigned int 
  3430 ;;  multiplicand    2    2[COMMON] unsigned int 
  3431 ;; Auto vars:     Size  Location     Type
  3432 ;;  product         2    4[COMMON] unsigned int 
  3433 ;; Return value:  Size  Location     Type
  3434 ;;                  2    0[COMMON] unsigned int 
  3435 ;; Registers used:
  3436 ;;		wreg, status,2, status,0
  3437 ;; Tracked objects:
  3438 ;;		On entry : 0/0
  3439 ;;		On exit  : 0/0
  3440 ;;		Unchanged: 0/0
  3441 ;; Data sizes:     COMMON   BANK0   BANK1   BANK2   BANK3   BANK4   BANK5   BANK6   BANK7   BANK8   BANK9  BANK10  BANK1
      +1  BANK12
  3442 ;;      Params:         4       0       0       0       0       0       0       0       0       0       0       0       
      +0       0
  3443 ;;      Locals:         2       0       0       0       0       0       0       0       0       0       0       0       
      +0       0
  3444 ;;      Temps:          0       0       0       0       0       0       0       0       0       0       0       0       
      +0       0
  3445 ;;      Totals:         6       0       0       0       0       0       0       0       0       0       0       0       
      +0       0
  3446 ;;Total ram usage:        6 bytes
  3447 ;; Hardware stack levels used:    1
  3448 ;; This function calls:
  3449 ;;		Nothing
  3450 ;; This function is called by:
  3451 ;;		_PutChar
  3452 ;; This function uses a non-reentrant model
  3453 ;;
  3454                           
  3455                           
  3456                           ;psect for function ___wmul
  3457  0584                     ___wmul:	
  3458                           
  3459                           ;incstack = 0
  3460                           ; Regs used in ___wmul: [wreg+status,2+status,0]
  3461  0584  01F4               	clrf	___wmul@product
  3462  0585  01F5               	clrf	___wmul@product+1
  3463  0586                     l964:	
  3464  0586  1C70               	btfss	___wmul@multiplier,0
  3465  0587  2D8C               	goto	l182
  3466  0588  0872               	movf	___wmul@multiplicand,w
  3467  0589  07F4               	addwf	___wmul@product,f
  3468  058A  0873               	movf	___wmul@multiplicand+1,w
  3469  058B  3DF5               	addwfc	___wmul@product+1,f
  3470  058C                     l182:	
  3471  058C  3001               	movlw	1
  3472  058D                     u465:	
  3473  058D  35F2               	lslf	___wmul@multiplicand,f
  3474  058E  0DF3               	rlf	___wmul@multiplicand+1,f
  3475  058F  0B89               	decfsz	9,f
  3476  0590  2D8D               	goto	u465
  3477  0591  3001               	movlw	1
  3478  0592                     u475:	
  3479  0592  36F1               	lsrf	___wmul@multiplier+1,f
  3480  0593  0CF0               	rrf	___wmul@multiplier,f
  3481  0594  0B89               	decfsz	9,f
  3482  0595  2D92               	goto	u475
  3483  0596  0870               	movf	___wmul@multiplier,w
  3484  0597  0471               	iorwf	___wmul@multiplier+1,w
  3485  0598  1D03               	btfss	3,2
  3486  0599  2D86               	goto	l964
  3487  059A  0875               	movf	___wmul@product+1,w
  3488  059B  00F1               	movwf	?___wmul+1
  3489  059C  0874               	movf	___wmul@product,w
  3490  059D  00F0               	movwf	?___wmul
  3491  059E  0008               	return
  3492  059F                     __end_of___wmul:	
  3493                           
  3494                           	psect	text7
  3495  05BC                     __ptext7:	
  3496 ;; *************** function _MoveRight *****************
  3497 ;; Defined at:
  3498 ;;		line 106 in file "glcd.c"
  3499 ;; Parameters:    Size  Location     Type
  3500 ;;		None
  3501 ;; Auto vars:     Size  Location     Type
  3502 ;;		None
  3503 ;; Return value:  Size  Location     Type
  3504 ;;		None               void
  3505 ;; Registers used:
  3506 ;;		wreg, status,2, status,0, pclath, cstack
  3507 ;; Tracked objects:
  3508 ;;		On entry : 0/0
  3509 ;;		On exit  : 0/0
  3510 ;;		Unchanged: 0/0
  3511 ;; Data sizes:     COMMON   BANK0   BANK1   BANK2   BANK3   BANK4   BANK5   BANK6   BANK7   BANK8   BANK9  BANK10  BANK1
      +1  BANK12
  3512 ;;      Params:         0       0       0       0       0       0       0       0       0       0       0       0       
      +0       0
  3513 ;;      Locals:         0       0       0       0       0       0       0       0       0       0       0       0       
      +0       0
  3514 ;;      Temps:          1       0       0       0       0       0       0       0       0       0       0       0       
      +0       0
  3515 ;;      Totals:         1       0       0       0       0       0       0       0       0       0       0       0       
      +0       0
  3516 ;;Total ram usage:        1 bytes
  3517 ;; Hardware stack levels used:    1
  3518 ;; Hardware stack levels required when called:    4
  3519 ;; This function calls:
  3520 ;;		_WritePosition
  3521 ;; This function is called by:
  3522 ;;		_PutChar
  3523 ;; This function uses a non-reentrant model
  3524 ;;
  3525                           
  3526                           
  3527                           ;psect for function _MoveRight
  3528  05BC                     _MoveRight:	
  3529                           
  3530                           ;glcd.c: 108: if(++XPos==64)
  3531                           
  3532                           ;incstack = 0
  3533                           ; Regs used in _MoveRight: [wreg+status,2+status,0+pclath+cstack]
  3534  05BC  3001               	movlw	1
  3535  05BD  00F3               	movwf	??_MoveRight
  3536  05BE  0873               	movf	??_MoveRight,w
  3537  05BF  0020               	movlb	0	; select bank0
  3538  05C0  07A8               	addwf	_XPos,f
  3539  05C1  3040               	movlw	64
  3540  05C2  0628               	xorwf	_XPos,w
  3541  05C3  1D03               	btfss	3,2
  3542  05C4  2DC8               	goto	l952
  3543                           
  3544                           ;glcd.c: 109: {
  3545                           ;glcd.c: 110: WritePosition();
  3546  05C5  3185  259F  3185   	fcall	_WritePosition
  3547  05C8                     l952:	
  3548                           
  3549                           ;glcd.c: 111: }
  3550                           ;glcd.c: 112: if(XPos==128)
  3551  05C8  3080               	movlw	128
  3552  05C9  0020               	movlb	0	; select bank0
  3553  05CA  0628               	xorwf	_XPos,w
  3554  05CB  1D03               	btfss	3,2
  3555  05CC  0008               	return
  3556                           
  3557                           ;glcd.c: 113: {
  3558                           ;glcd.c: 114: XPos=0;
  3559  05CD  01A8               	clrf	_XPos
  3560                           
  3561                           ;glcd.c: 115: YPos+=8;
  3562  05CE  3008               	movlw	8
  3563  05CF  00F3               	movwf	??_MoveRight
  3564  05D0  0873               	movf	??_MoveRight,w
  3565  05D1  07A9               	addwf	_YPos,f
  3566                           
  3567                           ;glcd.c: 116: YPos=YPos&0x3f;
  3568  05D2  0829               	movf	_YPos,w
  3569  05D3  393F               	andlw	63
  3570  05D4  00F3               	movwf	??_MoveRight
  3571  05D5  0873               	movf	??_MoveRight,w
  3572  05D6  00A9               	movwf	_YPos
  3573                           
  3574                           ;glcd.c: 117: WritePosition();
  3575  05D7  3185  259F         	fcall	_WritePosition
  3576  05D9  0008               	return
  3577  05DA                     __end_of_MoveRight:	
  3578                           
  3579                           	psect	text8
  3580  06E6                     __ptext8:	
  3581 ;; *************** function _PutLogo *****************
  3582 ;; Defined at:
  3583 ;;		line 235 in file "glcd.c"
  3584 ;; Parameters:    Size  Location     Type
  3585 ;;  logo            2    7[COMMON] PTR const unsigned char 
  3586 ;;		 -> Logo(55), 
  3587 ;; Auto vars:     Size  Location     Type
  3588 ;;  w               1    4[BANK0 ] unsigned char 
  3589 ;;  bitcount        1    3[BANK0 ] unsigned char 
  3590 ;;  Byte            1    2[BANK0 ] unsigned char 
  3591 ;;  i               1    1[BANK0 ] unsigned char 
  3592 ;;  h               1    0[BANK0 ] unsigned char 
  3593 ;; Return value:  Size  Location     Type
  3594 ;;		None               void
  3595 ;; Registers used:
  3596 ;;		wreg, fsr0l, fsr0h, status,2, status,0, pclath, cstack
  3597 ;; Tracked objects:
  3598 ;;		On entry : 0/0
  3599 ;;		On exit  : 0/0
  3600 ;;		Unchanged: 0/0
  3601 ;; Data sizes:     COMMON   BANK0   BANK1   BANK2   BANK3   BANK4   BANK5   BANK6   BANK7   BANK8   BANK9  BANK10  BANK1
      +1  BANK12
  3602 ;;      Params:         2       0       0       0       0       0       0       0       0       0       0       0       
      +0       0
  3603 ;;      Locals:         0       5       0       0       0       0       0       0       0       0       0       0       
      +0       0
  3604 ;;      Temps:          1       0       0       0       0       0       0       0       0       0       0       0       
      +0       0
  3605 ;;      Totals:         3       5       0       0       0       0       0       0       0       0       0       0       
      +0       0
  3606 ;;Total ram usage:        8 bytes
  3607 ;; Hardware stack levels used:    1
  3608 ;; Hardware stack levels required when called:    4
  3609 ;; This function calls:
  3610 ;;		_plot
  3611 ;; This function is called by:
  3612 ;;		_main
  3613 ;; This function uses a non-reentrant model
  3614 ;;
  3615                           
  3616                           
  3617                           ;psect for function _PutLogo
  3618  06E6                     _PutLogo:	
  3619                           
  3620                           ;glcd.c: 237: unsigned char i;
  3621                           ;glcd.c: 238: unsigned char w,h,bitcount,Byte;
  3622                           ;glcd.c: 239: w=*logo++;
  3623                           
  3624                           ;incstack = 0
  3625                           ; Regs used in _PutLogo: [wreg-fsr0h+status,2+status,0+pclath+cstack]
  3626  06E6  0877               	movf	PutLogo@logo,w
  3627  06E7  0084               	movwf	4
  3628  06E8  0878               	movf	PutLogo@logo+1,w
  3629  06E9  0085               	movwf	5
  3630  06EA  0800               	movf	0,w	;code access
  3631  06EB  00F9               	movwf	??_PutLogo
  3632  06EC  0879               	movf	??_PutLogo,w
  3633  06ED  0020               	movlb	0	; select bank0
  3634  06EE  00A4               	movwf	PutLogo@w
  3635  06EF  3001               	movlw	1
  3636  06F0  07F7               	addwf	PutLogo@logo,f
  3637  06F1  3000               	movlw	0
  3638  06F2  3DF8               	addwfc	PutLogo@logo+1,f
  3639                           
  3640                           ;glcd.c: 240: h=*logo++;
  3641  06F3  0877               	movf	PutLogo@logo,w
  3642  06F4  0084               	movwf	4
  3643  06F5  0878               	movf	PutLogo@logo+1,w
  3644  06F6  0085               	movwf	5
  3645  06F7  0800               	movf	0,w	;code access
  3646  06F8  00F9               	movwf	??_PutLogo
  3647  06F9  0879               	movf	??_PutLogo,w
  3648  06FA  00A0               	movwf	PutLogo@h
  3649  06FB  3001               	movlw	1
  3650  06FC  07F7               	addwf	PutLogo@logo,f
  3651  06FD  3000               	movlw	0
  3652  06FE  3DF8               	addwfc	PutLogo@logo+1,f
  3653                           
  3654                           ;glcd.c: 241: bitcount=0;
  3655  06FF  01A3               	clrf	PutLogo@bitcount
  3656  0700                     l1086:	
  3657                           ;glcd.c: 242: do{
  3658                           
  3659                           
  3660                           ;glcd.c: 243: for(i=0;i<w;i++)
  3661  0700  01A1               	clrf	PutLogo@i
  3662  0701                     l1108:	
  3663  0701  0824               	movf	PutLogo@w,w
  3664  0702  0221               	subwf	PutLogo@i,w
  3665  0703  1803               	btfsc	3,0
  3666  0704  2F30               	goto	l1110
  3667                           
  3668                           ;glcd.c: 244: {
  3669                           ;glcd.c: 245: if(bitcount==0)
  3670  0705  0823               	movf	PutLogo@bitcount,w
  3671  0706  1D03               	btfss	3,2
  3672  0707  2F18               	goto	l1096
  3673                           
  3674                           ;glcd.c: 246: {
  3675                           ;glcd.c: 247: bitcount=8;
  3676  0708  3008               	movlw	8
  3677  0709  00F9               	movwf	??_PutLogo
  3678  070A  0879               	movf	??_PutLogo,w
  3679  070B  00A3               	movwf	PutLogo@bitcount
  3680                           
  3681                           ;glcd.c: 248: Byte=*logo++;
  3682  070C  0877               	movf	PutLogo@logo,w
  3683  070D  0084               	movwf	4
  3684  070E  0878               	movf	PutLogo@logo+1,w
  3685  070F  0085               	movwf	5
  3686  0710  0800               	movf	0,w	;code access
  3687  0711  00F9               	movwf	??_PutLogo
  3688  0712  0879               	movf	??_PutLogo,w
  3689  0713  00A2               	movwf	PutLogo@Byte
  3690  0714  3001               	movlw	1
  3691  0715  07F7               	addwf	PutLogo@logo,f
  3692  0716  3000               	movlw	0
  3693  0717  3DF8               	addwfc	PutLogo@logo+1,f
  3694  0718                     l1096:	
  3695                           
  3696                           ;glcd.c: 249: }
  3697                           ;glcd.c: 250: if(Byte&1) plot(XPos,YPos);
  3698  0718  1C22               	btfss	PutLogo@Byte,0
  3699  0719  2F22               	goto	l1100
  3700  071A  0829               	movf	_YPos,w
  3701  071B  00F9               	movwf	??_PutLogo
  3702  071C  0879               	movf	??_PutLogo,w
  3703  071D  00F2               	movwf	plot@y
  3704  071E  0828               	movf	_XPos,w
  3705  071F  3186  26A2  3186   	fcall	_plot
  3706  0722                     l1100:	
  3707                           
  3708                           ;glcd.c: 251: XPos++;
  3709  0722  3001               	movlw	1
  3710  0723  00F9               	movwf	??_PutLogo
  3711  0724  0879               	movf	??_PutLogo,w
  3712  0725  0020               	movlb	0	; select bank0
  3713  0726  07A8               	addwf	_XPos,f
  3714                           
  3715                           ;glcd.c: 252: Byte/=2;
  3716  0727  1003               	clrc
  3717  0728  0CA2               	rrf	PutLogo@Byte,f
  3718                           
  3719                           ;glcd.c: 253: bitcount--;
  3720  0729  3001               	movlw	1
  3721  072A  02A3               	subwf	PutLogo@bitcount,f
  3722  072B  3001               	movlw	1
  3723  072C  00F9               	movwf	??_PutLogo
  3724  072D  0879               	movf	??_PutLogo,w
  3725  072E  07A1               	addwf	PutLogo@i,f
  3726  072F  2F01               	goto	l1108
  3727  0730                     l1110:	
  3728                           
  3729                           ;glcd.c: 254: }
  3730                           ;glcd.c: 255: YPos++;
  3731  0730  3001               	movlw	1
  3732  0731  00F9               	movwf	??_PutLogo
  3733  0732  0879               	movf	??_PutLogo,w
  3734  0733  07A9               	addwf	_YPos,f
  3735                           
  3736                           ;glcd.c: 256: XPos-=w;
  3737  0734  0824               	movf	PutLogo@w,w
  3738  0735  02A8               	subwf	_XPos,f
  3739                           
  3740                           ;glcd.c: 257: }while(--h);
  3741  0736  3001               	movlw	1
  3742  0737  02A0               	subwf	PutLogo@h,f
  3743  0738  1903               	btfsc	3,2
  3744  0739  0008               	return
  3745  073A  2F00               	goto	l1086
  3746  073B                     __end_of_PutLogo:	
  3747                           
  3748                           	psect	text9
  3749  06A2                     __ptext9:	
  3750 ;; *************** function _plot *****************
  3751 ;; Defined at:
  3752 ;;		line 6 in file "glcd.c"
  3753 ;; Parameters:    Size  Location     Type
  3754 ;;  x               1    wreg     unsigned char 
  3755 ;;  y               1    2[COMMON] unsigned char 
  3756 ;; Auto vars:     Size  Location     Type
  3757 ;;  x               1    6[COMMON] unsigned char 
  3758 ;;  d               1    5[COMMON] unsigned char 
  3759 ;; Return value:  Size  Location     Type
  3760 ;;		None               void
  3761 ;; Registers used:
  3762 ;;		wreg, status,2, status,0, pclath, cstack
  3763 ;; Tracked objects:
  3764 ;;		On entry : 0/0
  3765 ;;		On exit  : 0/0
  3766 ;;		Unchanged: 0/0
  3767 ;; Data sizes:     COMMON   BANK0   BANK1   BANK2   BANK3   BANK4   BANK5   BANK6   BANK7   BANK8   BANK9  BANK10  BANK1
      +1  BANK12
  3768 ;;      Params:         1       0       0       0       0       0       0       0       0       0       0       0       
      +0       0
  3769 ;;      Locals:         2       0       0       0       0       0       0       0       0       0       0       0       
      +0       0
  3770 ;;      Temps:          2       0       0       0       0       0       0       0       0       0       0       0       
      +0       0
  3771 ;;      Totals:         5       0       0       0       0       0       0       0       0       0       0       0       
      +0       0
  3772 ;;Total ram usage:        5 bytes
  3773 ;; Hardware stack levels used:    1
  3774 ;; Hardware stack levels required when called:    3
  3775 ;; This function calls:
  3776 ;;		_GLCD_Read_Data
  3777 ;;		_GLCD_Write_Cmd
  3778 ;;		_GLCD_Write_Data
  3779 ;; This function is called by:
  3780 ;;		_hline
  3781 ;;		_vline
  3782 ;;		_PutLogo
  3783 ;; This function uses a non-reentrant model
  3784 ;;
  3785                           
  3786                           
  3787                           ;psect for function _plot
  3788  06A2                     _plot:	
  3789                           
  3790                           ;incstack = 0
  3791                           ; Regs used in _plot: [wreg+status,2+status,0+pclath+cstack]
  3792                           ;plot@x stored from wreg
  3793  06A2  00F6               	movwf	plot@x
  3794                           
  3795                           ;glcd.c: 8: unsigned char d;
  3796                           ;glcd.c: 9: if(x>63)
  3797  06A3  3040               	movlw	64
  3798  06A4  0276               	subwf	plot@x,w
  3799  06A5  1C03               	skipc
  3800  06A6  2EAD               	goto	l55
  3801                           
  3802                           ;glcd.c: 10: {
  3803                           ;glcd.c: 11: LATBbits.LATB0=0;
  3804  06A7  0020               	movlb	0	; select bank0
  3805  06A8  1017               	bcf	23,0	;volatile
  3806                           
  3807                           ;glcd.c: 12: LATBbits.LATB1=1;
  3808  06A9  1497               	bsf	23,1	;volatile
  3809                           
  3810                           ;glcd.c: 13: x-=64;
  3811  06AA  3040               	movlw	64
  3812  06AB  02F6               	subwf	plot@x,f
  3813                           
  3814                           ;glcd.c: 14: }
  3815  06AC  2EB0               	goto	l942
  3816  06AD                     l55:	
  3817                           
  3818                           ;glcd.c: 15: else
  3819                           ;glcd.c: 16: {
  3820                           ;glcd.c: 17: LATBbits.LATB0=1;
  3821  06AD  0020               	movlb	0	; select bank0
  3822  06AE  1417               	bsf	23,0	;volatile
  3823                           
  3824                           ;glcd.c: 18: LATBbits.LATB1=0;
  3825  06AF  1097               	bcf	23,1	;volatile
  3826  06B0                     l942:	
  3827                           
  3828                           ;glcd.c: 19: }
  3829                           ;glcd.c: 20: GLCD_Write_Cmd(0x40+x);
  3830  06B0  0876               	movf	plot@x,w
  3831  06B1  3E40               	addlw	64
  3832  06B2  3185  250A  3186   	fcall	_GLCD_Write_Cmd
  3833                           
  3834                           ;glcd.c: 21: GLCD_Write_Cmd(0xb8+(y>>3));
  3835  06B5  0872               	movf	plot@y,w
  3836  06B6  00F3               	movwf	??_plot
  3837  06B7  3003               	movlw	3
  3838  06B8                     u415:	
  3839  06B8  36F3               	lsrf	??_plot,f
  3840  06B9  0B89               	decfsz	9,f
  3841  06BA  2EB8               	goto	u415
  3842  06BB  0873               	movf	??_plot,w
  3843  06BC  3EB8               	addlw	184
  3844  06BD  3185  250A  3186   	fcall	_GLCD_Write_Cmd
  3845                           
  3846                           ;glcd.c: 22: d=GLCD_Read_Data();
  3847  06C0  3185  2532  3186   	fcall	_GLCD_Read_Data
  3848  06C3  00F3               	movwf	??_plot
  3849  06C4  0873               	movf	??_plot,w
  3850  06C5  00F5               	movwf	plot@d
  3851                           
  3852                           ;glcd.c: 23: d=GLCD_Read_Data();
  3853  06C6  3185  2532  3186   	fcall	_GLCD_Read_Data
  3854  06C9  00F3               	movwf	??_plot
  3855  06CA  0873               	movf	??_plot,w
  3856  06CB  00F5               	movwf	plot@d
  3857                           
  3858                           ;glcd.c: 24: GLCD_Write_Cmd(0x40+x);
  3859  06CC  0876               	movf	plot@x,w
  3860  06CD  3E40               	addlw	64
  3861  06CE  3185  250A  3186   	fcall	_GLCD_Write_Cmd
  3862                           
  3863                           ;glcd.c: 25: d=d&(0xff-(1<<(y&7)));
  3864  06D1  3001               	movlw	1
  3865  06D2  00F3               	movwf	??_plot
  3866  06D3  0872               	movf	plot@y,w
  3867  06D4  3907               	andlw	7
  3868  06D5  0A89               	incf	9,f
  3869  06D6  2ED8               	goto	u424
  3870  06D7                     u425:	
  3871  06D7  35F3               	lslf	??_plot,f
  3872  06D8                     u424:	
  3873  06D8  0B89               	decfsz	9,f
  3874  06D9  2ED7               	goto	u425
  3875  06DA  0873               	movf	??_plot,w
  3876  06DB  3AFF               	xorlw	255
  3877  06DC  3E01               	addlw	1
  3878  06DD  3EFF               	addlw	255
  3879  06DE  0575               	andwf	plot@d,w
  3880  06DF  00F4               	movwf	??_plot+1
  3881  06E0  0874               	movf	??_plot+1,w
  3882  06E1  00F5               	movwf	plot@d
  3883                           
  3884                           ;glcd.c: 26: GLCD_Write_Data(d);
  3885  06E2  0875               	movf	plot@d,w
  3886  06E3  3184  24FE         	fcall	_GLCD_Write_Data
  3887  06E5  0008               	return
  3888  06E6                     __end_of_plot:	
  3889                           
  3890                           	psect	text10
  3891  0532                     __ptext10:	
  3892 ;; *************** function _GLCD_Read_Data *****************
  3893 ;; Defined at:
  3894 ;;		line 137 in file "glcd.c"
  3895 ;; Parameters:    Size  Location     Type
  3896 ;;		None
  3897 ;; Auto vars:     Size  Location     Type
  3898 ;;		None
  3899 ;; Return value:  Size  Location     Type
  3900 ;;                  1    wreg      unsigned char 
  3901 ;; Registers used:
  3902 ;;		wreg, status,2, status,0, pclath, cstack
  3903 ;; Tracked objects:
  3904 ;;		On entry : 0/0
  3905 ;;		On exit  : 0/0
  3906 ;;		Unchanged: 0/0
  3907 ;; Data sizes:     COMMON   BANK0   BANK1   BANK2   BANK3   BANK4   BANK5   BANK6   BANK7   BANK8   BANK9  BANK10  BANK1
      +1  BANK12
  3908 ;;      Params:         0       0       0       0       0       0       0       0       0       0       0       0       
      +0       0
  3909 ;;      Locals:         0       0       0       0       0       0       0       0       0       0       0       0       
      +0       0
  3910 ;;      Temps:          1       0       0       0       0       0       0       0       0       0       0       0       
      +0       0
  3911 ;;      Totals:         1       0       0       0       0       0       0       0       0       0       0       0       
      +0       0
  3912 ;;Total ram usage:        1 bytes
  3913 ;; Hardware stack levels used:    1
  3914 ;; Hardware stack levels required when called:    2
  3915 ;; This function calls:
  3916 ;;		_Wait_Not_Busy
  3917 ;; This function is called by:
  3918 ;;		_plot
  3919 ;; This function uses a non-reentrant model
  3920 ;;
  3921                           
  3922                           
  3923                           ;psect for function _GLCD_Read_Data
  3924  0532                     _GLCD_Read_Data:	
  3925                           
  3926                           ;glcd.c: 139: Wait_Not_Busy();
  3927                           
  3928                           ;incstack = 0
  3929                           ; Regs used in _GLCD_Read_Data: [wreg+status,2+status,0+pclath+cstack]
  3930  0532  3185  25DA         	fcall	_Wait_Not_Busy
  3931                           
  3932                           ;glcd.c: 140: TRISC=0xff;
  3933  0534  30FF               	movlw	255
  3934  0535  0020               	movlb	0	; select bank0
  3935  0536  0093               	movwf	19	;volatile
  3936                           
  3937                           ;glcd.c: 141: LATBbits.LATB2=1;
  3938  0537  1517               	bsf	23,2	;volatile
  3939                           
  3940                           ;glcd.c: 142: LATBbits.LATB3=1;
  3941  0538  1597               	bsf	23,3	;volatile
  3942                           
  3943                           ;glcd.c: 143: LATBbits.LATB4=1;
  3944  0539  1617               	bsf	23,4	;volatile
  3945                           
  3946                           ;glcd.c: 145: W=PORTC;
  3947                           
  3948                           ;glcd.c: 144: _delay((unsigned long)((1)*(1000000/4000000.0)));
  3949  053A  0020               	movlb	0	; select bank0
  3950  053B  080E               	movf	14,w	;volatile
  3951  053C  00F1               	movwf	??_GLCD_Read_Data
  3952  053D  0871               	movf	??_GLCD_Read_Data,w
  3953  053E  00A7               	movwf	_W
  3954                           
  3955                           ;glcd.c: 146: LATBbits.LATB4=0;
  3956  053F  1217               	bcf	23,4	;volatile
  3957                           
  3958                           ;glcd.c: 147: TRISC=0x00;
  3959  0540  0193               	clrf	19	;volatile
  3960                           
  3961                           ;glcd.c: 148: return W;
  3962  0541  0827               	movf	_W,w
  3963  0542  0008               	return
  3964  0543                     __end_of_GLCD_Read_Data:	
  3965                           
  3966                           	psect	text11
  3967  0543                     __ptext11:	
  3968 ;; *************** function _Init_GLCD *****************
  3969 ;; Defined at:
  3970 ;;		line 168 in file "glcd.c"
  3971 ;; Parameters:    Size  Location     Type
  3972 ;;		None
  3973 ;; Auto vars:     Size  Location     Type
  3974 ;;  i               1    0        unsigned char 
  3975 ;; Return value:  Size  Location     Type
  3976 ;;		None               void
  3977 ;; Registers used:
  3978 ;;		wreg, status,2, status,0, pclath, cstack
  3979 ;; Tracked objects:
  3980 ;;		On entry : 0/0
  3981 ;;		On exit  : 0/0
  3982 ;;		Unchanged: 0/0
  3983 ;; Data sizes:     COMMON   BANK0   BANK1   BANK2   BANK3   BANK4   BANK5   BANK6   BANK7   BANK8   BANK9  BANK10  BANK1
      +1  BANK12
  3984 ;;      Params:         0       0       0       0       0       0       0       0       0       0       0       0       
      +0       0
  3985 ;;      Locals:         0       0       0       0       0       0       0       0       0       0       0       0       
      +0       0
  3986 ;;      Temps:          0       0       0       0       0       0       0       0       0       0       0       0       
      +0       0
  3987 ;;      Totals:         0       0       0       0       0       0       0       0       0       0       0       0       
      +0       0
  3988 ;;Total ram usage:        0 bytes
  3989 ;; Hardware stack levels used:    1
  3990 ;; Hardware stack levels required when called:    6
  3991 ;; This function calls:
  3992 ;;		_ClearScreen
  3993 ;;		_GLCD_Write_Cmd
  3994 ;; This function is called by:
  3995 ;;		_main
  3996 ;; This function uses a non-reentrant model
  3997 ;;
  3998                           
  3999                           
  4000                           ;psect for function _Init_GLCD
  4001  0543                     _Init_GLCD:	
  4002                           
  4003                           ;glcd.c: 170: unsigned char i;
  4004                           ;glcd.c: 172: TRISBbits.TRISB0=0;
  4005                           
  4006                           ;incstack = 0
  4007                           ; Regs used in _Init_GLCD: [wreg+status,2+status,0+pclath+cstack]
  4008  0543  0020               	movlb	0	; select bank0
  4009  0544  1012               	bcf	18,0	;volatile
  4010                           
  4011                           ;glcd.c: 173: TRISBbits.TRISB1=0;
  4012  0545  1092               	bcf	18,1	;volatile
  4013                           
  4014                           ;glcd.c: 174: TRISBbits.TRISB2=0;
  4015  0546  1112               	bcf	18,2	;volatile
  4016                           
  4017                           ;glcd.c: 175: TRISBbits.TRISB3=0;
  4018  0547  1192               	bcf	18,3	;volatile
  4019                           
  4020                           ;glcd.c: 176: TRISBbits.TRISB4=0;
  4021  0548  1212               	bcf	18,4	;volatile
  4022                           
  4023                           ;glcd.c: 177: TRISBbits.TRISB5=0;
  4024  0549  1292               	bcf	18,5	;volatile
  4025                           
  4026                           ;glcd.c: 180: LATBbits.LATB5=1;
  4027  054A  1697               	bsf	23,5	;volatile
  4028                           
  4029                           ;glcd.c: 181: LATBbits.LATB0=1;
  4030  054B  1417               	bsf	23,0	;volatile
  4031                           
  4032                           ;glcd.c: 182: LATBbits.LATB1=1;
  4033  054C  1497               	bsf	23,1	;volatile
  4034                           
  4035                           ;glcd.c: 184: GLCD_Write_Cmd(0x3f);
  4036  054D  303F               	movlw	63
  4037  054E  3185  250A  3185   	fcall	_GLCD_Write_Cmd
  4038                           
  4039                           ;glcd.c: 185: GLCD_Write_Cmd(0xc0);
  4040  0551  30C0               	movlw	192
  4041  0552  3185  250A  3185   	fcall	_GLCD_Write_Cmd
  4042                           
  4043                           ;glcd.c: 186: ClearScreen();
  4044  0555  3185  25FE         	fcall	_ClearScreen
  4045  0557  0008               	return
  4046  0558                     __end_of_Init_GLCD:	
  4047                           
  4048                           	psect	text12
  4049  05FE                     __ptext12:	
  4050 ;; *************** function _ClearScreen *****************
  4051 ;; Defined at:
  4052 ;;		line 151 in file "glcd.c"
  4053 ;; Parameters:    Size  Location     Type
  4054 ;;		None
  4055 ;; Auto vars:     Size  Location     Type
  4056 ;;  i               1    8[COMMON] unsigned char 
  4057 ;;  j               1    7[COMMON] unsigned char 
  4058 ;; Return value:  Size  Location     Type
  4059 ;;		None               void
  4060 ;; Registers used:
  4061 ;;		wreg, status,2, status,0, pclath, cstack
  4062 ;; Tracked objects:
  4063 ;;		On entry : 0/0
  4064 ;;		On exit  : 0/0
  4065 ;;		Unchanged: 0/0
  4066 ;; Data sizes:     COMMON   BANK0   BANK1   BANK2   BANK3   BANK4   BANK5   BANK6   BANK7   BANK8   BANK9  BANK10  BANK1
      +1  BANK12
  4067 ;;      Params:         0       0       0       0       0       0       0       0       0       0       0       0       
      +0       0
  4068 ;;      Locals:         2       0       0       0       0       0       0       0       0       0       0       0       
      +0       0
  4069 ;;      Temps:          1       0       0       0       0       0       0       0       0       0       0       0       
      +0       0
  4070 ;;      Totals:         3       0       0       0       0       0       0       0       0       0       0       0       
      +0       0
  4071 ;;Total ram usage:        3 bytes
  4072 ;; Hardware stack levels used:    1
  4073 ;; Hardware stack levels required when called:    5
  4074 ;; This function calls:
  4075 ;;		_GLCD_Write_Cmd
  4076 ;;		_GLCD_Write_Data
  4077 ;;		_SetPos
  4078 ;; This function is called by:
  4079 ;;		_Init_GLCD
  4080 ;; This function uses a non-reentrant model
  4081 ;;
  4082                           
  4083                           
  4084                           ;psect for function _ClearScreen
  4085  05FE                     _ClearScreen:	
  4086                           
  4087                           ;glcd.c: 153: unsigned char i,j;
  4088                           ;glcd.c: 154: LATBbits.LATB0=1;
  4089                           
  4090                           ;incstack = 0
  4091                           ; Regs used in _ClearScreen: [wreg+status,2+status,0+pclath+cstack]
  4092  05FE  0020               	movlb	0	; select bank0
  4093  05FF  1417               	bsf	23,0	;volatile
  4094                           
  4095                           ;glcd.c: 155: LATBbits.LATB1=1;
  4096  0600  1497               	bsf	23,1	;volatile
  4097                           
  4098                           ;glcd.c: 156: for(i=0;i<8;i++)
  4099  0601  01F8               	clrf	ClearScreen@i
  4100  0602  3008               	movlw	8
  4101  0603  0278               	subwf	ClearScreen@i,w
  4102  0604  1803               	btfsc	3,0
  4103  0605  2E28               	goto	l1018
  4104  0606                     l1000:	
  4105                           
  4106                           ;glcd.c: 157: {
  4107                           ;glcd.c: 158: GLCD_Write_Cmd(0x40);
  4108  0606  3040               	movlw	64
  4109  0607  3185  250A  3185   	fcall	_GLCD_Write_Cmd
  4110                           
  4111                           ;glcd.c: 159: GLCD_Write_Cmd(0xb8+i);
  4112  060A  0878               	movf	ClearScreen@i,w
  4113  060B  3EB8               	addlw	184
  4114  060C  3185  250A  3185   	fcall	_GLCD_Write_Cmd
  4115                           
  4116                           ;glcd.c: 160: for(j=0;j<0x40;j++)
  4117  060F  01F7               	clrf	ClearScreen@j
  4118  0610  3040               	movlw	64
  4119  0611  0277               	subwf	ClearScreen@j,w
  4120  0612  1803               	btfsc	3,0
  4121  0613  2E20               	goto	l1014
  4122  0614                     l1008:	
  4123                           
  4124                           ;glcd.c: 161: {
  4125                           ;glcd.c: 162: GLCD_Write_Data(0xFF);
  4126  0614  30FF               	movlw	255
  4127  0615  3184  24FE  3185   	fcall	_GLCD_Write_Data
  4128  0618  3001               	movlw	1
  4129  0619  00F6               	movwf	??_ClearScreen
  4130  061A  0876               	movf	??_ClearScreen,w
  4131  061B  07F7               	addwf	ClearScreen@j,f
  4132  061C  3040               	movlw	64
  4133  061D  0277               	subwf	ClearScreen@j,w
  4134  061E  1C03               	skipc
  4135  061F  2E14               	goto	l1008
  4136  0620                     l1014:	
  4137  0620  3001               	movlw	1
  4138  0621  00F6               	movwf	??_ClearScreen
  4139  0622  0876               	movf	??_ClearScreen,w
  4140  0623  07F8               	addwf	ClearScreen@i,f
  4141  0624  3008               	movlw	8
  4142  0625  0278               	subwf	ClearScreen@i,w
  4143  0626  1C03               	skipc
  4144  0627  2E06               	goto	l1000
  4145  0628                     l1018:	
  4146                           
  4147                           ;glcd.c: 163: }
  4148                           ;glcd.c: 164: }
  4149                           ;glcd.c: 165: SetPos(0,0);
  4150  0628  01F3               	clrf	SetPos@y
  4151  0629  3000               	movlw	0
  4152  062A  3185  2516         	fcall	_SetPos
  4153  062C  0008               	return
  4154  062D                     __end_of_ClearScreen:	
  4155                           
  4156                           	psect	text13
  4157  0516                     __ptext13:	
  4158 ;; *************** function _SetPos *****************
  4159 ;; Defined at:
  4160 ;;		line 260 in file "glcd.c"
  4161 ;; Parameters:    Size  Location     Type
  4162 ;;  x               1    wreg     unsigned char 
  4163 ;;  y               1    3[COMMON] unsigned char 
  4164 ;; Auto vars:     Size  Location     Type
  4165 ;;  x               1    5[COMMON] unsigned char 
  4166 ;; Return value:  Size  Location     Type
  4167 ;;		None               void
  4168 ;; Registers used:
  4169 ;;		wreg, status,2, status,0, pclath, cstack
  4170 ;; Tracked objects:
  4171 ;;		On entry : 0/0
  4172 ;;		On exit  : 0/0
  4173 ;;		Unchanged: 0/0
  4174 ;; Data sizes:     COMMON   BANK0   BANK1   BANK2   BANK3   BANK4   BANK5   BANK6   BANK7   BANK8   BANK9  BANK10  BANK1
      +1  BANK12
  4175 ;;      Params:         1       0       0       0       0       0       0       0       0       0       0       0       
      +0       0
  4176 ;;      Locals:         1       0       0       0       0       0       0       0       0       0       0       0       
      +0       0
  4177 ;;      Temps:          1       0       0       0       0       0       0       0       0       0       0       0       
      +0       0
  4178 ;;      Totals:         3       0       0       0       0       0       0       0       0       0       0       0       
      +0       0
  4179 ;;Total ram usage:        3 bytes
  4180 ;; Hardware stack levels used:    1
  4181 ;; Hardware stack levels required when called:    4
  4182 ;; This function calls:
  4183 ;;		_WritePosition
  4184 ;; This function is called by:
  4185 ;;		_main
  4186 ;;		_ClearScreen
  4187 ;; This function uses a non-reentrant model
  4188 ;;
  4189                           
  4190                           
  4191                           ;psect for function _SetPos
  4192  0516                     _SetPos:	
  4193                           
  4194                           ;incstack = 0
  4195                           ; Regs used in _SetPos: [wreg+status,2+status,0+pclath+cstack]
  4196                           ;SetPos@x stored from wreg
  4197  0516  00F5               	movwf	SetPos@x
  4198                           
  4199                           ;glcd.c: 262: XPos=x;
  4200  0517  0875               	movf	SetPos@x,w
  4201  0518  00F4               	movwf	??_SetPos
  4202  0519  0874               	movf	??_SetPos,w
  4203  051A  0020               	movlb	0	; select bank0
  4204  051B  00A8               	movwf	_XPos
  4205                           
  4206                           ;glcd.c: 263: YPos=y;
  4207  051C  0873               	movf	SetPos@y,w
  4208  051D  00F4               	movwf	??_SetPos
  4209  051E  0874               	movf	??_SetPos,w
  4210  051F  00A9               	movwf	_YPos
  4211                           
  4212                           ;glcd.c: 264: WritePosition();
  4213  0520  3185  259F         	fcall	_WritePosition
  4214  0522  0008               	return
  4215  0523                     __end_of_SetPos:	
  4216                           
  4217                           	psect	text14
  4218  059F                     __ptext14:	
  4219 ;; *************** function _WritePosition *****************
  4220 ;; Defined at:
  4221 ;;		line 121 in file "glcd.c"
  4222 ;; Parameters:    Size  Location     Type
  4223 ;;		None
  4224 ;; Auto vars:     Size  Location     Type
  4225 ;;		None
  4226 ;; Return value:  Size  Location     Type
  4227 ;;		None               void
  4228 ;; Registers used:
  4229 ;;		wreg, status,2, status,0, pclath, cstack
  4230 ;; Tracked objects:
  4231 ;;		On entry : 0/0
  4232 ;;		On exit  : 0/0
  4233 ;;		Unchanged: 0/0
  4234 ;; Data sizes:     COMMON   BANK0   BANK1   BANK2   BANK3   BANK4   BANK5   BANK6   BANK7   BANK8   BANK9  BANK10  BANK1
      +1  BANK12
  4235 ;;      Params:         0       0       0       0       0       0       0       0       0       0       0       0       
      +0       0
  4236 ;;      Locals:         0       0       0       0       0       0       0       0       0       0       0       0       
      +0       0
  4237 ;;      Temps:          1       0       0       0       0       0       0       0       0       0       0       0       
      +0       0
  4238 ;;      Totals:         1       0       0       0       0       0       0       0       0       0       0       0       
      +0       0
  4239 ;;Total ram usage:        1 bytes
  4240 ;; Hardware stack levels used:    1
  4241 ;; Hardware stack levels required when called:    3
  4242 ;; This function calls:
  4243 ;;		_GLCD_Write_Cmd
  4244 ;; This function is called by:
  4245 ;;		_MoveRight
  4246 ;;		_PutChar
  4247 ;;		_PutMessage
  4248 ;;		_SetPos
  4249 ;; This function uses a non-reentrant model
  4250 ;;
  4251                           
  4252                           
  4253                           ;psect for function _WritePosition
  4254  059F                     _WritePosition:	
  4255                           
  4256                           ;glcd.c: 123: if(XPos>63)
  4257                           
  4258                           ;incstack = 0
  4259                           ; Regs used in _WritePosition: [wreg+status,2+status,0+pclath+cstack]
  4260  059F  3040               	movlw	64
  4261  05A0  0020               	movlb	0	; select bank0
  4262  05A1  0228               	subwf	_XPos,w
  4263  05A2  1C03               	skipc
  4264  05A3  2DA7               	goto	l103
  4265                           
  4266                           ;glcd.c: 124: {
  4267                           ;glcd.c: 125: LATBbits.LATB0=0;
  4268  05A4  1017               	bcf	23,0	;volatile
  4269                           
  4270                           ;glcd.c: 126: LATBbits.LATB1=1;
  4271  05A5  1497               	bsf	23,1	;volatile
  4272                           
  4273                           ;glcd.c: 127: }
  4274  05A6  2DA9               	goto	l930
  4275  05A7                     l103:	
  4276                           
  4277                           ;glcd.c: 128: else
  4278                           ;glcd.c: 129: {
  4279                           ;glcd.c: 130: LATBbits.LATB0=1;
  4280  05A7  1417               	bsf	23,0	;volatile
  4281                           
  4282                           ;glcd.c: 131: LATBbits.LATB1=0;
  4283  05A8  1097               	bcf	23,1	;volatile
  4284  05A9                     l930:	
  4285                           
  4286                           ;glcd.c: 132: }
  4287                           ;glcd.c: 133: GLCD_Write_Cmd(0x40+(XPos&0x3f));
  4288  05A9  0828               	movf	_XPos,w
  4289  05AA  393F               	andlw	63
  4290  05AB  3E40               	addlw	64
  4291  05AC  3185  250A  3185   	fcall	_GLCD_Write_Cmd
  4292                           
  4293                           ;glcd.c: 134: GLCD_Write_Cmd(0xb8+((YPos&0x3f)>>3));
  4294  05AF  0020               	movlb	0	; select bank0
  4295  05B0  0829               	movf	_YPos,w
  4296  05B1  00F2               	movwf	??_WritePosition
  4297  05B2  3003               	movlw	3
  4298  05B3                     u395:	
  4299  05B3  36F2               	lsrf	??_WritePosition,f
  4300  05B4  0B89               	decfsz	9,f
  4301  05B5  2DB3               	goto	u395
  4302  05B6  0872               	movf	??_WritePosition,w
  4303  05B7  3907               	andlw	7
  4304  05B8  3EB8               	addlw	184
  4305  05B9  3185  250A         	fcall	_GLCD_Write_Cmd
  4306  05BB  0008               	return
  4307  05BC                     __end_of_WritePosition:	
  4308                           
  4309                           	psect	text15
  4310  050A                     __ptext15:	
  4311 ;; *************** function _GLCD_Write_Cmd *****************
  4312 ;; Defined at:
  4313 ;;		line 84 in file "glcd.c"
  4314 ;; Parameters:    Size  Location     Type
  4315 ;;  data            1    wreg     unsigned char 
  4316 ;; Auto vars:     Size  Location     Type
  4317 ;;  data            1    1[COMMON] unsigned char 
  4318 ;; Return value:  Size  Location     Type
  4319 ;;		None               void
  4320 ;; Registers used:
  4321 ;;		wreg, status,2, status,0, pclath, cstack
  4322 ;; Tracked objects:
  4323 ;;		On entry : 0/0
  4324 ;;		On exit  : 0/0
  4325 ;;		Unchanged: 0/0
  4326 ;; Data sizes:     COMMON   BANK0   BANK1   BANK2   BANK3   BANK4   BANK5   BANK6   BANK7   BANK8   BANK9  BANK10  BANK1
      +1  BANK12
  4327 ;;      Params:         0       0       0       0       0       0       0       0       0       0       0       0       
      +0       0
  4328 ;;      Locals:         1       0       0       0       0       0       0       0       0       0       0       0       
      +0       0
  4329 ;;      Temps:          0       0       0       0       0       0       0       0       0       0       0       0       
      +0       0
  4330 ;;      Totals:         1       0       0       0       0       0       0       0       0       0       0       0       
      +0       0
  4331 ;;Total ram usage:        1 bytes
  4332 ;; Hardware stack levels used:    1
  4333 ;; Hardware stack levels required when called:    2
  4334 ;; This function calls:
  4335 ;;		_Wait_Not_Busy
  4336 ;; This function is called by:
  4337 ;;		_plot
  4338 ;;		_WritePosition
  4339 ;;		_ClearScreen
  4340 ;;		_Init_GLCD
  4341 ;; This function uses a non-reentrant model
  4342 ;;
  4343                           
  4344                           
  4345                           ;psect for function _GLCD_Write_Cmd
  4346  050A                     _GLCD_Write_Cmd:	
  4347                           
  4348                           ;incstack = 0
  4349                           ; Regs used in _GLCD_Write_Cmd: [wreg+status,2+status,0+pclath+cstack]
  4350                           ;GLCD_Write_Cmd@data stored from wreg
  4351  050A  00F1               	movwf	GLCD_Write_Cmd@data
  4352                           
  4353                           ;glcd.c: 86: Wait_Not_Busy();
  4354  050B  3185  25DA         	fcall	_Wait_Not_Busy
  4355                           
  4356                           ;glcd.c: 87: PORTC = data;
  4357  050D  0871               	movf	GLCD_Write_Cmd@data,w
  4358  050E  0020               	movlb	0	; select bank0
  4359  050F  008E               	movwf	14	;volatile
  4360                           
  4361                           ;glcd.c: 88: LATBbits.LATB2=0;
  4362  0510  1117               	bcf	23,2	;volatile
  4363                           
  4364                           ;glcd.c: 89: LATBbits.LATB3=0;
  4365  0511  1197               	bcf	23,3	;volatile
  4366                           
  4367                           ;glcd.c: 90: LATBbits.LATB4=1;
  4368  0512  1617               	bsf	23,4	;volatile
  4369                           
  4370                           ;glcd.c: 92: LATBbits.LATB4=0;
  4371                           
  4372                           ;glcd.c: 91: _delay((unsigned long)((1)*(1000000/4000000.0)));
  4373  0513  0020               	movlb	0	; select bank0
  4374  0514  1217               	bcf	23,4	;volatile
  4375  0515  0008               	return
  4376  0516                     __end_of_GLCD_Write_Cmd:	
  4377                           
  4378                           	psect	text16
  4379  04FE                     __ptext16:	
  4380 ;; *************** function _GLCD_Write_Data *****************
  4381 ;; Defined at:
  4382 ;;		line 95 in file "glcd.c"
  4383 ;; Parameters:    Size  Location     Type
  4384 ;;  data            1    wreg     unsigned char 
  4385 ;; Auto vars:     Size  Location     Type
  4386 ;;  data            1    1[COMMON] unsigned char 
  4387 ;; Return value:  Size  Location     Type
  4388 ;;		None               void
  4389 ;; Registers used:
  4390 ;;		wreg, status,2, status,0, pclath, cstack
  4391 ;; Tracked objects:
  4392 ;;		On entry : 0/0
  4393 ;;		On exit  : 0/0
  4394 ;;		Unchanged: 0/0
  4395 ;; Data sizes:     COMMON   BANK0   BANK1   BANK2   BANK3   BANK4   BANK5   BANK6   BANK7   BANK8   BANK9  BANK10  BANK1
      +1  BANK12
  4396 ;;      Params:         0       0       0       0       0       0       0       0       0       0       0       0       
      +0       0
  4397 ;;      Locals:         1       0       0       0       0       0       0       0       0       0       0       0       
      +0       0
  4398 ;;      Temps:          0       0       0       0       0       0       0       0       0       0       0       0       
      +0       0
  4399 ;;      Totals:         1       0       0       0       0       0       0       0       0       0       0       0       
      +0       0
  4400 ;;Total ram usage:        1 bytes
  4401 ;; Hardware stack levels used:    1
  4402 ;; Hardware stack levels required when called:    2
  4403 ;; This function calls:
  4404 ;;		_Wait_Not_Busy
  4405 ;; This function is called by:
  4406 ;;		_plot
  4407 ;;		_ClearScreen
  4408 ;;		_PutChar
  4409 ;; This function uses a non-reentrant model
  4410 ;;
  4411                           
  4412                           
  4413                           ;psect for function _GLCD_Write_Data
  4414  04FE                     _GLCD_Write_Data:	
  4415                           
  4416                           ;incstack = 0
  4417                           ; Regs used in _GLCD_Write_Data: [wreg+status,2+status,0+pclath+cstack]
  4418                           ;GLCD_Write_Data@data stored from wreg
  4419  04FE  00F1               	movwf	GLCD_Write_Data@data
  4420                           
  4421                           ;glcd.c: 97: Wait_Not_Busy();
  4422  04FF  3185  25DA         	fcall	_Wait_Not_Busy
  4423                           
  4424                           ;glcd.c: 98: PORTC = data;
  4425  0501  0871               	movf	GLCD_Write_Data@data,w
  4426  0502  0020               	movlb	0	; select bank0
  4427  0503  008E               	movwf	14	;volatile
  4428                           
  4429                           ;glcd.c: 99: LATBbits.LATB2=1;
  4430  0504  1517               	bsf	23,2	;volatile
  4431                           
  4432                           ;glcd.c: 100: LATBbits.LATB3=0;
  4433  0505  1197               	bcf	23,3	;volatile
  4434                           
  4435                           ;glcd.c: 101: LATBbits.LATB4=1;
  4436  0506  1617               	bsf	23,4	;volatile
  4437                           
  4438                           ;glcd.c: 103: LATBbits.LATB4=0;
  4439                           
  4440                           ;glcd.c: 102: _delay((unsigned long)((1)*(1000000/4000000.0)));
  4441  0507  0020               	movlb	0	; select bank0
  4442  0508  1217               	bcf	23,4	;volatile
  4443  0509  0008               	return
  4444  050A                     __end_of_GLCD_Write_Data:	
  4445                           
  4446                           	psect	text17
  4447  05DA                     __ptext17:	
  4448 ;; *************** function _Wait_Not_Busy *****************
  4449 ;; Defined at:
  4450 ;;		line 62 in file "glcd.c"
  4451 ;; Parameters:    Size  Location     Type
  4452 ;;		None
  4453 ;; Auto vars:     Size  Location     Type
  4454 ;;		None
  4455 ;; Return value:  Size  Location     Type
  4456 ;;		None               void
  4457 ;; Registers used:
  4458 ;;		wreg, status,2, pclath, cstack
  4459 ;; Tracked objects:
  4460 ;;		On entry : 0/0
  4461 ;;		On exit  : 0/0
  4462 ;;		Unchanged: 0/0
  4463 ;; Data sizes:     COMMON   BANK0   BANK1   BANK2   BANK3   BANK4   BANK5   BANK6   BANK7   BANK8   BANK9  BANK10  BANK1
      +1  BANK12
  4464 ;;      Params:         0       0       0       0       0       0       0       0       0       0       0       0       
      +0       0
  4465 ;;      Locals:         0       0       0       0       0       0       0       0       0       0       0       0       
      +0       0
  4466 ;;      Temps:          0       0       0       0       0       0       0       0       0       0       0       0       
      +0       0
  4467 ;;      Totals:         0       0       0       0       0       0       0       0       0       0       0       0       
      +0       0
  4468 ;;Total ram usage:        0 bytes
  4469 ;; Hardware stack levels used:    1
  4470 ;; Hardware stack levels required when called:    1
  4471 ;; This function calls:
  4472 ;;		_GLCD_Read
  4473 ;; This function is called by:
  4474 ;;		_GLCD_Write_Cmd
  4475 ;;		_GLCD_Write_Data
  4476 ;;		_GLCD_Read_Data
  4477 ;; This function uses a non-reentrant model
  4478 ;;
  4479                           
  4480                           
  4481                           ;psect for function _Wait_Not_Busy
  4482  05DA                     _Wait_Not_Busy:	
  4483                           
  4484                           ;glcd.c: 64: TRISC=0xff;
  4485                           
  4486                           ;incstack = 0
  4487                           ; Regs used in _Wait_Not_Busy: [wreg+status,2+pclath+cstack]
  4488  05DA  30FF               	movlw	255
  4489  05DB  0020               	movlb	0	; select bank0
  4490  05DC  0093               	movwf	19	;volatile
  4491                           
  4492                           ;glcd.c: 65: LATBbits.LATB2=0;
  4493  05DD  1117               	bcf	23,2	;volatile
  4494                           
  4495                           ;glcd.c: 66: LATBbits.LATB3=1;
  4496  05DE  1597               	bsf	23,3	;volatile
  4497                           
  4498                           ;glcd.c: 67: if (LATBbits.LATB0==1 && LATBbits.LATB1==1)
  4499  05DF  1817               	btfsc	23,0	;volatile
  4500  05E0  1C97               	btfss	23,1	;volatile
  4501  05E1  2DF5               	goto	l872
  4502                           
  4503                           ;glcd.c: 68: {
  4504                           ;glcd.c: 69: LATBbits.LATB0=0;
  4505  05E2  1017               	bcf	23,0	;volatile
  4506  05E3                     l868:	
  4507                           ;glcd.c: 70: while (GLCD_Read()&0x80);
  4508                           
  4509  05E3  3184  24F4  3185   	fcall	_GLCD_Read
  4510  05E6  3980               	andlw	128
  4511  05E7  1D03               	btfss	3,2
  4512  05E8  2DE3               	goto	l868
  4513                           
  4514                           ;glcd.c: 71: LATBbits.LATB0=1;
  4515  05E9  0020               	movlb	0	; select bank0
  4516  05EA  1417               	bsf	23,0	;volatile
  4517                           
  4518                           ;glcd.c: 72: LATBbits.LATB1=0;
  4519  05EB  1097               	bcf	23,1	;volatile
  4520  05EC                     l870:	
  4521                           ;glcd.c: 73: while (GLCD_Read()&0x80);
  4522                           
  4523  05EC  3184  24F4  3185   	fcall	_GLCD_Read
  4524  05EF  3980               	andlw	128
  4525  05F0  1D03               	btfss	3,2
  4526  05F1  2DEC               	goto	l870
  4527                           
  4528                           ;glcd.c: 74: {
  4529                           ;glcd.c: 75: LATBbits.LATB1=1;
  4530  05F2  0020               	movlb	0	; select bank0
  4531  05F3  1497               	bsf	23,1	;volatile
  4532                           
  4533                           ;glcd.c: 76: }
  4534                           ;glcd.c: 77: }
  4535  05F4  2DFB               	goto	l874
  4536  05F5                     l872:	
  4537                           ;glcd.c: 78: else{
  4538                           ;glcd.c: 79: while (GLCD_Read()&0x80);
  4539                           
  4540  05F5  3184  24F4  3185   	fcall	_GLCD_Read
  4541  05F8  3980               	andlw	128
  4542  05F9  1D03               	btfss	3,2
  4543  05FA  2DF5               	goto	l872
  4544  05FB                     l874:	
  4545                           
  4546                           ;glcd.c: 80: }
  4547                           ;glcd.c: 81: TRISC=0x00;
  4548  05FB  0020               	movlb	0	; select bank0
  4549  05FC  0193               	clrf	19	;volatile
  4550  05FD  0008               	return
  4551  05FE                     __end_of_Wait_Not_Busy:	
  4552                           
  4553                           	psect	text18
  4554  04F4                     __ptext18:	
  4555 ;; *************** function _GLCD_Read *****************
  4556 ;; Defined at:
  4557 ;;		line 53 in file "glcd.c"
  4558 ;; Parameters:    Size  Location     Type
  4559 ;;		None
  4560 ;; Auto vars:     Size  Location     Type
  4561 ;;		None
  4562 ;; Return value:  Size  Location     Type
  4563 ;;                  1    wreg      unsigned char 
  4564 ;; Registers used:
  4565 ;;		wreg
  4566 ;; Tracked objects:
  4567 ;;		On entry : 0/0
  4568 ;;		On exit  : 0/0
  4569 ;;		Unchanged: 0/0
  4570 ;; Data sizes:     COMMON   BANK0   BANK1   BANK2   BANK3   BANK4   BANK5   BANK6   BANK7   BANK8   BANK9  BANK10  BANK1
      +1  BANK12
  4571 ;;      Params:         0       0       0       0       0       0       0       0       0       0       0       0       
      +0       0
  4572 ;;      Locals:         0       0       0       0       0       0       0       0       0       0       0       0       
      +0       0
  4573 ;;      Temps:          1       0       0       0       0       0       0       0       0       0       0       0       
      +0       0
  4574 ;;      Totals:         1       0       0       0       0       0       0       0       0       0       0       0       
      +0       0
  4575 ;;Total ram usage:        1 bytes
  4576 ;; Hardware stack levels used:    1
  4577 ;; This function calls:
  4578 ;;		Nothing
  4579 ;; This function is called by:
  4580 ;;		_Wait_Not_Busy
  4581 ;; This function uses a non-reentrant model
  4582 ;;
  4583                           
  4584                           
  4585                           ;psect for function _GLCD_Read
  4586  04F4                     _GLCD_Read:	
  4587                           
  4588                           ;glcd.c: 55: LATBbits.LATB4=1;
  4589                           
  4590                           ;incstack = 0
  4591                           ; Regs used in _GLCD_Read: [wreg]
  4592  04F4  0020               	movlb	0	; select bank0
  4593  04F5  1617               	bsf	23,4	;volatile
  4594                           
  4595                           ;glcd.c: 57: W=PORTC;
  4596                           
  4597                           ;glcd.c: 56: _delay((unsigned long)((1)*(1000000/4000000.0)));
  4598  04F6  0020               	movlb	0	; select bank0
  4599  04F7  080E               	movf	14,w	;volatile
  4600  04F8  00F0               	movwf	??_GLCD_Read
  4601  04F9  0870               	movf	??_GLCD_Read,w
  4602  04FA  00A7               	movwf	_W
  4603                           
  4604                           ;glcd.c: 58: LATBbits.LATB4=0;
  4605  04FB  1217               	bcf	23,4	;volatile
  4606                           
  4607                           ;glcd.c: 59: return W;
  4608  04FC  0827               	movf	_W,w
  4609  04FD  0008               	return
  4610  04FE                     __end_of_GLCD_Read:	
  4611                           
  4612                           	psect	text19
  4613  0523                     __ptext19:	
  4614 ;; *************** function _Init *****************
  4615 ;; Defined at:
  4616 ;;		line 41 in file "system.c"
  4617 ;; Parameters:    Size  Location     Type
  4618 ;;		None
  4619 ;; Auto vars:     Size  Location     Type
  4620 ;;		None
  4621 ;; Return value:  Size  Location     Type
  4622 ;;		None               void
  4623 ;; Registers used:
  4624 ;;		status,2
  4625 ;; Tracked objects:
  4626 ;;		On entry : 0/0
  4627 ;;		On exit  : 0/0
  4628 ;;		Unchanged: 0/0
  4629 ;; Data sizes:     COMMON   BANK0   BANK1   BANK2   BANK3   BANK4   BANK5   BANK6   BANK7   BANK8   BANK9  BANK10  BANK1
      +1  BANK12
  4630 ;;      Params:         0       0       0       0       0       0       0       0       0       0       0       0       
      +0       0
  4631 ;;      Locals:         0       0       0       0       0       0       0       0       0       0       0       0       
      +0       0
  4632 ;;      Temps:          0       0       0       0       0       0       0       0       0       0       0       0       
      +0       0
  4633 ;;      Totals:         0       0       0       0       0       0       0       0       0       0       0       0       
      +0       0
  4634 ;;Total ram usage:        0 bytes
  4635 ;; Hardware stack levels used:    1
  4636 ;; This function calls:
  4637 ;;		Nothing
  4638 ;; This function is called by:
  4639 ;;		_main
  4640 ;; This function uses a non-reentrant model
  4641 ;;
  4642                           
  4643                           
  4644                           ;psect for function _Init
  4645  0523                     _Init:	
  4646                           
  4647                           ;system.c: 43: TRISA = 0x00;
  4648                           
  4649                           ;incstack = 0
  4650                           ; Regs used in _Init: [status,2]
  4651  0523  0020               	movlb	0	; select bank0
  4652  0524  0191               	clrf	17	;volatile
  4653                           
  4654                           ;system.c: 44: TRISB = 0x00;
  4655  0525  0192               	clrf	18	;volatile
  4656                           
  4657                           ;system.c: 45: TRISC = 0x00;
  4658  0526  0193               	clrf	19	;volatile
  4659                           
  4660                           ;system.c: 47: PORTA = 0x00;
  4661  0527  018C               	clrf	12	;volatile
  4662                           
  4663                           ;system.c: 48: PORTB = 0x00;
  4664  0528  018D               	clrf	13	;volatile
  4665                           
  4666                           ;system.c: 49: PORTC = 0x00;
  4667  0529  018E               	clrf	14	;volatile
  4668                           
  4669                           ;system.c: 51: LATA = 0x00;
  4670  052A  0196               	clrf	22	;volatile
  4671                           
  4672                           ;system.c: 52: LATB = 0x00;
  4673  052B  0197               	clrf	23	;volatile
  4674                           
  4675                           ;system.c: 53: LATC = 0x00;
  4676  052C  0198               	clrf	24	;volatile
  4677                           
  4678                           ;system.c: 55: ANSELA = 0x00;
  4679  052D  003E               	movlb	30	; select bank30
  4680  052E  01B8               	clrf	56	;volatile
  4681                           
  4682                           ;system.c: 56: ANSELB = 0x00;
  4683  052F  01C3               	clrf	67	;volatile
  4684                           
  4685                           ;system.c: 57: ANSELC = 0x00;
  4686  0530  01CE               	clrf	78	;volatile
  4687  0531  0008               	return
  4688  0532                     __end_of_Init:	
  4689  007E                     btemp	set	126	;btemp
  4690  007E                     wtemp	set	126
  4691  007E                     wtemp0	set	126
  4692  0080                     wtemp1	set	128
  4693  0082                     wtemp2	set	130
  4694  0084                     wtemp3	set	132
  4695  0086                     wtemp4	set	134
  4696  0088                     wtemp5	set	136
  4697  007F                     wtemp6	set	127
  4698  007E                     ttemp	set	126
  4699  007E                     ttemp0	set	126
  4700  0081                     ttemp1	set	129
  4701  0084                     ttemp2	set	132
  4702  0087                     ttemp3	set	135
  4703  007F                     ttemp4	set	127
  4704  007E                     ltemp	set	126
  4705  007E                     ltemp0	set	126
  4706  0082                     ltemp1	set	130
  4707  0086                     ltemp2	set	134
  4708  0080                     ltemp3	set	128


Data Sizes:
    Strings     127
    Constant    727
    Data        0
    BSS         3
    Persistent  0
    Stack       0

Auto Spaces:
    Space          Size  Autos    Used
    COMMON           14     14      14
    BANK0            80      7      10
    BANK1            80      0       0
    BANK2            80      0       0
    BANK3            80      0       0
    BANK4            80      0       0
    BANK5            80      0       0
    BANK6            80      0       0
    BANK7            80      0       0
    BANK8            80      0       0
    BANK9            80      0       0
    BANK10           80      0       0
    BANK11           80      0       0
    BANK12           48      0       0

Pointer List with Targets:

    PutLogo@logo	PTR const unsigned char  size(2) Largest target is 55
		 -> Logo(CODE[55]), 

    PutMessage@Message	PTR const unsigned char  size(2) Largest target is 62
		 -> STR_5(CODE[14]), STR_4(CODE[17]), STR_3(CODE[16]), STR_2(CODE[18]), 
		 -> STR_1(CODE[62]), 


Critical Paths under _main in COMMON

    _main->_box
    _box->_hline
    _box->_vline
    _vline->_plot
    _hline->_plot
    _PutMessage->_PutChar
    _PutChar->___wmul
    _MoveRight->_WritePosition
    _PutLogo->_plot
    _plot->_GLCD_Read_Data
    _plot->_GLCD_Write_Cmd
    _plot->_GLCD_Write_Data
    _Init_GLCD->_ClearScreen
    _ClearScreen->_SetPos
    _SetPos->_WritePosition
    _WritePosition->_GLCD_Write_Cmd
    _Wait_Not_Busy->_GLCD_Read

Critical Paths under _main in BANK0

    _main->_PutLogo

Critical Paths under _main in BANK1

    None.

Critical Paths under _main in BANK2

    None.

Critical Paths under _main in BANK3

    None.

Critical Paths under _main in BANK4

    None.

Critical Paths under _main in BANK5

    None.

Critical Paths under _main in BANK6

    None.

Critical Paths under _main in BANK7

    None.

Critical Paths under _main in BANK8

    None.

Critical Paths under _main in BANK9

    None.

Critical Paths under _main in BANK10

    None.

Critical Paths under _main in BANK11

    None.

Critical Paths under _main in BANK12

    None.

Call Graph Tables:

 ---------------------------------------------------------------------------------
 (Depth) Function   	        Calls       Base Space   Used Autos Params    Refs
 ---------------------------------------------------------------------------------
 (0) _main                                                 3     3      0    3944
                                              5 BANK0      2     2      0
                               _Init
                          _Init_GLCD
                            _PutLogo
                         _PutMessage
                             _SetPos
                                _box
 ---------------------------------------------------------------------------------
 (1) _box                                                  6     3      3    1793
                                             12 COMMON     2     2      0
                                              0 BANK0      4     1      3
                              _hline
                              _vline
 ---------------------------------------------------------------------------------
 (2) _vline                                                5     3      2     685
                                              7 COMMON     5     3      2
                               _plot
 ---------------------------------------------------------------------------------
 (2) _hline                                                5     3      2     685
                                              7 COMMON     5     3      2
                               _plot
 ---------------------------------------------------------------------------------
 (1) _PutMessage                                           3     1      2     844
                                              0 BANK0      3     1      2
                            _PutChar
                      _WritePosition
 ---------------------------------------------------------------------------------
 (2) _PutChar                                              8     8      0     443
                                              6 COMMON     8     8      0
                    _GLCD_Write_Data
                          _MoveRight
                      _WritePosition
                             ___wmul
 ---------------------------------------------------------------------------------
 (3) ___wmul                                               6     2      4     198
                                              0 COMMON     6     2      4
 ---------------------------------------------------------------------------------
 (3) _MoveRight                                            1     1      0      22
                                              3 COMMON     1     1      0
                      _WritePosition
 ---------------------------------------------------------------------------------
 (1) _PutLogo                                              8     6      2     677
                                              7 COMMON     3     1      2
                                              0 BANK0      5     5      0
                               _plot
 ---------------------------------------------------------------------------------
 (3) _plot                                                 5     4      1     361
                                              2 COMMON     5     4      1
                     _GLCD_Read_Data
                     _GLCD_Write_Cmd
                    _GLCD_Write_Data
 ---------------------------------------------------------------------------------
 (4) _GLCD_Read_Data                                       1     1      0       0
                                              1 COMMON     1     1      0
                      _Wait_Not_Busy
 ---------------------------------------------------------------------------------
 (1) _Init_GLCD                                            1     1      0     405
                        _ClearScreen
                     _GLCD_Write_Cmd
 ---------------------------------------------------------------------------------
 (2) _ClearScreen                                          3     3      0     383
                                              6 COMMON     3     3      0
                     _GLCD_Write_Cmd
                    _GLCD_Write_Data
                             _SetPos
 ---------------------------------------------------------------------------------
 (1) _SetPos                                               3     2      1     225
                                              3 COMMON     3     2      1
                      _WritePosition
 ---------------------------------------------------------------------------------
 (2) _WritePosition                                        1     1      0      22
                                              2 COMMON     1     1      0
                     _GLCD_Write_Cmd
 ---------------------------------------------------------------------------------
 (4) _GLCD_Write_Cmd                                       1     1      0      22
                                              1 COMMON     1     1      0
                      _Wait_Not_Busy
 ---------------------------------------------------------------------------------
 (4) _GLCD_Write_Data                                      1     1      0      22
                                              1 COMMON     1     1      0
                      _Wait_Not_Busy
 ---------------------------------------------------------------------------------
 (5) _Wait_Not_Busy                                        0     0      0       0
                          _GLCD_Read
 ---------------------------------------------------------------------------------
 (6) _GLCD_Read                                            1     1      0       0
                                              0 COMMON     1     1      0
 ---------------------------------------------------------------------------------
 (1) _Init                                                 0     0      0       0
 ---------------------------------------------------------------------------------
 Estimated maximum stack depth 6
 ---------------------------------------------------------------------------------

 Call Graph Graphs:

 _main (ROOT)
   _Init
   _Init_GLCD
     _ClearScreen
       _GLCD_Write_Cmd
         _Wait_Not_Busy
           _GLCD_Read
       _GLCD_Write_Data
         _Wait_Not_Busy
           _GLCD_Read
       _SetPos
         _WritePosition
           _GLCD_Write_Cmd
             _Wait_Not_Busy
               _GLCD_Read
     _GLCD_Write_Cmd
       _Wait_Not_Busy
         _GLCD_Read
   _PutLogo
     _plot
       _GLCD_Read_Data
         _Wait_Not_Busy
           _GLCD_Read
       _GLCD_Write_Cmd
         _Wait_Not_Busy
           _GLCD_Read
       _GLCD_Write_Data
         _Wait_Not_Busy
           _GLCD_Read
   _PutMessage
     _PutChar
       _GLCD_Write_Data
         _Wait_Not_Busy
           _GLCD_Read
       _MoveRight
         _WritePosition
           _GLCD_Write_Cmd
             _Wait_Not_Busy
               _GLCD_Read
       _WritePosition
         _GLCD_Write_Cmd
           _Wait_Not_Busy
             _GLCD_Read
       ___wmul
     _WritePosition
       _GLCD_Write_Cmd
         _Wait_Not_Busy
           _GLCD_Read
   _SetPos
     _WritePosition
       _GLCD_Write_Cmd
         _Wait_Not_Busy
           _GLCD_Read
   _box
     _hline
       _plot
         _GLCD_Read_Data
           _Wait_Not_Busy
             _GLCD_Read
         _GLCD_Write_Cmd
           _Wait_Not_Busy
             _GLCD_Read
         _GLCD_Write_Data
           _Wait_Not_Busy
             _GLCD_Read
     _vline
       _plot
         _GLCD_Read_Data
           _Wait_Not_Busy
             _GLCD_Read
         _GLCD_Write_Cmd
           _Wait_Not_Busy
             _GLCD_Read
         _GLCD_Write_Data
           _Wait_Not_Busy
             _GLCD_Read

 Address spaces:
Name               Size   Autos  Total    Cost      Usage
BIGRAM             3F0      0       0       0        0.0%
NULL                 0      0       0       0        0.0%
CODE                 0      0       0       0        0.0%
BITCOMMON            E      0       0       1        0.0%
BITSFR0              0      0       0       1        0.0%
SFR0                 0      0       0       1        0.0%
COMMON               E      E       E       2      100.0%
BITSFR1              0      0       0       2        0.0%
SFR1                 0      0       0       2        0.0%
BITSFR2              0      0       0       3        0.0%
SFR2                 0      0       0       3        0.0%
STACK                0      0       0       3        0.0%
BITBANK0            50      0       0       4        0.0%
BITSFR3              0      0       0       4        0.0%
SFR3                 0      0       0       4        0.0%
BANK0               50      7       A       5       12.5%
BITSFR4              0      0       0       5        0.0%
SFR4                 0      0       0       5        0.0%
BITBANK1            50      0       0       6        0.0%
BITSFR5              0      0       0       6        0.0%
SFR5                 0      0       0       6        0.0%
BANK1               50      0       0       7        0.0%
BITSFR6              0      0       0       7        0.0%
SFR6                 0      0       0       7        0.0%
BITBANK2            50      0       0       8        0.0%
BITSFR7              0      0       0       8        0.0%
SFR7                 0      0       0       8        0.0%
BANK2               50      0       0       9        0.0%
BITSFR8              0      0       0       9        0.0%
SFR8                 0      0       0       9        0.0%
BITBANK3            50      0       0      10        0.0%
BITSFR9              0      0       0      10        0.0%
SFR9                 0      0       0      10        0.0%
BANK3               50      0       0      11        0.0%
BITSFR10             0      0       0      11        0.0%
SFR10                0      0       0      11        0.0%
BITBANK4            50      0       0      12        0.0%
BITSFR11             0      0       0      12        0.0%
SFR11                0      0       0      12        0.0%
BANK4               50      0       0      13        0.0%
BITSFR12             0      0       0      13        0.0%
SFR12                0      0       0      13        0.0%
BITBANK5            50      0       0      14        0.0%
BITSFR13             0      0       0      14        0.0%
SFR13                0      0       0      14        0.0%
BANK5               50      0       0      15        0.0%
BITSFR14             0      0       0      15        0.0%
SFR14                0      0       0      15        0.0%
BITBANK6            50      0       0      16        0.0%
BITSFR15             0      0       0      16        0.0%
SFR15                0      0       0      16        0.0%
BANK6               50      0       0      17        0.0%
BITSFR16             0      0       0      17        0.0%
SFR16                0      0       0      17        0.0%
BITBANK7            50      0       0      18        0.0%
BITSFR17             0      0       0      18        0.0%
SFR17                0      0       0      18        0.0%
BANK7               50      0       0      19        0.0%
BITSFR18             0      0       0      19        0.0%
SFR18                0      0       0      19        0.0%
BITSFR19             0      0       0      20        0.0%
SFR19                0      0       0      20        0.0%
ABS                  0      0      18      20        0.0%
BITBANK8            50      0       0      21        0.0%
BITSFR20             0      0       0      21        0.0%
SFR20                0      0       0      21        0.0%
BANK8               50      0       0      22        0.0%
BITSFR21             0      0       0      22        0.0%
SFR21                0      0       0      22        0.0%
BITBANK9            50      0       0      23        0.0%
BITSFR22             0      0       0      23        0.0%
SFR22                0      0       0      23        0.0%
BANK9               50      0       0      24        0.0%
BITSFR23             0      0       0      24        0.0%
SFR23                0      0       0      24        0.0%
BITBANK10           50      0       0      25        0.0%
BITSFR24             0      0       0      25        0.0%
SFR24                0      0       0      25        0.0%
BANK10              50      0       0      26        0.0%
BITSFR25             0      0       0      26        0.0%
SFR25                0      0       0      26        0.0%
BITBANK11           50      0       0      27        0.0%
BITSFR26             0      0       0      27        0.0%
SFR26                0      0       0      27        0.0%
BANK11              50      0       0      28        0.0%
BITSFR27             0      0       0      28        0.0%
SFR27                0      0       0      28        0.0%
BITBANK12           30      0       0      29        0.0%
BITSFR28             0      0       0      29        0.0%
SFR28                0      0       0      29        0.0%
BANK12              30      0       0      30        0.0%
BITSFR29             0      0       0      30        0.0%
SFR29                0      0       0      30        0.0%
BITSFR30             0      0       0      31        0.0%
SFR30                0      0       0      31        0.0%
DATA                 0      0      18      31        0.0%
BITSFR31             0      0       0      32        0.0%
SFR31                0      0       0      32        0.0%


Microchip Technology PIC Macro Assembler V1.35 build -356382666 
Symbol Table                                                                                   Fri Apr 21 21:54:42 2017

                       _W 0027               __CFG_CP$OFF 0000                        l19 0798  
                      l55 06AD       ___wmul@multiplicand 0072               __CFG_LVP$ON 0000  
                     l103 05A7                       l124 07A1                       l182 058C  
                     l930 05A9                       l870 05EC                       l942 06B0  
                     l872 05F5                       l952 05C8                       l874 05FB  
                     l868 05E3                       l964 0586                       l982 055D  
                     l990 0573                       u415 06B8                       u424 06D8  
                     u425 06D7              __CFG_CPD$OFF 0000                       u465 058D  
                     u395 05B3                       u475 0592           PutLogo@bitcount 0023  
                     _box 062D              __CFG_BORV$LO 0000                       wreg 0009  
      __size_of_GLCD_Read 000A              __CFG_ZCD$OFF 0000                      l1000 0606  
                    l1100 0722                      l1014 0620                      l1110 0730  
                    l1030 07AD                      l1008 0614                      l1040 07BD  
                    l1032 07B5                      l1024 079F                      l1018 0628  
                    l1050 07F3                      l1034 07B8                      l1108 0701  
                    l1046 07EB                      l1070 0693                      l1074 0662  
                    l1086 0700                      l1096 0718                      ?_box 0020  
                    STR_1 0AD7                      STR_2 0B15                      STR_3 0B38  
                    STR_4 0B27                      STR_5 0B48                      _LATA 0016  
                    _LATB 0017                      _LATC 0018                      _Font 0800  
                    _Init 0523                      _XPos 0028                      _YPos 0029  
                    _Logo 0AA0              __CFG_WRT$OFF 0000             __CFG_FCMEN$ON 0000  
                    _main 073B                      _plot 06A2                      fsr0h 0005  
                    fsr0l 0004                      indf0 0000                      btemp 007E  
           __CFG_BOREN$ON 0000                      ltemp 007E                      start 0002  
                    ttemp 007E                      wtemp 007E             __CFG_CSWEN$ON 0000  
           __CFG_MCLRE$ON 0000                     ??_box 007C           __end_of_PutChar 07FA  
                   ?_Init 0070           __end_of_PutLogo 073B                     ?_main 0070  
           __CFG_WDTE$OFF 0000                     ?_plot 0072                     _PORTA 000C  
                   _PORTB 000D                     _PORTC 000E           _GLCD_Write_Data 04FE  
                   _TRISA 0011                     _TRISB 0012                     _TRISC 0013  
                   _hline 0558                     box@x1 0023                     box@x2 0021  
                   box@y1 0020                     box@y2 0022    __size_of_WritePosition 001D  
                   _vline 056E                     ltemp0 007E                     ltemp1 0082  
                   ltemp2 0086                     ltemp3 0080                     plot@d 0075  
                   plot@x 0076                     plot@y 0072               _ClearScreen 05FE  
                   ttemp0 007E                     ttemp1 0081                     ttemp2 0084  
                   ttemp3 0087                     ttemp4 007F                     status 0003  
                   wtemp0 007E                     wtemp1 0080                     wtemp2 0082  
                   wtemp3 0084                     wtemp4 0086                     wtemp5 0088  
                   wtemp6 007F     __end_of_Wait_Not_Busy 05FE        GLCD_Write_Cmd@data 0071  
         __initialization 07FA              __end_of_Font 0AA0              __end_of_Init 0532  
            __end_of_Logo 0AD7              __end_of_main 0799              __end_of_plot 06E6  
       __end_of_GLCD_Read 04FE                    ??_Init 0070                    ??_main 0025  
                  ??_plot 0073                    ?_hline 0077                    ?_vline 0077  
                  _ANSELA 0F38                    _ANSELB 0F43                    _ANSELC 0F4E  
      __CFG_RSTOSC$HFINT1 0000            __CFG_WDTCCS$SC 0000        __size_of_Init_GLCD 0015  
          __CFG_PWRTE$OFF 0000                    _SetPos 0516                 ??_PutChar 0076  
               ??_PutLogo 0079                    ___wmul 0584             _WritePosition 059F  
          __CFG_STVREN$ON 0000   __end_of_GLCD_Write_Data 050A        __size_of_MoveRight 001E  
              _PutMessage 0662                    hline@i 007B                    hline@x 007A  
                  vline@i 007B                    vline@y 0078   __end_of__initialization 07FD  
     GLCD_Write_Data@data 0071            __pcstackCOMMON 0070            ?_WritePosition 0070  
           __end_of_hline 056E             __end_of_vline 0584   __size_of_GLCD_Read_Data 0011  
       __end_of_Init_GLCD 0558                   ??_hline 0079                   ??_vline 0079  
              __pbssBANK0 0027         __end_of_MoveRight 05DA                   ?_SetPos 0073  
              __pmaintext 073B                   ?___wmul 0070           __CFG_PPS1WAY$ON 0000  
        ?_GLCD_Write_Data 0070   __size_of_GLCD_Write_Cmd 000C               ?_PutMessage 0020  
             PutChar@data 007C              ?_ClearScreen 0070                   SetPos@x 0075  
                 SetPos@y 0073           ??_WritePosition 0072                   _PutChar 0799  
         __size_of_SetPos 000D                   _PutLogo 06E6      __CFG_SCANE$available 0000  
         __size_of___wmul 001B         PutMessage@Message 0020                   __ptext1 062D  
                 __ptext2 056E                   __ptext3 0558                   __ptext4 0662  
                 __ptext5 0799                   __ptext6 0584                   __ptext7 05BC  
                 __ptext8 06E6                   __ptext9 06A2                 _GLCD_Read 04F4  
            __size_of_box 0035               PutLogo@Byte 0022               PutLogo@logo 0077  
                 hline@y1 0077                   hline@y2 0078      end_of_initialization 07FD  
     __size_of_PutMessage 0040                   vline@x1 007A                   vline@x2 0077  
            __pstringtext 0800            _GLCD_Read_Data 0532     __CFG_WDTCPS$WDTCPS_31 0000  
              ?_GLCD_Read 0070    __size_of_Wait_Not_Busy 0024                 _TRISBbits 0012  
        __CFG_FEXTOSC$ECH 0000    __end_of_GLCD_Read_Data 0543            __end_of_SetPos 0523  
          __end_of___wmul 059F            _GLCD_Write_Cmd 050A                 _Init_GLCD 0543  
     start_initialization 07FA               __end_of_box 0662      __size_of_ClearScreen 002F  
               _MoveRight 05BC             _Wait_Not_Busy 05DA          __CFG_LPBOREN$OFF 0000  
                ??_SetPos 0074              ClearScreen@i 0078              ClearScreen@j 0077  
         ?_GLCD_Read_Data 0070    __end_of_GLCD_Write_Cmd 0516                  ??___wmul 0074  
            ??_PutMessage 0022               ??_GLCD_Read 0070                ?_Init_GLCD 0070  
               ___latbits 0002             __pcstackBANK0 0020            ?_Wait_Not_Busy 0070  
              ?_MoveRight 0070        __end_of_PutMessage 06A2                  ?_PutChar 0070  
                ?_PutLogo 0077           ?_GLCD_Write_Cmd 0070  __size_of_GLCD_Write_Data 000C  
          __size_of_hline 0016            __size_of_vline 0016            ___wmul@product 0074  
                _LATBbits 0017     __end_of_WritePosition 05BC         ___wmul@multiplier 0070  
             ??_Init_GLCD 0079           ??_Wait_Not_Busy 0071               ??_MoveRight 0073  
                PutChar@d 007B                  PutChar@i 007D                  PutLogo@h 0020  
                PutLogo@i 0021                  PutLogo@w 0024          __size_of_PutChar 0061  
        __size_of_PutLogo 0055                  __ptext10 0532                  __ptext11 0543  
                __ptext12 05FE                  __ptext13 0516                  __ptext14 059F  
                __ptext15 050A                  __ptext16 04FE                  __ptext17 05DA  
                __ptext18 04F4                  __ptext19 0523         ??_GLCD_Write_Data 0071  
           __size_of_Init 000F             __size_of_main 005E             __size_of_plot 0044  
        ??_GLCD_Read_Data 0071      __CFG_WDTCWS$WDTCWS_7 0000             ??_ClearScreen 0076  
       __CFG_CLKOUTEN$OFF 0000          ??_GLCD_Write_Cmd 0071       __end_of_ClearScreen 062D  
